(lp0
(lp1
(dp2
S'problem'
p3
S'Box_Stacks-i0024-549-101.hdf5'
p4
sS'acary (time)'
p5
F0.17568399999999995
sS'p_ratio acary (time)'
p6
cnumpy.core.multiarray
scalar
p7
(cnumpy
dtype
p8
(S'f8'
p9
I0
I1
tp10
Rp11
(I3
S'<'
p12
NNNI-1
I-1
I0
tp13
bS'\x00\x00\x00\x00\x00\x00\xf0?'
p14
tp15
Rp16
sS'solver'
p17
S'cp_N'
p18
sa(dp19
g3
g4
sS'acary (time)'
p20
F0.24710699999999997
sS'p_ratio acary (time)'
p21
g7
(g11
S'!$*\xa22\x81\xf6?'
p22
tp23
Rp24
sg17
S'cp_R'
p25
sa(dp26
g3
g4
sS'acary (time)'
p27
F0.25407599999999997
sS'p_ratio acary (time)'
p28
g7
(g11
S'\x08\xa6\x8bY\xad#\xf7?'
p29
tp30
Rp31
sg17
S'cp_RR'
p32
sa(dp33
g3
g4
sS'acary (time)'
p34
F0.48997099999999993
sS'p_ratio acary (time)'
p35
g7
(g11
S'\x0f\r@c\xbcO\x06@'
p36
tp37
Rp38
sg17
S'vp_N_He'
p39
sa(dp40
g3
g4
sS'acary (time)'
p41
F106.79497599999999
sS'p_ratio acary (time)'
p42
g7
(g11
S'\t\xa0\xc0h\x0c\xff\x82@'
p43
tp44
Rp45
sg17
S'vp_R_He'
p46
sa(dp47
g3
g4
sS'acary (time)'
p48
F0.43315699999999424
sS'p_ratio acary (time)'
p49
g7
(g11
S'\xfaS\x08;p\xb9\x03@'
p50
tp51
Rp52
sg17
S'vp_RR_He'
p53
sa(dp54
g3
g4
sS'acary (time)'
p55
F1.5304370000000063
sS'p_ratio acary (time)'
p56
g7
(g11
S'\xed\xcf\xe5<0l!@'
p57
tp58
Rp59
sg17
S'vp_N_Spectral'
p60
sa(dp61
g3
g4
sS'acary (time)'
p62
F88.513073
sS'p_ratio acary (time)'
p63
g7
(g11
S'${K\xca\x1d}\x7f@'
p64
tp65
Rp66
sg17
S'vp_R_Spectral'
p67
sa(dp68
g3
g4
sS'acary (time)'
p69
F87.38285000000002
sS'p_ratio acary (time)'
p70
g7
(g11
S'\x1a}l\x1b/\x16\x7f@'
p71
tp72
Rp73
sg17
S'vp_RR_Spectral'
p74
sa(dp75
g3
g4
sS'acary (time)'
p76
F0.34841199999999617
sS'p_ratio acary (time)'
p77
g7
(g11
S'0B$\x03\x15\xbb\xff?'
p78
tp79
Rp80
sg17
S'vp_N_Wohlberg'
p81
sa(dp82
g3
g4
sS'acary (time)'
p83
F0.20163400000001275
sS'p_ratio acary (time)'
p84
g7
(g11
S'\xa6\xcb\xd1w\x03]\xf2?'
p85
tp86
Rp87
sg17
S'vp_R_Wohlberg'
p88
sa(dp89
g3
g4
sS'acary (time)'
p90
F1.111838999999975
sS'p_ratio acary (time)'
p91
g7
(g11
S'8\xbdfU\x84P\x19@'
p92
tp93
Rp94
sg17
S'vp_RR_Wohlberg'
p95
saa(lp96
(dp97
g3
S'Box_Stacks-i0026-549-100.hdf5'
p98
sS'acary (time)'
p99
F0.17185799999998608
sS'p_ratio acary (time)'
p100
g7
(g11
S'\x00\x00\x00\x00\x00\x00\xf0?'
p101
tp102
Rp103
sg17
g18
sa(dp104
g3
g98
sS'acary (time)'
p105
F0.24231000000003178
sS'p_ratio acary (time)'
p106
g7
(g11
S'\x9a\xcf\xfb| \x8f\xf6?'
p107
tp108
Rp109
sg17
g25
sa(dp110
g3
g98
sS'acary (time)'
p111
F0.2531979999999976
sS'p_ratio acary (time)'
p112
g7
(g11
S'S/\xf9\xa1\xa0\x92\xf7?'
p113
tp114
Rp115
sg17
g32
sa(dp116
g3
g98
sS'acary (time)'
p117
F0.48516999999998234
sS'p_ratio acary (time)'
p118
g7
(g11
S'P\xd12`\xae\x95\x06@'
p119
tp120
Rp121
sg17
g39
sa(dp122
g3
g98
sS'acary (time)'
p123
F106.73430400000001
sS'p_ratio acary (time)'
p124
g7
(g11
S'sb\xb0\xf5|h\x83@'
p125
tp126
Rp127
sg17
g46
sa(dp128
g3
g98
sS'acary (time)'
p129
F0.4333790000000022
sS'p_ratio acary (time)'
p130
g7
(g11
S'\xa7{\xc7T\x7f,\x04@'
p131
tp132
Rp133
sg17
g53
sa(dp134
g3
g98
sS'acary (time)'
p135
F1.5284039999999663
sS'p_ratio acary (time)'
p136
g7
(g11
S'Z\xe7LLm\xc9!@'
p137
tp138
Rp139
sg17
g60
sa(dp140
g3
g98
sS'acary (time)'
p141
F87.89212200000003
sS'p_ratio acary (time)'
p142
g7
(g11
S'\x8eu\xd5R\xc4\xf6\x7f@'
p143
tp144
Rp145
sg17
g67
sa(dp146
g3
g98
sS'acary (time)'
p147
F87.01562299999995
sS'p_ratio acary (time)'
p148
g7
(g11
S'l^\xae+*\xa5\x7f@'
p149
tp150
Rp151
sg17
g74
sa(dp152
g3
g98
sS'acary (time)'
p153
F0.346014000000082
sS'p_ratio acary (time)'
p154
g7
(g11
S'a(\xf0\x84b\x1b\x00@'
p155
tp156
Rp157
sg17
g81
sa(dp158
g3
g98
sS'acary (time)'
p159
F0.2017720000000054
sS'p_ratio acary (time)'
p160
g7
(g11
S'\xf7\xf0\xd1\x8e\xf5\xc8\xf2?'
p161
tp162
Rp163
sg17
g88
sa(dp164
g3
g98
sS'acary (time)'
p165
F1.1127230000000736
sS'p_ratio acary (time)'
p166
g7
(g11
S'6w\xb0\x9d\x0e\xe6\x19@'
p167
tp168
Rp169
sg17
g95
saa(lp170
(dp171
g3
S'Box_Stacks-i0035-31-0.hdf5'
p172
sS'acary (time)'
p173
F5.5963780000000725
sS'p_ratio acary (time)'
p174
g7
(g11
S'\x98:\xe4.?\xaf[@'
p175
tp176
Rp177
sg17
g18
sa(dp178
g3
g172
sS'acary (time)'
p179
F5.796164999999974
sS'p_ratio acary (time)'
p180
g7
(g11
S'\x82\x81]\xc0A\xac\\@'
p181
tp182
Rp183
sg17
g25
sa(dp184
g3
g172
sS'acary (time)'
p185
F5.837706000000026
sS'p_ratio acary (time)'
p186
g7
(g11
S'\xba\xb8\xe4C\xdd\xe0\\@'
p187
tp188
Rp189
sg17
g32
sa(dp190
g3
g172
sS'acary (time)'
p191
F0.051834999999982756
sS'p_ratio acary (time)'
p192
g7
(g11
S'\xa0\xd3\x1b\xc93i\xf0?'
p193
tp194
Rp195
sg17
g39
sa(dp196
g3
g172
sS'acary (time)'
p197
F0.052724000000011984
sS'p_ratio acary (time)'
p198
g7
(g11
S'a:\x83\\A\xb1\xf0?'
p199
tp200
Rp201
sg17
g46
sa(dp202
g3
g172
sS'acary (time)'
p203
F0.05053700000007666
sS'p_ratio acary (time)'
p204
g7
(g11
S'\x00\x00\x00\x00\x00\x00\xf0?'
p205
tp206
Rp207
sg17
g53
sa(dp208
g3
g172
sS'acary (time)'
p209
F9.129000000000019
sS'p_ratio acary (time)'
p210
g7
(g11
S'\xa4\xb3\x91Hz\x94f@'
p211
tp212
Rp213
sg17
g60
sa(dp214
g3
g172
sS'acary (time)'
p215
F9.763450000000034
sS'p_ratio acary (time)'
p216
g7
(g11
S')p\x96\x076&h@'
p217
tp218
Rp219
sg17
g67
sa(dp220
g3
g172
sS'acary (time)'
p221
F8.14146699999992
sS'p_ratio acary (time)'
p222
g7
(g11
S'\x05\xd2\xc3\x1d,#d@'
p223
tp224
Rp225
sg17
g74
sa(dp226
g3
g172
sS'acary (time)'
p227
F5.767744000000107
sS'p_ratio acary (time)'
p228
g7
(g11
S'^O\x85\xb7C\x88\\@'
p229
tp230
Rp231
sg17
g81
sa(dp232
g3
g172
sS'acary (time)'
p233
F5.971231999999986
sS'p_ratio acary (time)'
p234
g7
(g11
S'\xa1\xeep$\xf6\x89]@'
p235
tp236
Rp237
sg17
g88
sa(dp238
g3
g172
sS'acary (time)'
p239
F6.032389999999964
sS'p_ratio acary (time)'
p240
g7
(g11
S'\xe6\xe0Ssi\xd7]@'
p241
tp242
Rp243
sg17
g95
saa(lp244
(dp245
g3
S'Box_Stacks-i0055-549-99.hdf5'
p246
sS'acary (time)'
p247
F0.17226300000004358
sS'p_ratio acary (time)'
p248
g7
(g11
S'\x00\x00\x00\x00\x00\x00\xf0?'
p249
tp250
Rp251
sg17
g18
sa(dp252
g3
g246
sS'acary (time)'
p253
F0.24205799999992905
sS'p_ratio acary (time)'
p254
g7
(g11
S'!E\x87\xab\x8e{\xf6?'
p255
tp256
Rp257
sg17
g25
sa(dp258
g3
g246
sS'acary (time)'
p259
F0.2538289999999961
sS'p_ratio acary (time)'
p260
g7
(g11
S'\xc4k\xbe\x81q\x93\xf7?'
p261
tp262
Rp263
sg17
g32
sa(dp264
g3
g246
sS'acary (time)'
p265
F0.48624500000005355
sS'p_ratio acary (time)'
p266
g7
(g11
S'\xb1\x8b\xa9Y\xde\x94\x06@'
p267
tp268
Rp269
sg17
g39
sa(dp270
g3
g246
sS'acary (time)'
p271
F107.70404899999994
sS'p_ratio acary (time)'
p272
g7
(g11
S'\x9dm\x19\xad\xd7\x89\x83@'
p273
tp274
Rp275
sg17
g46
sa(dp276
g3
g246
sS'acary (time)'
p277
F0.436888999999951
sS'p_ratio acary (time)'
p278
g7
(g11
S'\xde\xe5w\xc5\x15J\x04@'
p279
tp280
Rp281
sg17
g53
sa(dp282
g3
g246
sS'acary (time)'
p283
F1.5427779999999984
sS'p_ratio acary (time)'
p284
g7
(g11
S'\x98\x84\x8c\xa8q\xe9!@'
p285
tp286
Rp287
sg17
g60
sa(dp288
g3
g246
sS'acary (time)'
p289
F88.29828899999995
sS'p_ratio acary (time)'
p290
g7
(g11
S'N<@\x84\xa0\x04\x80@'
p291
tp292
Rp293
sg17
g67
sa(dp294
g3
g246
sS'acary (time)'
p295
F87.83768699999996
sS'p_ratio acary (time)'
p296
g7
(g11
S' \xc4e\x06y\xde\x7f@'
p297
tp298
Rp299
sg17
g74
sa(dp300
g3
g246
sS'acary (time)'
p301
F0.3483290000000352
sS'p_ratio acary (time)'
p302
g7
(g11
S'\x1b\xd4\xa0\x8d6-\x00@'
p303
tp304
Rp305
sg17
g81
sa(dp306
g3
g246
sS'acary (time)'
p307
F0.20623000000000502
sS'p_ratio acary (time)'
p308
g7
(g11
S"`\xeeJR\xa7'\xf3?"
p309
tp310
Rp311
sg17
g88
sa(dp312
g3
g246
sS'acary (time)'
p313
F1.111817999999971
sS'p_ratio acary (time)'
p314
g7
(g11
S'r8\x87\xfb\x16\xd1\x19@'
p315
tp316
Rp317
sg17
g95
saa(lp318
(dp319
g3
S'Box_Stacks-i0121-69-1.hdf5'
p320
sS'acary (time)'
p321
F10.082728999999972
sS'p_ratio acary (time)'
p322
g7
(g11
S'\xd2\xe9<e|\x8cf@'
p323
tp324
Rp325
sg17
g18
sa(dp326
g3
g320
sS'acary (time)'
p327
F10.273071999999956
sS'p_ratio acary (time)'
p328
g7
(g11
S'\xb0\xca\xa7\xa9u\xf9f@'
p329
tp330
Rp331
sg17
g25
sa(dp332
g3
g320
sS'acary (time)'
p333
F10.248020999999994
sS'p_ratio acary (time)'
p334
g7
(g11
S'\xa2G\x0c\x1c\x1e\xebf@'
p335
tp336
Rp337
sg17
g32
sa(dp338
g3
g320
sS'acary (time)'
p339
F0.12549999999998818
sS'p_ratio acary (time)'
p340
g7
(g11
S'\xaf}\x8c\x1ek\xf6\x01@'
p341
tp342
Rp343
sg17
g39
sa(dp344
g3
g320
sS'acary (time)'
p345
F10.362528999999995
sS'p_ratio acary (time)'
p346
g7
(g11
S'BK\xe4\xc2\xac,g@'
p347
tp348
Rp349
sg17
g46
sa(dp350
g3
g320
sS'acary (time)'
p351
F0.05589400000008027
sS'p_ratio acary (time)'
p352
g7
(g11
S'\x00\x00\x00\x00\x00\x00\xf0?'
p353
tp354
Rp355
sg17
g53
sa(dp356
g3
g320
sS'acary (time)'
p357
F14.448965000000044
sS'p_ratio acary (time)'
p358
g7
(g11
S'+\x810\xd2\x1a(p@'
p359
tp360
Rp361
sg17
g60
sa(dp362
g3
g320
sS'acary (time)'
p363
F14.183357
sS'p_ratio acary (time)'
p364
g7
(g11
S'\x97y\xe1L%\xb8o@'
p365
tp366
Rp367
sg17
g67
sa(dp368
g3
g320
sS'acary (time)'
p369
F14.432444000000032
sS'p_ratio acary (time)'
p370
g7
(g11
S'\x0f\xb3\xe1"`#p@'
p371
tp372
Rp373
sg17
g74
sa(dp374
g3
g320
sS'acary (time)'
p375
F10.191156999999976
sS'p_ratio acary (time)'
p376
g7
(g11
S'\xf0\\}\xf1\x8f\xcaf@'
p377
tp378
Rp379
sg17
g81
sa(dp380
g3
g320
sS'acary (time)'
p381
F10.506276999999955
sS'p_ratio acary (time)'
p382
g7
(g11
S'\x03zN\xeb\xf8~g@'
p383
tp384
Rp385
sg17
g88
sa(dp386
g3
g320
sS'acary (time)'
p387
F10.364364000000023
sS'p_ratio acary (time)'
p388
g7
(g11
S'\xa1$d\xb4\xb9-g@'
p389
tp390
Rp391
sg17
g95
saa(lp392
(dp393
g3
S'Box_Stacks-i0122-73-2.hdf5'
p394
sS'acary (time)'
p395
F10.50330299999996
sS'p_ratio acary (time)'
p396
g7
(g11
S']\t\xb2\xfb\xe9\xf6r@'
p397
tp398
Rp399
sg17
g18
sa(dp400
g3
g394
sS'acary (time)'
p401
F10.71170600000005
sS'p_ratio acary (time)'
p402
g7
(g11
S'\x97WEZ>Ws@'
p403
tp404
Rp405
sg17
g25
sa(dp406
g3
g394
sS'acary (time)'
p407
F10.684856000000082
sS'p_ratio acary (time)'
p408
g7
(g11
S'&n\xc8/\xd5Js@'
p409
tp410
Rp411
sg17
g32
sa(dp412
g3
g394
sS'acary (time)'
p413
F10.548352000000023
sS'p_ratio acary (time)'
p414
g7
(g11
S'\xd5\xcd\xf9\xa3\xbc\x0bs@'
p415
tp416
Rp417
sg17
g39
sa(dp418
g3
g394
sS'acary (time)'
p419
F10.779948999999988
sS'p_ratio acary (time)'
p420
g7
(g11
S'\x18\xa9\x8a\x8f\xc9vs@'
p421
tp422
Rp423
sg17
g46
sa(dp424
g3
g394
sS'acary (time)'
p425
F10.843912000000046
sS'p_ratio acary (time)'
p426
g7
(g11
S'\x92]\xc6PZ\x94s@'
p427
tp428
Rp429
sg17
g53
sa(dp430
g3
g394
sS'acary (time)'
p431
F15.024077000000034
sS'p_ratio acary (time)'
p432
g7
(g11
S'eub\x17\x8a {@'
p433
tp434
Rp435
sg17
g60
sa(dp436
g3
g394
sS'acary (time)'
p437
F14.603498000000172
sS'p_ratio acary (time)'
p438
g7
(g11
S'(\x91\x82\xe4"^z@'
p439
tp440
Rp441
sg17
g67
sa(dp442
g3
g394
sS'acary (time)'
p443
F15.013607999999977
sS'p_ratio acary (time)'
p444
g7
(g11
S'\\\x9a\xddJ\xb3\x1b{@'
p445
tp446
Rp447
sg17
g74
sa(dp448
g3
g394
sS'acary (time)'
p449
F0.034615000000030705
sS'p_ratio acary (time)'
p450
g7
(g11
S'\x00\x00\x00\x00\x00\x00\xf0?'
p451
tp452
Rp453
sg17
g81
sa(dp454
g3
g394
sS'acary (time)'
p455
F10.949213999999984
sS'p_ratio acary (time)'
p456
g7
(g11
S'\x12\x83\xfe\xb8\x06\xc5s@'
p457
tp458
Rp459
sg17
g88
sa(dp460
g3
g394
sS'acary (time)'
p461
F10.971326999999974
sS'p_ratio acary (time)'
p462
g7
(g11
S'\xc5\xe3\xc1[?\xcfs@'
p463
tp464
Rp465
sg17
g95
saa(lp466
(dp467
g3
S'Box_Stacks-i0207-114-3.hdf5'
p468
sS'acary (time)'
p469
F15.294411000000082
sS'p_ratio acary (time)'
p470
g7
(g11
S'\x12\xa0\xa3\xd1b\x96v@'
p471
tp472
Rp473
sg17
g18
sa(dp474
g3
g468
sS'acary (time)'
p475
F15.522045000000162
sS'p_ratio acary (time)'
p476
g7
(g11
S'ur\x1e\xb1r\xecv@'
p477
tp478
Rp479
sg17
g25
sa(dp480
g3
g468
sS'acary (time)'
p481
F15.480359000000135
sS'p_ratio acary (time)'
p482
g7
(g11
S'\x8e\xe4\xef\r\xb0\xdcv@'
p483
tp484
Rp485
sg17
g32
sa(dp486
g3
g468
sS'acary (time)'
p487
F15.449020999999902
sS'p_ratio acary (time)'
p488
g7
(g11
S'\xf1\x00k\xf6\xd6\xd0v@'
p489
tp490
Rp491
sg17
g39
sa(dp492
g3
g468
sS'acary (time)'
p493
F15.674236000000064
sS'p_ratio acary (time)'
p494
g7
(g11
S'\xdd3\x92\xb5\xfc%w@'
p495
tp496
Rp497
sg17
g46
sa(dp498
g3
g468
sS'acary (time)'
p499
F15.604522000000088
sS'p_ratio acary (time)'
p500
g7
(g11
S'\xe9\xfb\xc8W\xa1\x0bw@'
p501
tp502
Rp503
sg17
g53
sa(dp504
g3
g468
sS'acary (time)'
p505
F20.100624000000153
sS'p_ratio acary (time)'
p506
g7
(g11
S'\xd4\xd4i\xd2z\xaf}@'
p507
tp508
Rp509
sg17
g60
sa(dp510
g3
g468
sS'acary (time)'
p511
F19.664437000000135
sS'p_ratio acary (time)'
p512
g7
(g11
S'n\x1fj\xdb\x91\n}@'
p513
tp514
Rp515
sg17
g67
sa(dp516
g3
g468
sS'acary (time)'
p517
F19.954563000000007
sS'p_ratio acary (time)'
p518
g7
(g11
S'P\n\xe8\x1aBx}@'
p519
tp520
Rp521
sg17
g74
sa(dp522
g3
g468
sS'acary (time)'
p523
F0.0423200000000179
sS'p_ratio acary (time)'
p524
g7
(g11
S'\x00\x00\x00\x00\x00\x00\xf0?'
p525
tp526
Rp527
sg17
g81
sa(dp528
g3
g468
sS'acary (time)'
p529
F15.837309999999889
sS'p_ratio acary (time)'
p530
g7
(g11
S'\xf0\xc7\x8c\r\xa4cw@'
p531
tp532
Rp533
sg17
g88
sa(dp534
g3
g468
sS'acary (time)'
p535
F15.760190000000193
sS'p_ratio acary (time)'
p536
g7
(g11
S'\xa5\xc3\xf6\xe2{Fw@'
p537
tp538
Rp539
sg17
g95
saa(lp540
(dp541
g3
S'Box_Stacks-i0570-549-98.hdf5'
p542
sS'acary (time)'
p543
F0.17153799999982766
sS'p_ratio acary (time)'
p544
g7
(g11
S'\x00\x00\x00\x00\x00\x00\xf0?'
p545
tp546
Rp547
sg17
g18
sa(dp548
g3
g542
sS'acary (time)'
p549
F0.24183100000004742
sS'p_ratio acary (time)'
p550
g7
(g11
S'\xa5B\xf9pv\x8e\xf6?'
p551
tp552
Rp553
sg17
g25
sa(dp554
g3
g542
sS'acary (time)'
p555
F0.25413800000001174
sS'p_ratio acary (time)'
p556
g7
(g11
S',ps\x90T\xb4\xf7?'
p557
tp558
Rp559
sg17
g32
sa(dp560
g3
g542
sS'acary (time)'
p561
F0.49774299999990035
sS'p_ratio acary (time)'
p562
g7
(g11
S'\xdeVw\x8c\x936\x07@'
p563
tp564
Rp565
sg17
g39
sa(dp566
g3
g542
sS'acary (time)'
p567
F106.68315000000007
sS'p_ratio acary (time)'
p568
g7
(g11
S'\x83\xc7r\xfd^o\x83@'
p569
tp570
Rp571
sg17
g46
sa(dp572
g3
g542
sS'acary (time)'
p573
F0.44710699999995995
sS'p_ratio acary (time)'
p574
g7
(g11
S'\x90Y\xce\xe5\x07\xda\x04@'
p575
tp576
Rp577
sg17
g53
sa(dp578
g3
g542
sS'acary (time)'
p579
F1.541977000000088
sS'p_ratio acary (time)'
p580
g7
(g11
S'l\x0b\x9d\xf4n\xfa!@'
p581
tp582
Rp583
sg17
g60
sa(dp584
g3
g542
sS'acary (time)'
p585
F87.80360300000007
sS'p_ratio acary (time)'
p586
g7
(g11
S'\x81\xbd\x96o\xc6\xfd\x7f@'
p587
tp588
Rp589
sg17
g67
sa(dp590
g3
g542
sS'acary (time)'
p591
F86.86902699999996
sS'p_ratio acary (time)'
p592
g7
(g11
S'\xe9\xa5\x83\x8b\x9a\xa6\x7f@'
p593
tp594
Rp595
sg17
g74
sa(dp596
g3
g542
sS'acary (time)'
p597
F0.36213299999985793
sS'p_ratio acary (time)'
p598
g7
(g11
S'\xaa\xbfs\xbb\x85\xe3\x00@'
p599
tp600
Rp601
sg17
g81
sa(dp602
g3
g542
sS'acary (time)'
p603
F0.2024309999999332
sS'p_ratio acary (time)'
p604
g7
(g11
S'\x96\x15tv\xaa\xe1\xf2?'
p605
tp606
Rp607
sg17
g88
sa(dp608
g3
g542
sS'acary (time)'
p609
F1.1145199999998567
sS'p_ratio acary (time)'
p610
g7
(g11
S"\xec\xdd\xb4\x0c'\xfd\x19@"
p611
tp612
Rp613
sg17
g95
saa(lp614
(dp615
g3
S'Box_Stacks-i0658-548-43.hdf5'
p616
sS'acary (time)'
p617
F0.17225799999982883
sS'p_ratio acary (time)'
p618
g7
(g11
S'\x00\x00\x00\x00\x00\x00\xf0?'
p619
tp620
Rp621
sg17
g18
sa(dp622
g3
g616
sS'acary (time)'
p623
F0.2747349999999642
sS'p_ratio acary (time)'
p624
g7
(g11
S'\xf9\xe5:8\xba\x84\xf9?'
p625
tp626
Rp627
sg17
g25
sa(dp628
g3
g616
sS'acary (time)'
p629
F0.2533009999999649
sS'p_ratio acary (time)'
p630
g7
(g11
S'\x1d\x80\x85J\x10\x87\xf7?'
p631
tp632
Rp633
sg17
g32
sa(dp634
g3
g616
sS'acary (time)'
p635
F0.4940079999998943
sS'p_ratio acary (time)'
p636
g7
(g11
S'hu\xdd\xeeT\xf1\x06@'
p637
tp638
Rp639
sg17
g39
sa(dp640
g3
g616
sS'acary (time)'
p641
F106.71724500000005
sS'p_ratio acary (time)'
p642
g7
(g11
S'\x82\xcd\xeb\x96(\\\x83@'
p643
tp644
Rp645
sg17
g46
sa(dp646
g3
g616
sS'acary (time)'
p647
F0.4344790000000103
sS'p_ratio acary (time)'
p648
g7
(g11
S'`\x1c\xcf=\x95-\x04@'
p649
tp650
Rp651
sg17
g53
sa(dp652
g3
g616
sS'acary (time)'
p653
F1.5022080000001097
sS'p_ratio acary (time)'
p654
g7
(g11
S'-\x956\xcf\xfdp!@'
p655
tp656
Rp657
sg17
g60
sa(dp658
g3
g616
sS'acary (time)'
p659
F87.60251600000015
sS'p_ratio acary (time)'
p660
g7
(g11
S'F\xbcY\xaf\xdd\xc8\x7f@'
p661
tp662
Rp663
sg17
g67
sa(dp664
g3
g616
sS'acary (time)'
p665
F87.6028960000001
sS'p_ratio acary (time)'
p666
g7
(g11
S'\xf5\x8f\x80\xb8\xe6\xc8\x7f@'
p667
tp668
Rp669
sg17
g74
sa(dp670
g3
g616
sS'acary (time)'
p671
F0.3455669999998463
sS'p_ratio acary (time)'
p672
g7
(g11
S'qtc\xd8~\x0c\x00@'
p673
tp674
Rp675
sg17
g81
sa(dp676
g3
g616
sS'acary (time)'
p677
F0.20140300000002753
sS'p_ratio acary (time)'
p678
g7
(g11
S'Z\x8cK\xa5\x04\xb5\xf2?'
p679
tp680
Rp681
sg17
g88
sa(dp682
g3
g616
sS'acary (time)'
p683
F1.1094140000000152
sS'p_ratio acary (time)'
p684
g7
(g11
S'?\x07+\xa9\xfd\xc2\x19@'
p685
tp686
Rp687
sg17
g95
saa(lp688
(dp689
g3
S'Box_Stacks-i0751-548-85.hdf5'
p690
sS'acary (time)'
p691
F0.17199299999992945
sS'p_ratio acary (time)'
p692
g7
(g11
S'\x00\x00\x00\x00\x00\x00\xf0?'
p693
tp694
Rp695
sg17
g18
sa(dp696
g3
g690
sS'acary (time)'
p697
F0.2743869999999333
sS'p_ratio acary (time)'
p698
g7
(g11
S'\x06MuT\x81\x86\xf9?'
p699
tp700
Rp701
sg17
g25
sa(dp702
g3
g690
sS'acary (time)'
p703
F0.25328700000000026
sS'p_ratio acary (time)'
p704
g7
(g11
S'\xfe\x99\xb9\xa4\x02\x90\xf7?'
p705
tp706
Rp707
sg17
g32
sa(dp708
g3
g690
sS'acary (time)'
p709
F0.49454500000001644
sS'p_ratio acary (time)'
p710
g7
(g11
S'\xe1\x1em\x85\xc6\x00\x07@'
p711
tp712
Rp713
sg17
g39
sa(dp714
g3
g690
sS'acary (time)'
p715
F105.809168
sS'p_ratio acary (time)'
p716
g7
(g11
S'\x96\x94\x15\x94\x8e9\x83@'
p717
tp718
Rp719
sg17
g46
sa(dp720
g3
g690
sS'acary (time)'
p721
F0.4343279999998231
sS'p_ratio acary (time)'
p722
g7
(g11
S'\xc6\xfbzn\xbe3\x04@'
p723
tp724
Rp725
sg17
g53
sa(dp726
g3
g690
sS'acary (time)'
p727
F1.4977269999999407
sS'p_ratio acary (time)'
p728
g7
(g11
S'k\xcd_\x16\x88j!@'
p729
tp730
Rp731
sg17
g60
sa(dp732
g3
g690
sS'acary (time)'
p733
F87.49704500000007
sS'p_ratio acary (time)'
p734
g7
(g11
S'y\xa4\xf9\\\x97\xcb\x7f@'
p735
tp736
Rp737
sg17
g67
sa(dp738
g3
g690
sS'acary (time)'
p739
F86.16862700000001
sS'p_ratio acary (time)'
p740
g7
(g11
S'\xd1\x83\xf20\x03P\x7f@'
p741
tp742
Rp743
sg17
g74
sa(dp744
g3
g690
sS'acary (time)'
p745
F0.34488999999985026
sS'p_ratio acary (time)'
p746
g7
(g11
S'\x85-\x1e\xac\xc3\n\x00@'
p747
tp748
Rp749
sg17
g81
sa(dp750
g3
g690
sS'acary (time)'
p751
F0.20138400000041656
sS'p_ratio acary (time)'
p752
g7
(g11
S'\xfd\xfc\xbe\xc3\xf1\xbb\xf2?'
p753
tp754
Rp755
sg17
g88
sa(dp756
g3
g690
sS'acary (time)'
p757
F1.1082390000001396
sS'p_ratio acary (time)'
p758
g7
(g11
S'\x9ahS\x12(\xc6\x19@'
p759
tp760
Rp761
sg17
g95
saa(lp762
(dp763
g3
S'Box_Stacks-i0788-549-97.hdf5'
p764
sS'acary (time)'
p765
F0.17313800000010815
sS'p_ratio acary (time)'
p766
g7
(g11
S'\x00\x00\x00\x00\x00\x00\xf0?'
p767
tp768
Rp769
sg17
g18
sa(dp770
g3
g764
sS'acary (time)'
p771
F0.24242499999991196
sS'p_ratio acary (time)'
p772
g7
(g11
S'}\xce\x8a\xfd&g\xf6?'
p773
tp774
Rp775
sg17
g25
sa(dp776
g3
g764
sS'acary (time)'
p777
F0.2549420000000282
sS'p_ratio acary (time)'
p778
g7
(g11
S'9\xb6\xad\xb8E\x8f\xf7?'
p779
tp780
Rp781
sg17
g32
sa(dp782
g3
g764
sS'acary (time)'
p783
F0.48721199999999953
sS'p_ratio acary (time)'
p784
g7
(g11
S'*\xee\xa2{\x17\x83\x06@'
p785
tp786
Rp787
sg17
g39
sa(dp788
g3
g764
sS'acary (time)'
p789
F106.68356300000005
sS'p_ratio acary (time)'
p790
g7
(g11
S'\xe6\xf7&miA\x83@'
p791
tp792
Rp793
sg17
g46
sa(dp794
g3
g764
sS'acary (time)'
p795
F0.43399900000031266
sS'p_ratio acary (time)'
p796
g7
(g11
S'\x07\xbaw|\xa6\r\x04@'
p797
tp798
Rp799
sg17
g53
sa(dp800
g3
g764
sS'acary (time)'
p801
F1.5373309999999947
sS'p_ratio acary (time)'
p802
g7
(g11
S'\x18\xe9v\x95)\xc2!@'
p803
tp804
Rp805
sg17
g60
sa(dp806
g3
g764
sS'acary (time)'
p807
F87.16336799999999
sS'p_ratio acary (time)'
p808
g7
(g11
S'\xdf\x90\r8\xedv\x7f@'
p809
tp810
Rp811
sg17
g67
sa(dp812
g3
g764
sS'acary (time)'
p813
F87.82314399999996
sS'p_ratio acary (time)'
p814
g7
(g11
S']\x9c\xb3\xd2\xe5\xb3\x7f@'
p815
tp816
Rp817
sg17
g74
sa(dp818
g3
g764
sS'acary (time)'
p819
F0.3483289999999215
sS'p_ratio acary (time)'
p820
g7
(g11
S'\x86\xa1=\xcbH\x18\x00@'
p821
tp822
Rp823
sg17
g81
sa(dp824
g3
g764
sS'acary (time)'
p825
F0.20284200000014607
sS'p_ratio acary (time)'
p826
g7
(g11
S'\xba\xc8Td\xb8\xbe\xf2?'
p827
tp828
Rp829
sg17
g88
sa(dp830
g3
g764
sS'acary (time)'
p831
F1.1122000000000298
sS'p_ratio acary (time)'
p832
g7
(g11
S'\x93\xe3\xf4\xbe\xf2\xb1\x19@'
p833
tp834
Rp835
sg17
g95
saa(lp836
(dp837
g3
S'Box_Stacks-i0790-549-93.hdf5'
p838
sS'acary (time)'
p839
F0.17180999999982305
sS'p_ratio acary (time)'
p840
g7
(g11
S'\x00\x00\x00\x00\x00\x00\xf0?'
p841
tp842
Rp843
sg17
g18
sa(dp844
g3
g838
sS'acary (time)'
p845
F0.24056300000029296
sS'p_ratio acary (time)'
p846
g7
(g11
S')!\xebc\x17g\xf6?'
p847
tp848
Rp849
sg17
g25
sa(dp850
g3
g838
sS'acary (time)'
p851
F0.2529600000002574
sS'p_ratio acary (time)'
p852
g7
(g11
S'c\xb4\x81\xb1\xa3\x8e\xf7?'
p853
tp854
Rp855
sg17
g32
sa(dp856
g3
g838
sS'acary (time)'
p857
F0.48286800000005314
sS'p_ratio acary (time)'
p858
g7
(g11
S'\x1b\x18\xd83\xdb{\x06@'
p859
tp860
Rp861
sg17
g39
sa(dp862
g3
g838
sS'acary (time)'
p863
F106.86085200000025
sS'p_ratio acary (time)'
p864
g7
(g11
S'\xa6\x8a\xdd\xc7\xc4o\x83@'
p865
tp866
Rp867
sg17
g46
sa(dp868
g3
g838
sS'acary (time)'
p869
F0.4317849999997634
sS'p_ratio acary (time)'
p870
g7
(g11
S'\xd5b\xca\x84\xf0\x1a\x04@'
p871
tp872
Rp873
sg17
g53
sa(dp874
g3
g838
sS'acary (time)'
p875
F1.523573999999826
sS'p_ratio acary (time)'
p876
g7
(g11
S'\xb6\xf3C5N\xbc!@'
p877
tp878
Rp879
sg17
g60
sa(dp880
g3
g838
sS'acary (time)'
p881
F87.43024299999979
sS'p_ratio acary (time)'
p882
g7
(g11
S'\x03\x1f\xc3;\n\xce\x7f@'
p883
tp884
Rp885
sg17
g67
sa(dp886
g3
g838
sS'acary (time)'
p887
F88.33187099999986
sS'p_ratio acary (time)'
p888
g7
(g11
S'v\xb1\x12\xa7\x00\x11\x80@'
p889
tp890
Rp891
sg17
g74
sa(dp892
g3
g838
sS'acary (time)'
p893
F0.3459339999999429
sS'p_ratio acary (time)'
p894
g7
(g11
S'b\x92\x83M\x95\x1b\x00@'
p895
tp896
Rp897
sg17
g81
sa(dp898
g3
g838
sS'acary (time)'
p899
F0.20146799999974974
sS'p_ratio acary (time)'
p900
g7
(g11
S'.\xff\xf5&\x0e\xc3\xf2?'
p901
tp902
Rp903
sg17
g88
sa(dp904
g3
g838
sS'acary (time)'
p905
F1.107028000000355
sS'p_ratio acary (time)'
p906
g7
(g11
S'z\xf6\xb6~\xf7\xc5\x19@'
p907
tp908
Rp909
sg17
g95
saa(lp910
(dp911
g3
S'Box_Stacks-i1000-137-4.hdf5'
p912
sS'acary (time)'
p913
F18.0576759999999
sS'p_ratio acary (time)'
p914
g7
(g11
S'\xa0*\xb5\xa8x\x04x@'
p915
tp916
Rp917
sg17
g18
sa(dp918
g3
g912
sS'acary (time)'
p919
F18.30316300000004
sS'p_ratio acary (time)'
p920
g7
(g11
S')\xa0\xf9\xaf\x0eXx@'
p921
tp922
Rp923
sg17
g25
sa(dp924
g3
g912
sS'acary (time)'
p925
F18.336585999999897
sS'p_ratio acary (time)'
p926
g7
(g11
S'\x06\xf6/\x06pcx@'
p927
tp928
Rp929
sg17
g32
sa(dp930
g3
g912
sS'acary (time)'
p931
F18.135395000000244
sS'p_ratio acary (time)'
p932
g7
(g11
S'\xa28\x9c\x15\xef\x1ex@'
p933
tp934
Rp935
sg17
g39
sa(dp936
g3
g912
sS'acary (time)'
p937
F18.410045999999966
sS'p_ratio acary (time)'
p938
g7
(g11
S'\xf7\xbf\x0e6s|x@'
p939
tp940
Rp941
sg17
g46
sa(dp942
g3
g912
sS'acary (time)'
p943
F18.367743000000246
sS'p_ratio acary (time)'
p944
g7
(g11
S'`\xc0\xf7\xd7\x0bnx@'
p945
tp946
Rp947
sg17
g53
sa(dp948
g3
g912
sS'acary (time)'
p949
F24.358005999999932
sS'p_ratio acary (time)'
p950
g7
(g11
S'\xfc\xc26p\xd62\x80@'
p951
tp952
Rp953
sg17
g60
sa(dp954
g3
g912
sS'acary (time)'
p955
F23.779105000000072
sS'p_ratio acary (time)'
p956
g7
(g11
S'\xd3\xbc\x96\x9b\x90\xa0\x7f@'
p957
tp958
Rp959
sg17
g67
sa(dp960
g3
g912
sS'acary (time)'
p961
F24.083794000000125
sS'p_ratio acary (time)'
p962
g7
(g11
S"\x1bL\x00\x82'\x04\x80@"
p963
tp964
Rp965
sg17
g74
sa(dp966
g3
g912
sS'acary (time)'
p967
F0.046991000000161876
sS'p_ratio acary (time)'
p968
g7
(g11
S'\x00\x00\x00\x00\x00\x00\xf0?'
p969
tp970
Rp971
sg17
g81
sa(dp972
g3
g912
sS'acary (time)'
p973
F19.52969400000029
sS'p_ratio acary (time)'
p974
g7
(g11
S';\x11\x18\x08\xae\xf9y@'
p975
tp976
Rp977
sg17
g88
sa(dp978
g3
g912
sS'acary (time)'
p979
F19.539904000000206
sS'p_ratio acary (time)'
p980
g7
(g11
S"g\xdb\x1f\xfe'\xfdy@"
p981
tp982
Rp983
sg17
g95
saa(lp984
(dp985
g3
S'Box_Stacks-i1000-352-6.hdf5'
p986
sS'acary (time)'
p987
F0.114484000000175
sS'p_ratio acary (time)'
p988
g7
(g11
S'\x00\x00\x00\x00\x00\x00\xf0?'
p989
tp990
Rp991
sg17
g18
sa(dp992
g3
g986
sS'acary (time)'
p993
F0.187467000000197
sS'p_ratio acary (time)'
p994
g7
(g11
S'\xf2t\x97).3\xfa?'
p995
tp996
Rp997
sg17
g25
sa(dp998
g3
g986
sS'acary (time)'
p999
F0.13514900000018315
sS'p_ratio acary (time)'
p1000
g7
(g11
S'\xa9\xdf\xc0\xcfY\xe3\xf2?'
p1001
tp1002
Rp1003
sg17
g32
sa(dp1004
g3
g986
sS'acary (time)'
p1005
F0.19915399999990768
sS'p_ratio acary (time)'
p1006
g7
(g11
S'\xf5\xaf\xa8"Q\xd5\xfb?'
p1007
tp1008
Rp1009
sg17
g39
sa(dp1010
g3
g986
sS'acary (time)'
p1011
F0.18516700000009223
sS'p_ratio acary (time)'
p1012
g7
(g11
S"'\x98\xbb\x1e\xe4\xe0\xf9?"
p1013
tp1014
Rp1015
sg17
g46
sa(dp1016
g3
g986
sS'acary (time)'
p1017
F0.13564399999995658
sS'p_ratio acary (time)'
p1018
g7
(g11
S'\x989\x19\x97\x0f\xf5\xf2?'
p1019
tp1020
Rp1021
sg17
g53
sa(dp1022
g3
g986
sS'acary (time)'
p1023
Fnan
sS'p_ratio acary (time)'
p1024
g7
(g11
S'\x00\x00\x00\x00\x00\x00\xf8\x7f'
p1025
tp1026
Rp1027
sg17
g60
sa(dp1028
g3
g986
sS'acary (time)'
p1029
F58.48102999999992
sS'p_ratio acary (time)'
p1030
g7
(g11
S'F\\;\xec)\xed\x7f@'
p1031
tp1032
Rp1033
sg17
g67
sa(dp1034
g3
g986
sS'acary (time)'
p1035
F59.001354999999876
sS'p_ratio acary (time)'
p1036
g7
(g11
S'o\x81/\t\xf1\x1a\x80@'
p1037
tp1038
Rp1039
sg17
g74
sa(dp1040
g3
g986
sS'acary (time)'
p1041
F0.13407900000038353
sS'p_ratio acary (time)'
p1042
g7
(g11
S'\x88\x8e\xb1\x85\x11\xbd\xf2?'
p1043
tp1044
Rp1045
sg17
g81
sa(dp1046
g3
g986
sS'acary (time)'
p1047
F0.1157879999996112
sS'p_ratio acary (time)'
p1048
g7
(g11
S'\x13\x9a\xb6\x87\xa7.\xf0?'
p1049
tp1050
Rp1051
sg17
g88
sa(dp1052
g3
g986
sS'acary (time)'
p1053
F0.4580959999998413
sS'p_ratio acary (time)'
p1054
g7
(g11
S'9\x1a\xaf]n\x01\x10@'
p1055
tp1056
Rp1057
sg17
g95
saa(lp1058
(dp1059
g3
S'Box_Stacks-i1000-364-5.hdf5'
p1060
sS'acary (time)'
p1061
F0.11310200000025361
sS'p_ratio acary (time)'
p1062
g7
(g11
S'\x00\x00\x00\x00\x00\x00\xf0?'
p1063
tp1064
Rp1065
sg17
g18
sa(dp1066
g3
g1060
sS'acary (time)'
p1067
F0.17799599999989368
sS'p_ratio acary (time)'
p1068
g7
(g11
S'\xf1#\xea~$.\xf9?'
p1069
tp1070
Rp1071
sg17
g25
sa(dp1072
g3
g1060
sS'acary (time)'
p1073
F0.13033899999982168
sS'p_ratio acary (time)'
p1074
g7
(g11
S'\xe4\xde.Y=p\xf2?'
p1075
tp1076
Rp1077
sg17
g32
sa(dp1078
g3
g1060
sS'acary (time)'
p1079
F0.13876299999992625
sS'p_ratio acary (time)'
p1080
g7
(g11
S'\xc5s\xe7\xccP\xa1\xf3?'
p1081
tp1082
Rp1083
sg17
g39
sa(dp1084
g3
g1060
sS'acary (time)'
p1085
F0.17856299999994008
sS'p_ratio acary (time)'
p1086
g7
(g11
S'\xee\xbd\x8c0\xadB\xf9?'
p1087
tp1088
Rp1089
sg17
g46
sa(dp1090
g3
g1060
sS'acary (time)'
p1091
F0.1305809999998928
sS'p_ratio acary (time)'
p1092
g7
(g11
S'\xdb\xa34\xf2\x00y\xf2?'
p1093
tp1094
Rp1095
sg17
g53
sa(dp1096
g3
g1060
sS'acary (time)'
p1097
F59.00159100000019
sS'p_ratio acary (time)'
p1098
g7
(g11
S'\xea\x08K2VM\x80@'
p1099
tp1100
Rp1101
sg17
g60
sa(dp1102
g3
g1060
sS'acary (time)'
p1103
F57.88733400000001
sS'p_ratio acary (time)'
p1104
g7
(g11
S'#$sw\x0b\xfd\x7f@'
p1105
tp1106
Rp1107
sg17
g67
sa(dp1108
g3
g1060
sS'acary (time)'
p1109
F58.43148199999996
sS'p_ratio acary (time)'
p1110
g7
(g11
S'\x92\xa0z\xeb\x02%\x80@'
p1111
tp1112
Rp1113
sg17
g74
sa(dp1114
g3
g1060
sS'acary (time)'
p1115
F0.22492400000010093
sS'p_ratio acary (time)'
p1116
g7
(g11
S'R\xc1f\t\xa5\xd1\xff?'
p1117
tp1118
Rp1119
sg17
g81
sa(dp1120
g3
g1060
sS'acary (time)'
p1121
F0.139252999999826
sS'p_ratio acary (time)'
p1122
g7
(g11
S'\xfa\xf5M\x9f\x0f\xb3\xf3?'
p1123
tp1124
Rp1125
sg17
g88
sa(dp1126
g3
g1060
sS'acary (time)'
p1127
F72.56902300000002
sS'p_ratio acary (time)'
p1128
g7
(g11
S'\xab\x0e\xa7"\xff\x0c\x84@'
p1129
tp1130
Rp1131
sg17
g95
saa(lp1132
(dp1133
g3
S'Box_Stacks-i1000-444-8.hdf5'
p1134
sS'acary (time)'
p1135
F0.15633699999989403
sS'p_ratio acary (time)'
p1136
g7
(g11
S'Baxg\xbdR\xf2?'
p1137
tp1138
Rp1139
sg17
g18
sa(dp1140
g3
g1134
sS'acary (time)'
p1141
F0.13651500000014494
sS'p_ratio acary (time)'
p1142
g7
(g11
S'\x00\x00\x00\x00\x00\x00\xf0?'
p1143
tp1144
Rp1145
sg17
g25
sa(dp1146
g3
g1134
sS'acary (time)'
p1147
F0.1428139999998166
sS'p_ratio acary (time)'
p1148
g7
(g11
S'q#\x14\xd1\xfe\xbc\xf0?'
p1149
tp1150
Rp1151
sg17
g32
sa(dp1152
g3
g1134
sS'acary (time)'
p1153
F0.24255799999991723
sS'p_ratio acary (time)'
p1154
g7
(g11
S'\xd8\x0c\x8d\x9c\xb7m\xfc?'
p1155
tp1156
Rp1157
sg17
g39
sa(dp1158
g3
g1134
sS'acary (time)'
p1159
F78.24418700000024
sS'p_ratio acary (time)'
p1160
g7
(g11
S'\xd0\x1d(l<\xe9\x81@'
p1161
tp1162
Rp1163
sg17
g46
sa(dp1164
g3
g1134
sS'acary (time)'
p1165
F0.24255700000003344
sS'p_ratio acary (time)'
p1166
g7
(g11
S'\x1c\t5\xee\xafm\xfc?'
p1167
tp1168
Rp1169
sg17
g53
sa(dp1170
g3
g1134
sS'acary (time)'
p1171
F72.45971099999997
sS'p_ratio acary (time)'
p1172
g7
(g11
S'z\xb5K\xa1A\x96\x80@'
p1173
tp1174
Rp1175
sg17
g60
sa(dp1176
g3
g1134
sS'acary (time)'
p1177
F70.99224200000026
sS'p_ratio acary (time)'
p1178
g7
(g11
S'f\x07\x92\xa3B@\x80@'
p1179
tp1180
Rp1181
sg17
g67
sa(dp1182
g3
g1134
sS'acary (time)'
p1183
F72.49606300000005
sS'p_ratio acary (time)'
p1184
g7
(g11
S'\xb8\xe5\xb8\xfbb\x98\x80@'
p1185
tp1186
Rp1187
sg17
g74
sa(dp1188
g3
g1134
sS'acary (time)'
p1189
F0.3039949999997589
sS'p_ratio acary (time)'
p1190
g7
(g11
S'\xb9B\x87\x91\x89\xd0\x01@'
p1191
tp1192
Rp1193
sg17
g81
sa(dp1194
g3
g1134
sS'acary (time)'
p1195
F0.3688210000000254
sS'p_ratio acary (time)'
p1196
g7
(g11
S'\x0c\xee\xbf\xd6\x0e\x9d\x05@'
p1197
tp1198
Rp1199
sg17
g88
sa(dp1200
g3
g1134
sS'acary (time)'
p1201
F0.24298399999997855
sS'p_ratio acary (time)'
p1202
g7
(g11
S'\x166\x1c\xbb\x7fz\xfc?'
p1203
tp1204
Rp1205
sg17
g95
saa(lp1206
(dp1207
g3
S'Box_Stacks-i1000-466-9.hdf5'
p1208
sS'acary (time)'
p1209
F0.1794399999998859
sS'p_ratio acary (time)'
p1210
g7
(g11
S'\xff\xa4\xa1\xc9\xd8\xdd\xf3?'
p1211
tp1212
Rp1213
sg17
g18
sa(dp1214
g3
g1208
sS'acary (time)'
p1215
F0.14564900000004855
sS'p_ratio acary (time)'
p1216
g7
(g11
S'\x14\xe9\xde\xcb\x1c \xf0?'
p1217
tp1218
Rp1219
sg17
g25
sa(dp1220
g3
g1208
sS'acary (time)'
p1221
F0.14451599999983955
sS'p_ratio acary (time)'
p1222
g7
(g11
S'\x00\x00\x00\x00\x00\x00\xf0?'
p1223
tp1224
Rp1225
sg17
g32
sa(dp1226
g3
g1208
sS'acary (time)'
p1227
F0.2718119999999544
sS'p_ratio acary (time)'
p1228
g7
(g11
S'\x8aB#\x81\xef\x17\xfe?'
p1229
tp1230
Rp1231
sg17
g39
sa(dp1232
g3
g1208
sS'acary (time)'
p1233
F80.24932500000023
sS'p_ratio acary (time)'
p1234
g7
(g11
S'\x9e\x01\xb1\x97`Z\x81@'
p1235
tp1236
Rp1237
sg17
g46
sa(dp1238
g3
g1208
sS'acary (time)'
p1239
F0.3084889999995539
sS'p_ratio acary (time)'
p1240
g7
(g11
S'5\xa2\xda\xd5\xbb\x13\x01@'
p1241
tp1242
Rp1243
sg17
g53
sa(dp1244
g3
g1208
sS'acary (time)'
p1245
F0.9416770000002543
sS'p_ratio acary (time)'
p1246
g7
(g11
S'Lz\x03\xcbu\x10\x1a@'
p1247
tp1248
Rp1249
sg17
g60
sa(dp1250
g3
g1208
sS'acary (time)'
p1251
F74.06797799999958
sS'p_ratio acary (time)'
p1252
g7
(g11
S'LI1\xff1\x04\x80@'
p1253
tp1254
Rp1255
sg17
g67
sa(dp1256
g3
g1208
sS'acary (time)'
p1257
Fnan
sS'p_ratio acary (time)'
p1258
g7
(g11
S'\x00\x00\x00\x00\x00\x00\xf8\x7f'
p1259
tp1260
Rp1261
sg17
g74
sa(dp1262
g3
g1208
sS'acary (time)'
p1263
F0.30970799999977316
sS'p_ratio acary (time)'
p1264
g7
(g11
S'\xab\x82d;\x02%\x01@'
p1265
tp1266
Rp1267
sg17
g81
sa(dp1268
g3
g1208
sS'acary (time)'
p1269
F0.22082799999998315
sS'p_ratio acary (time)'
p1270
g7
(g11
S'\x8eos\xec\xe6r\xf8?'
p1271
tp1272
Rp1273
sg17
g88
sa(dp1274
g3
g1208
sS'acary (time)'
p1275
F0.6176110000001245
sS'p_ratio acary (time)'
p1276
g7
(g11
S'\xef\xd7\xed\x0f8\x18\x11@'
p1277
tp1278
Rp1279
sg17
g95
saa(lp1280
(dp1281
g3
S'Box_Stacks-i1000-471-7.hdf5'
p1282
sS'acary (time)'
p1283
F0.16092500000013388
sS'p_ratio acary (time)'
p1284
g7
(g11
S'\x00\x00\x00\x00\x00\x00\xf0?'
p1285
tp1286
Rp1287
sg17
g18
sa(dp1288
g3
g1282
sS'acary (time)'
p1289
F0.21377699999993638
sS'p_ratio acary (time)'
p1290
g7
(g11
S'pT\xb8\xeb;A\xf5?'
p1291
tp1292
Rp1293
sg17
g25
sa(dp1294
g3
g1282
sS'acary (time)'
p1295
F0.17588299999988521
sS'p_ratio acary (time)'
p1296
g7
(g11
S'\x1a\xd8\x14G\xb9|\xf1?'
p1297
tp1298
Rp1299
sg17
g32
sa(dp1300
g3
g1282
sS'acary (time)'
p1301
F0.2753280000001723
sS'p_ratio acary (time)'
p1302
g7
(g11
S'b\xc0+\xea\xe1_\xfb?'
p1303
tp1304
Rp1305
sg17
g39
sa(dp1306
g3
g1282
sS'acary (time)'
p1307
F77.19322499999998
sS'p_ratio acary (time)'
p1308
g7
(g11
S'e:\xaa\xa1\xf3\xfa}@'
p1309
tp1310
Rp1311
sg17
g46
sa(dp1312
g3
g1282
sS'acary (time)'
p1313
F0.23110200000019177
sS'p_ratio acary (time)'
p1314
g7
(g11
S',$|g4\xfa\xf6?'
p1315
tp1316
Rp1317
sg17
g53
sa(dp1318
g3
g1282
sS'acary (time)'
p1319
F65.28445299999976
sS'p_ratio acary (time)'
p1320
g7
(g11
S'\xdc\x1e\x89o\xebZy@'
p1321
tp1322
Rp1323
sg17
g60
sa(dp1324
g3
g1282
sS'acary (time)'
p1325
F75.78089799999998
sS'p_ratio acary (time)'
p1326
g7
(g11
S'n\xef\x1a\xe2\x87n}@'
p1327
tp1328
Rp1329
sg17
g67
sa(dp1330
g3
g1282
sS'acary (time)'
p1331
F75.9971099999998
sS'p_ratio acary (time)'
p1332
g7
(g11
S'\xb3\xa4P\x18\x07\x84}@'
p1333
tp1334
Rp1335
sg17
g74
sa(dp1336
g3
g1282
sS'acary (time)'
p1337
F0.48292700000001787
sS'p_ratio acary (time)'
p1338
g7
(g11
S'\x96\xf3\xed5\xef\x01\x08@'
p1339
tp1340
Rp1341
sg17
g81
sa(dp1342
g3
g1282
sS'acary (time)'
p1343
F0.19990900000084366
sS'p_ratio acary (time)'
p1344
g7
(g11
S'\xf6\x8f\xaf\x01A\xe0\xf3?'
p1345
tp1346
Rp1347
sg17
g88
sa(dp1348
g3
g1282
sS'acary (time)'
p1349
F0.8157719999999244
sS'p_ratio acary (time)'
p1350
g7
(g11
S'\xaa\xcfnD\xeeF\x14@'
p1351
tp1352
Rp1353
sg17
g95
saa(lp1354
(dp1355
g3
S'Box_Stacks-i1000-482-10.hdf5'
p1356
sS'acary (time)'
p1357
F0.15218300000015006
sS'p_ratio acary (time)'
p1358
g7
(g11
S'\xfe\xe3\x06\n\xae\xda\xf2?'
p1359
tp1360
Rp1361
sg17
g18
sa(dp1362
g3
g1356
sS'acary (time)'
p1363
F0.1397500000002765
sS'p_ratio acary (time)'
p1364
g7
(g11
S'R\xf8i\xeaYP\xf1?'
p1365
tp1366
Rp1367
sg17
g25
sa(dp1368
g3
g1356
sS'acary (time)'
p1369
F0.12914499999988038
sS'p_ratio acary (time)'
p1370
g7
(g11
S'\x00\x00\x00\x00\x00\x00\xf0?'
p1371
tp1372
Rp1373
sg17
g32
sa(dp1374
g3
g1356
sS'acary (time)'
p1375
F0.24318500000026688
sS'p_ratio acary (time)'
p1376
g7
(g11
S'\xf5S\xb1\xeb\xec \xfe?'
p1377
tp1378
Rp1379
sg17
g39
sa(dp1380
g3
g1356
sS'acary (time)'
p1381
F0.34364300000015646
sS'p_ratio acary (time)'
p1382
g7
(g11
S'\xcc\xe6\xf1G\x8aI\x05@'
p1383
tp1384
Rp1385
sg17
g46
sa(dp1386
g3
g1356
sS'acary (time)'
p1387
F0.21578599999975268
sS'p_ratio acary (time)'
p1388
g7
(g11
S'3\xe4kO\xee\xbb\xfa?'
p1389
tp1390
Rp1391
sg17
g53
sa(dp1392
g3
g1356
sS'acary (time)'
p1393
F1.4037639999996827
sS'p_ratio acary (time)'
p1394
g7
(g11
S'\n5o\xdcE\xbd%@'
p1395
tp1396
Rp1397
sg17
g60
sa(dp1398
g3
g1356
sS'acary (time)'
p1399
F76.85496500000045
sS'p_ratio acary (time)'
p1400
g7
(g11
S'\t\xfd\x15\x19\xd9\x98\x82@'
p1401
tp1402
Rp1403
sg17
g67
sa(dp1404
g3
g1356
sS'acary (time)'
p1405
F77.71052300000065
sS'p_ratio acary (time)'
p1406
g7
(g11
S'\xf0\xe5\xef\xa8\xd8\xcd\x82@'
p1407
tp1408
Rp1409
sg17
g74
sa(dp1410
g3
g1356
sS'acary (time)'
p1411
F0.23575999999957276
sS'p_ratio acary (time)'
p1412
g7
(g11
S'\xab\x9b\xc3\x99n5\xfd?'
p1413
tp1414
Rp1415
sg17
g81
sa(dp1416
g3
g1356
sS'acary (time)'
p1417
F0.35466900000028545
sS'p_ratio acary (time)'
p1418
g7
(g11
S'\x87\xfd\xbe]d\xf8\x05@'
p1419
tp1420
Rp1421
sg17
g88
sa(dp1422
g3
g1356
sS'acary (time)'
p1423
F0.26448900000013964
sS'p_ratio acary (time)'
p1424
g7
(g11
S'\x91\xfc\x83\xfcMb\x00@'
p1425
tp1426
Rp1427
sg17
g95
saa(lp1428
(dp1429
g3
S'Box_Stacks-i1000-516-11.hdf5'
p1430
sS'acary (time)'
p1431
F0.21785199999976612
sS'p_ratio acary (time)'
p1432
g7
(g11
S'k\xa5g\x14\xe0\x17\xf6?'
p1433
tp1434
Rp1435
sg17
g18
sa(dp1436
g3
g1430
sS'acary (time)'
p1437
F0.1577690000003713
sS'p_ratio acary (time)'
p1438
g7
(g11
S'\x00\x00\x00\x00\x00\x00\xf0?'
p1439
tp1440
Rp1441
sg17
g25
sa(dp1442
g3
g1430
sS'acary (time)'
p1443
F0.16547799999989365
sS'p_ratio acary (time)'
p1444
g7
(g11
S'Z\x16J $\xc8\xf0?'
p1445
tp1446
Rp1447
sg17
g32
sa(dp1448
g3
g1430
sS'acary (time)'
p1449
F0.2637400000003254
sS'p_ratio acary (time)'
p1450
g7
(g11
S'^*\xdcL8\xbf\xfa?'
p1451
tp1452
Rp1453
sg17
g39
sa(dp1454
g3
g1430
sS'acary (time)'
p1455
F88.45602099999996
sS'p_ratio acary (time)'
p1456
g7
(g11
S'V\xa4\x7f\xf3W\x85\x81@'
p1457
tp1458
Rp1459
sg17
g46
sa(dp1460
g3
g1430
sS'acary (time)'
p1461
F0.29542099999980564
sS'p_ratio acary (time)'
p1462
g7
(g11
S':\n\x02\xe8\xb8\xf5\xfd?'
p1463
tp1464
Rp1465
sg17
g53
sa(dp1466
g3
g1430
sS'acary (time)'
p1467
F0.9462469999998575
sS'p_ratio acary (time)'
p1468
g7
(g11
S'\x99\xd0P4\x9e\xfd\x17@'
p1469
tp1470
Rp1471
sg17
g60
sa(dp1472
g3
g1430
sS'acary (time)'
p1473
F83.52500599999985
sS'p_ratio acary (time)'
p1474
g7
(g11
S'h\x99%mN\x8b\x80@'
p1475
tp1476
Rp1477
sg17
g67
sa(dp1478
g3
g1430
sS'acary (time)'
p1479
F80.06670200000008
sS'p_ratio acary (time)'
p1480
g7
(g11
S'Y\xd1dV\xe4\xb7\x7f@'
p1481
tp1482
Rp1483
sg17
g74
sa(dp1484
g3
g1430
sS'acary (time)'
p1485
F106.18528900000001
sS'p_ratio acary (time)'
p1486
g7
(g11
S'i\xf4\xd1\xa5W\x08\x85@'
p1487
tp1488
Rp1489
sg17
g81
sa(dp1490
g3
g1430
sS'acary (time)'
p1491
F0.34229599999980564
sS'p_ratio acary (time)'
p1492
g7
(g11
S'\xa8\xa6\xe6\x7fX[\x01@'
p1493
tp1494
Rp1495
sg17
g88
sa(dp1496
g3
g1430
sS'acary (time)'
p1497
F0.2707380000001649
sS'p_ratio acary (time)'
p1498
g7
(g11
S'6\xd8\xf1\xec\xe6t\xfb?'
p1499
tp1500
Rp1501
sg17
g95
saa(lp1502
(dp1503
g3
S'Box_Stacks-i1000-533-12.hdf5'
p1504
sS'acary (time)'
p1505
F0.47150800000054005
sS'p_ratio acary (time)'
p1506
g7
(g11
S',_\xe6@\x05\xf9\x01@'
p1507
tp1508
Rp1509
sg17
g18
sa(dp1510
g3
g1504
sS'acary (time)'
p1511
F0.20987700000023324
sS'p_ratio acary (time)'
p1512
g7
(g11
S'\x00\x00\x00\x00\x00\x00\xf0?'
p1513
tp1514
Rp1515
sg17
g25
sa(dp1516
g3
g1504
sS'acary (time)'
p1517
F0.3151830000006157
sS'p_ratio acary (time)'
p1518
g7
(g11
S'u\x1e[\x15,\x07\xf8?'
p1519
tp1520
Rp1521
sg17
g32
sa(dp1522
g3
g1504
sS'acary (time)'
p1523
F0.28219499999977415
sS'p_ratio acary (time)'
p1524
g7
(g11
S'\x1b=\x80=_\x83\xf5?'
p1525
tp1526
Rp1527
sg17
g39
sa(dp1528
g3
g1504
sS'acary (time)'
p1529
F91.69348099999934
sS'p_ratio acary (time)'
p1530
g7
(g11
S'\xee\x0b\xc3\xa7CN{@'
p1531
tp1532
Rp1533
sg17
g46
sa(dp1534
g3
g1504
sS'acary (time)'
p1535
F0.37509700000009616
sS'p_ratio acary (time)'
p1536
g7
(g11
S'\xfb\x0c\xf8"w\x98\xfc?'
p1537
tp1538
Rp1539
sg17
g53
sa(dp1540
g3
g1504
sS'acary (time)'
p1541
F1.221969999999601
sS'p_ratio acary (time)'
p1542
g7
(g11
S'J\xbd\xd1\xef\x0cJ\x17@'
p1543
tp1544
Rp1545
sg17
g60
sa(dp1546
g3
g1504
sS'acary (time)'
p1547
F84.82583299999988
sS'p_ratio acary (time)'
p1548
g7
(g11
S'\xdc@\x10P\xb5By@'
p1549
tp1550
Rp1551
sg17
g67
sa(dp1552
g3
g1504
sS'acary (time)'
p1553
F84.79019799999969
sS'p_ratio acary (time)'
p1554
g7
(g11
S'\xfbll\xda\xfd?y@'
p1555
tp1556
Rp1557
sg17
g74
sa(dp1558
g3
g1504
sS'acary (time)'
p1559
F0.582922999999937
sS'p_ratio acary (time)'
p1560
g7
(g11
S'dOo\x0588\x06@'
p1561
tp1562
Rp1563
sg17
g81
sa(dp1564
g3
g1504
sS'acary (time)'
p1565
F0.2892549999996845
sS'p_ratio acary (time)'
p1566
g7
(g11
S'\xb4\xf3\xc7\x06(\r\xf6?'
p1567
tp1568
Rp1569
sg17
g88
sa(dp1570
g3
g1504
sS'acary (time)'
p1571
F0.4293550000002142
sS'p_ratio acary (time)'
p1572
g7
(g11
S'A+\xed\xfe\xaf]\x00@'
p1573
tp1574
Rp1575
sg17
g95
saa(lp1576
(dp1577
g3
S'Box_Stacks-i1000-547-14.hdf5'
p1578
sS'acary (time)'
p1579
F0.2963129999998273
sS'p_ratio acary (time)'
p1580
g7
(g11
S'\xcacC\t(P\xf8?'
p1581
tp1582
Rp1583
sg17
g18
sa(dp1584
g3
g1578
sS'acary (time)'
p1585
F0.19499799999994138
sS'p_ratio acary (time)'
p1586
g7
(g11
S'\x00\x00\x00\x00\x00\x00\xf0?'
p1587
tp1588
Rp1589
sg17
g25
sa(dp1590
g3
g1578
sS'acary (time)'
p1591
F0.20433700000012323
sS'p_ratio acary (time)'
p1592
g7
(g11
S'\x15\xeeO=+\xc4\xf0?'
p1593
tp1594
Rp1595
sg17
g32
sa(dp1596
g3
g1578
sS'acary (time)'
p1597
F0.3146040000001449
sS'p_ratio acary (time)'
p1598
g7
(g11
S'\xe2\xadIy]\xd0\xf9?'
p1599
tp1600
Rp1601
sg17
g39
sa(dp1602
g3
g1578
sS'acary (time)'
p1603
F97.55945299999985
sS'p_ratio acary (time)'
p1604
g7
(g11
S'\xf1\xb6\x06\xd6\xf5D\x7f@'
p1605
tp1606
Rp1607
sg17
g46
sa(dp1608
g3
g1578
sS'acary (time)'
p1609
F0.41972100000020873
sS'p_ratio acary (time)'
p1610
g7
(g11
S'\x9f\xf6\xa9!18\x01@'
p1611
tp1612
Rp1613
sg17
g53
sa(dp1614
g3
g1578
sS'acary (time)'
p1615
F1.1010910000004515
sS'p_ratio acary (time)'
p1616
g7
(g11
S'\xed"\xa4\xde2\x96\x16@'
p1617
tp1618
Rp1619
sg17
g60
sa(dp1620
g3
g1578
sS'acary (time)'
p1621
F86.33648799999992
sS'p_ratio acary (time)'
p1622
g7
(g11
S'@\x1ay\x99\x17\xac{@'
p1623
tp1624
Rp1625
sg17
g67
sa(dp1626
g3
g1578
sS'acary (time)'
p1627
F86.89676599999984
sS'p_ratio acary (time)'
p1628
g7
(g11
S'\x8e<rn\x10\xda{@'
p1629
tp1630
Rp1631
sg17
g74
sa(dp1632
g3
g1578
sS'acary (time)'
p1633
F108.74936499999967
sS'p_ratio acary (time)'
p1634
g7
(g11
S'\xed\xc77\xe4\x8em\x81@'
p1635
tp1636
Rp1637
sg17
g81
sa(dp1638
g3
g1578
sS'acary (time)'
p1639
F0.31480699999974604
sS'p_ratio acary (time)'
p1640
g7
(g11
S'\xcf\x98X\x14\xa1\xd4\xf9?'
p1641
tp1642
Rp1643
sg17
g88
sa(dp1644
g3
g1578
sS'acary (time)'
p1645
F0.5620170000001963
sS'p_ratio acary (time)'
p1646
g7
(g11
S'\xb1\xb6\xa8\x1b\xae\x0e\x07@'
p1647
tp1648
Rp1649
sg17
g95
saa(lp1650
(dp1651
g3
S'Box_Stacks-i1000-547-21.hdf5'
p1652
sS'acary (time)'
p1653
F0.17983499999991182
sS'p_ratio acary (time)'
p1654
g7
(g11
S'\x00\x00\x00\x00\x00\x00\xf0?'
p1655
tp1656
Rp1657
sg17
g18
sa(dp1658
g3
g1652
sS'acary (time)'
p1659
F0.1812580000005255
sS'p_ratio acary (time)'
p1660
g7
(g11
S'\xb5\xbc{.i \xf0?'
p1661
tp1662
Rp1663
sg17
g25
sa(dp1664
g3
g1652
sS'acary (time)'
p1665
F0.20079600000008213
sS'p_ratio acary (time)'
p1666
g7
(g11
S'J.\x82\xb5j\xdd\xf1?'
p1667
tp1668
Rp1669
sg17
g32
sa(dp1670
g3
g1652
sS'acary (time)'
p1671
F0.41828499999974156
sS'p_ratio acary (time)'
p1672
g7
(g11
S'\xe4z\xe04\x85\x9b\x02@'
p1673
tp1674
Rp1675
sg17
g39
sa(dp1676
g3
g1652
sS'acary (time)'
p1677
F103.35680699999921
sS'p_ratio acary (time)'
p1678
g7
(g11
S'\xdcz\x7f\xbe\xd9\xf5\x81@'
p1679
tp1680
Rp1681
sg17
g46
sa(dp1682
g3
g1652
sS'acary (time)'
p1683
F0.4419579999994312
sS'p_ratio acary (time)'
p1684
g7
(g11
S'\x9a\xc9\xcb\x14\x1d\xa9\x03@'
p1685
tp1686
Rp1687
sg17
g53
sa(dp1688
g3
g1652
sS'acary (time)'
p1689
F2.1901419999994687
sS'p_ratio acary (time)'
p1690
g7
(g11
S'\x1d-\xd1\xfcs[(@'
p1691
tp1692
Rp1693
sg17
g60
sa(dp1694
g3
g1652
sS'acary (time)'
p1695
F86.46049499999936
sS'p_ratio acary (time)'
p1696
g7
(g11
S'\xdaX\x02\xc1m\x0c~@'
p1697
tp1698
Rp1699
sg17
g67
sa(dp1700
g3
g1652
sS'acary (time)'
p1701
F87.03436699999929
sS'p_ratio acary (time)'
p1702
g7
(g11
S'\xb4X\xfb\x82|?~@'
p1703
tp1704
Rp1705
sg17
g74
sa(dp1706
g3
g1652
sS'acary (time)'
p1707
F0.3494299999993018
sS'p_ratio acary (time)'
p1708
g7
(g11
S'j\xd5\xe9\xf1\xc4\x16\xff?'
p1709
tp1710
Rp1711
sg17
g81
sa(dp1712
g3
g1652
sS'acary (time)'
p1713
F0.29794200000014825
sS'p_ratio acary (time)'
p1714
g7
(g11
S',\x81\xb0h\x0e\x82\xfa?'
p1715
tp1716
Rp1717
sg17
g88
sa(dp1718
g3
g1652
sS'acary (time)'
p1719
F2.126456999999391
sS'p_ratio acary (time)'
p1720
g7
(g11
S"f\xe0\xf1o#\xa6'@"
p1721
tp1722
Rp1723
sg17
g95
saa(lp1724
(dp1725
g3
S'Box_Stacks-i1000-548-22.hdf5'
p1726
sS'acary (time)'
p1727
F0.2112889999998515
sS'p_ratio acary (time)'
p1728
g7
(g11
S'd\xdbz\xe4\xd1!\xf4?'
p1729
tp1730
Rp1731
sg17
g18
sa(dp1732
g3
g1726
sS'acary (time)'
p1733
F0.16792199999963486
sS'p_ratio acary (time)'
p1734
g7
(g11
S'\x00\x00\x00\x00\x00\x00\xf0?'
p1735
tp1736
Rp1737
sg17
g25
sa(dp1738
g3
g1726
sS'acary (time)'
p1739
F0.17660800000066956
sS'p_ratio acary (time)'
p1740
g7
(g11
S'\xde\x8d\xe8\x0e\xdf\xd3\xf0?'
p1741
tp1742
Rp1743
sg17
g32
sa(dp1744
g3
g1726
sS'acary (time)'
p1745
F0.4188300000005256
sS'p_ratio acary (time)'
p1746
g7
(g11
S'\xf8\x8f\x02\xd8\x1b\xf4\x03@'
p1747
tp1748
Rp1749
sg17
g39
sa(dp1750
g3
g1726
sS'acary (time)'
p1751
F101.3973219999998
sS'p_ratio acary (time)'
p1752
g7
(g11
S'GO\x1e\xcd\xaf\xde\x82@'
p1753
tp1754
Rp1755
sg17
g46
sa(dp1756
g3
g1726
sS'acary (time)'
p1757
F0.4430499999998574
sS'p_ratio acary (time)'
p1758
g7
(g11
S'\x1a\x80o\xce\x7f\x1b\x05@'
p1759
tp1760
Rp1761
sg17
g53
sa(dp1762
g3
g1726
sS'acary (time)'
p1763
F2.205192000000352
sS'p_ratio acary (time)'
p1764
g7
(g11
S'V\x9d\x08\xf5\xb4C*@'
p1765
tp1766
Rp1767
sg17
g60
sa(dp1768
g3
g1726
sS'acary (time)'
p1769
F86.54475299999922
sS'p_ratio acary (time)'
p1770
g7
(g11
S'\xa1\x86V\xcf\x17\x1b\x80@'
p1771
tp1772
Rp1773
sg17
g67
sa(dp1774
g3
g1726
sS'acary (time)'
p1775
F85.61040099999991
sS'p_ratio acary (time)'
p1776
g7
(g11
S'F2\x8d\xa5(\xdd\x7f@'
p1777
tp1778
Rp1779
sg17
g74
sa(dp1780
g3
g1726
sS'acary (time)'
p1781
F0.41218899999967107
sS'p_ratio acary (time)'
p1782
g7
(g11
S'\x9d\xd3\xb8<\x1d\xa3\x03@'
p1783
tp1784
Rp1785
sg17
g81
sa(dp1786
g3
g1726
sS'acary (time)'
p1787
F0.37528699999984383
sS'p_ratio acary (time)'
p1788
g7
(g11
S'\x1c\x80hc\r\xe1\x01@'
p1789
tp1790
Rp1791
sg17
g88
sa(dp1792
g3
g1726
sS'acary (time)'
p1793
F1.6511340000006385
sS'p_ratio acary (time)'
p1794
g7
(g11
S'\xab\xdeUd]\xaa#@'
p1795
tp1796
Rp1797
sg17
g95
saa(lp1798
(dp1799
g3
S'Box_Stacks-i1000-548-25.hdf5'
p1800
sS'acary (time)'
p1801
F0.1816980000003241
sS'p_ratio acary (time)'
p1802
g7
(g11
S'\x00\x00\x00\x00\x00\x00\xf0?'
p1803
tp1804
Rp1805
sg17
g18
sa(dp1806
g3
g1800
sS'acary (time)'
p1807
F0.1928250000000844
sS'p_ratio acary (time)'
p1808
g7
(g11
S'\xea:>\xb9\xd5\xfa\xf0?'
p1809
tp1810
Rp1811
sg17
g25
sa(dp1812
g3
g1800
sS'acary (time)'
p1813
F0.2147610000001805
sS'p_ratio acary (time)'
p1814
g7
(g11
S'\xac\xb7\x93\xffU\xe9\xf2?'
p1815
tp1816
Rp1817
sg17
g32
sa(dp1818
g3
g1800
sS'acary (time)'
p1819
F0.4106520000004821
sS'p_ratio acary (time)'
p1820
g7
(g11
S'=M\xff\xc6\xa4\x14\x02@'
p1821
tp1822
Rp1823
sg17
g39
sa(dp1824
g3
g1800
sS'acary (time)'
p1825
F104.51359300000058
sS'p_ratio acary (time)'
p1826
g7
(g11
S'/1Z\xc8\xa3\xf9\x81@'
p1827
tp1828
Rp1829
sg17
g46
sa(dp1830
g3
g1800
sS'acary (time)'
p1831
F0.4580980000000636
sS'p_ratio acary (time)'
p1832
g7
(g11
S'\x87\xaaJ\xccm+\x04@'
p1833
tp1834
Rp1835
sg17
g53
sa(dp1836
g3
g1800
sS'acary (time)'
p1837
F33.03920500000004
sS'p_ratio acary (time)'
p1838
g7
(g11
S'\xd8_\xa2\x0b\xbf\xbaf@'
p1839
tp1840
Rp1841
sg17
g60
sa(dp1842
g3
g1800
sS'acary (time)'
p1843
F87.01220199999989
sS'p_ratio acary (time)'
p1844
g7
(g11
S'\xe30mq#\xee}@'
p1845
tp1846
Rp1847
sg17
g67
sa(dp1848
g3
g1800
sS'acary (time)'
p1849
F86.97236100000009
sS'p_ratio acary (time)'
p1850
g7
(g11
S'~>\xb5O\xa1\xea}@'
p1851
tp1852
Rp1853
sg17
g74
sa(dp1854
g3
g1800
sS'acary (time)'
p1855
F0.3656719999999041
sS'p_ratio acary (time)'
p1856
g7
(g11
S'C\xf3\xd2`\xa7\x19\x00@'
p1857
tp1858
Rp1859
sg17
g81
sa(dp1860
g3
g1800
sS'acary (time)'
p1861
F0.33080299999983254
sS'p_ratio acary (time)'
p1862
g7
(g11
S'\x13\xe3\x0c]B!\xfd?'
p1863
tp1864
Rp1865
sg17
g88
sa(dp1866
g3
g1800
sS'acary (time)'
p1867
F0.8625220000003537
sS'p_ratio acary (time)'
p1868
g7
(g11
S'A\xdf#\xde\xef\xfc\x12@'
p1869
tp1870
Rp1871
sg17
g95
saa(lp1872
(dp1873
g3
S'Box_Stacks-i1000-548-26.hdf5'
p1874
sS'acary (time)'
p1875
F0.18086199999925157
sS'p_ratio acary (time)'
p1876
g7
(g11
S'\x00\x00\x00\x00\x00\x00\xf0?'
p1877
tp1878
Rp1879
sg17
g18
sa(dp1880
g3
g1874
sS'acary (time)'
p1881
F0.19432899999992514
sS'p_ratio acary (time)'
p1882
g7
(g11
S'q\xbf\x07\x0f\xfd0\xf1?'
p1883
tp1884
Rp1885
sg17
g25
sa(dp1886
g3
g1874
sS'acary (time)'
p1887
F0.21483899999930145
sS'p_ratio acary (time)'
p1888
g7
(g11
S'\x9bD\x9a\x05{\x01\xf3?'
p1889
tp1890
Rp1891
sg17
g32
sa(dp1892
g3
g1874
sS'acary (time)'
p1893
F0.3920769999995173
sS'p_ratio acary (time)'
p1894
g7
(g11
S"C\x04\xa5'\xb4W\x01@"
p1895
tp1896
Rp1897
sg17
g39
sa(dp1898
g3
g1874
sS'acary (time)'
p1899
F105.0313640000004
sS'p_ratio acary (time)'
p1900
g7
(g11
S'\xa8/\xb8\xf5\xcf%\x82@'
p1901
tp1902
Rp1903
sg17
g46
sa(dp1904
g3
g1874
sS'acary (time)'
p1905
F0.4670169999999416
sS'p_ratio acary (time)'
p1906
g7
(g11
S'\xac\xbaNeJ\xa8\x04@'
p1907
tp1908
Rp1909
sg17
g53
sa(dp1910
g3
g1874
sS'acary (time)'
p1911
F90.05665599999975
sS'p_ratio acary (time)'
p1912
g7
(g11
S'\x11G\x8f1\xe2\x1e\x7f@'
p1913
tp1914
Rp1915
sg17
g60
sa(dp1916
g3
g1874
sS'acary (time)'
p1917
F86.6424850000003
sS'p_ratio acary (time)'
p1918
g7
(g11
S'\xa0\xf0%\x1e\xd9\xf0}@'
p1919
tp1920
Rp1921
sg17
g67
sa(dp1922
g3
g1874
sS'acary (time)'
p1923
F85.55076400000053
sS'p_ratio acary (time)'
p1924
g7
(g11
S'geI\xcdD\x90}@'
p1925
tp1926
Rp1927
sg17
g74
sa(dp1928
g3
g1874
sS'acary (time)'
p1929
F0.3629190000001472
sS'p_ratio acary (time)'
p1930
g7
(g11
S'\x13@\xc0\x19\x88\r\x00@'
p1931
tp1932
Rp1933
sg17
g81
sa(dp1934
g3
g1874
sS'acary (time)'
p1935
F0.36916200000086974
sS'p_ratio acary (time)'
p1936
g7
(g11
S'o7[}9T\x00@'
p1937
tp1938
Rp1939
sg17
g88
sa(dp1940
g3
g1874
sS'acary (time)'
p1941
F0.8813840000002529
sS'p_ratio acary (time)'
p1942
g7
(g11
S'\xb6AN\xb92~\x13@'
p1943
tp1944
Rp1945
sg17
g95
saa(lp1946
(dp1947
g3
S'Box_Stacks-i1000-548-39.hdf5'
p1948
sS'acary (time)'
p1949
F0.17146199999933742
sS'p_ratio acary (time)'
p1950
g7
(g11
S'\x00\x00\x00\x00\x00\x00\xf0?'
p1951
tp1952
Rp1953
sg17
g18
sa(dp1954
g3
g1948
sS'acary (time)'
p1955
F0.2729509999999209
sS'p_ratio acary (time)'
p1956
g7
(g11
S'B\xda\xd0\x0fpx\xf9?'
p1957
tp1958
Rp1959
sg17
g25
sa(dp1960
g3
g1948
sS'acary (time)'
p1961
F0.2522580000004382
sS'p_ratio acary (time)'
p1962
g7
(g11
S'\xc8\xe5\xe5\x00\x1c\x8a\xf7?'
p1963
tp1964
Rp1965
sg17
g32
sa(dp1966
g3
g1948
sS'acary (time)'
p1967
F0.49161000000003696
sS'p_ratio acary (time)'
p1968
g7
(g11
S'\xc7\x0eA\xad\xf4\xef\x06@'
p1969
tp1970
Rp1971
sg17
g39
sa(dp1972
g3
g1948
sS'acary (time)'
p1973
F106.10994099999971
sS'p_ratio acary (time)'
p1974
g7
(g11
S'\xf9\xb6\x1a\xf3\xd4V\x83@'
p1975
tp1976
Rp1977
sg17
g46
sa(dp1978
g3
g1948
sS'acary (time)'
p1979
F0.4302850000003673
sS'p_ratio acary (time)'
p1980
g7
(g11
S'\xf99\x17"x\x13\x04@'
p1981
tp1982
Rp1983
sg17
g53
sa(dp1984
g3
g1948
sS'acary (time)'
p1985
F1.4987040000005436
sS'p_ratio acary (time)'
p1986
g7
(g11
S'+1\xdd\xb0A{!@'
p1987
tp1988
Rp1989
sg17
g60
sa(dp1990
g3
g1948
sS'acary (time)'
p1991
F86.99659199999951
sS'p_ratio acary (time)'
p1992
g7
(g11
S'\xf8n\xe7P\x19\xb6\x7f@'
p1993
tp1994
Rp1995
sg17
g67
sa(dp1996
g3
g1948
sS'acary (time)'
p1997
F85.80532099999982
sS'p_ratio acary (time)'
p1998
g7
(g11
S'XE#n\xefF\x7f@'
p1999
tp2000
Rp2001
sg17
g74
sa(dp2002
g3
g1948
sS'acary (time)'
p2003
F0.34209700000064913
sS'p_ratio acary (time)'
p2004
g7
(g11
S'\xd1o\x18{>\xec\xff?'
p2005
tp2006
Rp2007
sg17
g81
sa(dp2008
g3
g1948
sS'acary (time)'
p2009
F0.19922999999926105
sS'p_ratio acary (time)'
p2010
g7
(g11
S'M\xa0\xfc9W\x97\xf2?'
p2011
tp2012
Rp2013
sg17
g88
sa(dp2014
g3
g1948
sS'acary (time)'
p2015
F1.095274000000245
sS'p_ratio acary (time)'
p2016
g7
(g11
S'fp<B)\x8d\x19@'
p2017
tp2018
Rp2019
sg17
g95
saa(lp2020
(dp2021
g3
S'Box_Stacks-i1000-548-40.hdf5'
p2022
sS'acary (time)'
p2023
F0.1703319999996893
sS'p_ratio acary (time)'
p2024
g7
(g11
S'\x00\x00\x00\x00\x00\x00\xf0?'
p2025
tp2026
Rp2027
sg17
g18
sa(dp2028
g3
g2022
sS'acary (time)'
p2029
F0.26978500000041095
sS'p_ratio acary (time)'
p2030
g7
(g11
S'm`\xc5\xcb\x8fW\xf9?'
p2031
tp2032
Rp2033
sg17
g25
sa(dp2034
g3
g2022
sS'acary (time)'
p2035
F0.2497400000002017
sS'p_ratio acary (time)'
p2036
g7
(g11
S'\xfa\x88\xddV\x89u\xf7?'
p2037
tp2038
Rp2039
sg17
g32
sa(dp2040
g3
g2022
sS'acary (time)'
p2041
F0.48725800000011077
sS'p_ratio acary (time)'
p2042
g7
(g11
S"'9\xd8\x95\x95\xe2\x06@"
p2043
tp2044
Rp2045
sg17
g39
sa(dp2046
g3
g2022
sS'acary (time)'
p2047
F105.40676799999983
sS'p_ratio acary (time)'
p2048
g7
(g11
S'\xc1+@q\xa6V\x83@'
p2049
tp2050
Rp2051
sg17
g46
sa(dp2052
g3
g2022
sS'acary (time)'
p2053
F0.4267439999994167
sS'p_ratio acary (time)'
p2054
g7
(g11
S'?\x1e#S\xfd\n\x04@'
p2055
tp2056
Rp2057
sg17
g53
sa(dp2058
g3
g2022
sS'acary (time)'
p2059
F1.489224999999351
sS'p_ratio acary (time)'
p2060
g7
(g11
S'\xb1\xec\xbb\xfas|!@'
p2061
tp2062
Rp2063
sg17
g60
sa(dp2064
g3
g2022
sS'acary (time)'
p2065
F86.36187299999983
sS'p_ratio acary (time)'
p2066
g7
(g11
S'\x9f:\xe6WU\xb0\x7f@'
p2067
tp2068
Rp2069
sg17
g67
sa(dp2070
g3
g2022
sS'acary (time)'
p2071
F85.9192779999994
sS'p_ratio acary (time)'
p2072
g7
(g11
S'I\x95[1\xc2\x86\x7f@'
p2073
tp2074
Rp2075
sg17
g74
sa(dp2076
g3
g2022
sS'acary (time)'
p2077
F0.34121700000014243
sS'p_ratio acary (time)'
p2078
g7
(g11
S"\xbe\xb8`'\xa6\x06\x00@"
p2079
tp2080
Rp2081
sg17
g81
sa(dp2082
g3
g2022
sS'acary (time)'
p2083
F0.19948099999965052
sS'p_ratio acary (time)'
p2084
g7
(g11
S'\x92\rJU\xf3\xbc\xf2?'
p2085
tp2086
Rp2087
sg17
g88
sa(dp2088
g3
g2022
sS'acary (time)'
p2089
F1.0965259999993577
sS'p_ratio acary (time)'
p2090
g7
(g11
S'\x94\xf6W)\x15\xc0\x19@'
p2091
tp2092
Rp2093
sg17
g95
saa(lp2094
(dp2095
g3
S'Box_Stacks-i1000-548-41.hdf5'
p2096
sS'acary (time)'
p2097
F0.17026299999997718
sS'p_ratio acary (time)'
p2098
g7
(g11
S'\x00\x00\x00\x00\x00\x00\xf0?'
p2099
tp2100
Rp2101
sg17
g18
sa(dp2102
g3
g2096
sS'acary (time)'
p2103
F0.27028900000004796
sS'p_ratio acary (time)'
p2104
g7
(g11
S'c\xff\x9d\xc4Pf\xf9?'
p2105
tp2106
Rp2107
sg17
g25
sa(dp2108
g3
g2096
sS'acary (time)'
p2109
F0.24850299999980052
sS'p_ratio acary (time)'
p2110
g7
(g11
S'\xdc\xf3A=6Z\xf7?'
p2111
tp2112
Rp2113
sg17
g32
sa(dp2114
g3
g2096
sS'acary (time)'
p2115
F0.4861299999993207
sS'p_ratio acary (time)'
p2116
g7
(g11
S'\xc6Mu\xf4c\xd7\x06@'
p2117
tp2118
Rp2119
sg17
g39
sa(dp2120
g3
g2096
sS'acary (time)'
p2121
F105.03108100000009
sS'p_ratio acary (time)'
p2122
g7
(g11
S'\x96\x0c\xfd\x1d\x01G\x83@'
p2123
tp2124
Rp2125
sg17
g46
sa(dp2126
g3
g2096
sS'acary (time)'
p2127
F0.42644600000039645
sS'p_ratio acary (time)'
p2128
g7
(g11
S'\xfb\x9a\xcb\x03|\t\x04@'
p2129
tp2130
Rp2131
sg17
g53
sa(dp2132
g3
g2096
sS'acary (time)'
p2133
F1.4860790000002453
sS'p_ratio acary (time)'
p2134
g7
(g11
S'\xb8-\xd5\x88\xcet!@'
p2135
tp2136
Rp2137
sg17
g60
sa(dp2138
g3
g2096
sS'acary (time)'
p2139
F86.6751919999997
sS'p_ratio acary (time)'
p2140
g7
(g11
S'\xeb\xe0\xc3q\x10\xd1\x7f@'
p2141
tp2142
Rp2143
sg17
g67
sa(dp2144
g3
g2096
sS'acary (time)'
p2145
F86.39606099999946
sS'p_ratio acary (time)'
p2146
g7
(g11
S'`\xd9\xf3j\xd5\xb6\x7f@'
p2147
tp2148
Rp2149
sg17
g74
sa(dp2150
g3
g2096
sS'acary (time)'
p2151
F0.34281000000009954
sS'p_ratio acary (time)'
p2152
g7
(g11
S'\x17E8\x15y\x1b\x00@'
p2153
tp2154
Rp2155
sg17
g81
sa(dp2156
g3
g2096
sS'acary (time)'
p2157
F0.20304200000009587
sS'p_ratio acary (time)'
p2158
g7
(g11
S'\x90\x12W\xa6\x8f\x14\xf3?'
p2159
tp2160
Rp2161
sg17
g88
sa(dp2162
g3
g2096
sS'acary (time)'
p2163
F1.0992489999998725
sS'p_ratio acary (time)'
p2164
g7
(g11
S'\xe4a\xf5\x80!\xd3\x19@'
p2165
tp2166
Rp2167
sg17
g95
saa(lp2168
(dp2169
g3
S'Box_Stacks-i1000-548-42.hdf5'
p2170
sS'acary (time)'
p2171
F0.1698820000001433
sS'p_ratio acary (time)'
p2172
g7
(g11
S'\x00\x00\x00\x00\x00\x00\xf0?'
p2173
tp2174
Rp2175
sg17
g18
sa(dp2176
g3
g2170
sS'acary (time)'
p2177
F0.27056700000048295
sS'p_ratio acary (time)'
p2178
g7
(g11
S'\x11s<\xed\x99{\xf9?'
p2179
tp2180
Rp2181
sg17
g25
sa(dp2182
g3
g2170
sS'acary (time)'
p2183
F0.24944200000027195
sS'p_ratio acary (time)'
p2184
g7
(g11
S'\xc8%rnB~\xf7?'
p2185
tp2186
Rp2187
sg17
g32
sa(dp2188
g3
g2170
sS'acary (time)'
p2189
F0.48811399999976857
sS'p_ratio acary (time)'
p2190
g7
(g11
S'\xeb!`,l\xfc\x06@'
p2191
tp2192
Rp2193
sg17
g39
sa(dp2194
g3
g2170
sS'acary (time)'
p2195
F105.41201300000012
sS'p_ratio acary (time)'
p2196
g7
(g11
S'\x8a\xe1\xfe\xcb\x02d\x83@'
p2197
tp2198
Rp2199
sg17
g46
sa(dp2200
g3
g2170
sS'acary (time)'
p2201
F0.4265320000004067
sS'p_ratio acary (time)'
p2202
g7
(g11
S'\x86\x95\xbdw\x06\x16\x04@'
p2203
tp2204
Rp2205
sg17
g53
sa(dp2206
g3
g2170
sS'acary (time)'
p2207
F1.4835409999996045
sS'p_ratio acary (time)'
p2208
g7
(g11
S'\x19\xad\x19\x11.w!@'
p2209
tp2210
Rp2211
sg17
g60
sa(dp2212
g3
g2170
sS'acary (time)'
p2213
F86.58247100000062
sS'p_ratio acary (time)'
p2214
g7
(g11
S'$4DD\x99\xda\x7f@'
p2215
tp2216
Rp2217
sg17
g67
sa(dp2218
g3
g2170
sS'acary (time)'
p2219
F86.02743999999984
sS'p_ratio acary (time)'
p2220
g7
(g11
S'\n\x8e\xde\xfeR\xa6\x7f@'
p2221
tp2222
Rp2223
sg17
g74
sa(dp2224
g3
g2170
sS'acary (time)'
p2225
F0.3422200000004523
sS'p_ratio acary (time)'
p2226
g7
(g11
S'\x99\xc1F\xae\x9b\x1d\x00@'
p2227
tp2228
Rp2229
sg17
g81
sa(dp2230
g3
g2170
sS'acary (time)'
p2231
F0.1993240000001606
sS'p_ratio acary (time)'
p2232
g7
(g11
S'R{\xc3*\xdf\xc5\xf2?'
p2233
tp2234
Rp2235
sg17
g88
sa(dp2236
g3
g2170
sS'acary (time)'
p2237
F1.0956340000002456
sS'p_ratio acary (time)'
p2238
g7
(g11
S'Gk\xeb\xed*\xcc\x19@'
p2239
tp2240
Rp2241
sg17
g95
saa(lp2242
(dp2243
g3
S'Box_Stacks-i1000-548-44.hdf5'
p2244
sS'acary (time)'
p2245
F0.17060100000071543
sS'p_ratio acary (time)'
p2246
g7
(g11
S'\x00\x00\x00\x00\x00\x00\xf0?'
p2247
tp2248
Rp2249
sg17
g18
sa(dp2250
g3
g2244
sS'acary (time)'
p2251
F0.2705710000000181
sS'p_ratio acary (time)'
p2252
g7
(g11
S']/\x9c\x194`\xf9?'
p2253
tp2254
Rp2255
sg17
g25
sa(dp2256
g3
g2244
sS'acary (time)'
p2257
F0.24917400000049383
sS'p_ratio acary (time)'
p2258
g7
(g11
S'\x1a$\x7fTz^\xf7?'
p2259
tp2260
Rp2261
sg17
g32
sa(dp2262
g3
g2244
sS'acary (time)'
p2263
F0.4871180000000095
sS'p_ratio acary (time)'
p2264
g7
(g11
S'\x15C\xb8}\xaa\xd7\x06@'
p2265
tp2266
Rp2267
sg17
g39
sa(dp2268
g3
g2244
sS'acary (time)'
p2269
F104.90247799999997
sS'p_ratio acary (time)'
p2270
g7
(g11
S'n\xf4\xdeF27\x83@'
p2271
tp2272
Rp2273
sg17
g46
sa(dp2274
g3
g2244
sS'acary (time)'
p2275
F0.42645100000027014
sS'p_ratio acary (time)'
p2276
g7
(g11
S'8L)\xbba\xff\x03@'
p2277
tp2278
Rp2279
sg17
g53
sa(dp2280
g3
g2244
sS'acary (time)'
p2281
F1.4859749999995984
sS'p_ratio acary (time)'
p2282
g7
(g11
S'\xca\xa2\x1a\x13\xa4k!@'
p2283
tp2284
Rp2285
sg17
g60
sa(dp2286
g3
g2244
sS'acary (time)'
p2287
F86.4646929999999
sS'p_ratio acary (time)'
p2288
g7
(g11
S'bY\x00c/\xad\x7f@'
p2289
tp2290
Rp2291
sg17
g67
sa(dp2292
g3
g2244
sS'acary (time)'
p2293
F86.69903400000021
sS'p_ratio acary (time)'
p2294
g7
(g11
S'\xed\xfbL\xbc)\xc3\x7f@'
p2295
tp2296
Rp2297
sg17
g74
sa(dp2298
g3
g2244
sS'acary (time)'
p2299
F0.3418069999997897
sS'p_ratio acary (time)'
p2300
g7
(g11
S'+Q\x7fFC\x07\x00@'
p2301
tp2302
Rp2303
sg17
g81
sa(dp2304
g3
g2244
sS'acary (time)'
p2305
F0.19967699999961042
sS'p_ratio acary (time)'
p2306
g7
(g11
S'\x10\xdf\xc3\xb4\x17\xba\xf2?'
p2307
tp2308
Rp2309
sg17
g88
sa(dp2310
g3
g2244
sS'acary (time)'
p2311
F1.09643799999958
sS'p_ratio acary (time)'
p2312
g7
(g11
S'\xc9H$\x03)\xb5\x19@'
p2313
tp2314
Rp2315
sg17
g95
saa(lp2316
(dp2317
g3
S'Box_Stacks-i1000-548-45.hdf5'
p2318
sS'acary (time)'
p2319
F0.17082399999981135
sS'p_ratio acary (time)'
p2320
g7
(g11
S'\x00\x00\x00\x00\x00\x00\xf0?'
p2321
tp2322
Rp2323
sg17
g18
sa(dp2324
g3
g2318
sS'acary (time)'
p2325
F0.2705500000001848
sS'p_ratio acary (time)'
p2326
g7
(g11
S'o|W78W\xf9?'
p2327
tp2328
Rp2329
sg17
g25
sa(dp2330
g3
g2318
sS'acary (time)'
p2331
F0.24994100000003527
sS'p_ratio acary (time)'
p2332
g7
(g11
S'p\xeb\\$\x0fi\xf7?'
p2333
tp2334
Rp2335
sg17
g32
sa(dp2336
g3
g2318
sS'acary (time)'
p2337
F0.4871549999998024
sS'p_ratio acary (time)'
p2338
g7
(g11
S'\xcf\r\xc6\xcey\xd0\x06@'
p2339
tp2340
Rp2341
sg17
g39
sa(dp2342
g3
g2318
sS'acary (time)'
p2343
F105.20447599999989
sS'p_ratio acary (time)'
p2344
g7
(g11
S'\xcb\x1e\x9b\xf5\xea>\x83@'
p2345
tp2346
Rp2347
sg17
g46
sa(dp2348
g3
g2318
sS'acary (time)'
p2349
F0.43013500000051863
sS'p_ratio acary (time)'
p2350
g7
(g11
S'"\x8a\x1a\xb3\xdd$\x04@'
p2351
tp2352
Rp2353
sg17
g53
sa(dp2354
g3
g2318
sS'acary (time)'
p2355
F1.484907000000021
sS'p_ratio acary (time)'
p2356
g7
(g11
S'\xe6\xfc\xe9:\x9eb!@'
p2357
tp2358
Rp2359
sg17
g60
sa(dp2360
g3
g2318
sS'acary (time)'
p2361
F86.54897099999926
sS'p_ratio acary (time)'
p2362
g7
(g11
S'~\xba\xf3+~\xaa\x7f@'
p2363
tp2364
Rp2365
sg17
g67
sa(dp2366
g3
g2318
sS'acary (time)'
p2367
F86.83340800000042
sS'p_ratio acary (time)'
p2368
g7
(g11
S'\xc4\x0eP_"\xc5\x7f@'
p2369
tp2370
Rp2371
sg17
g74
sa(dp2372
g3
g2318
sS'acary (time)'
p2373
F0.34180300000116404
sS'p_ratio acary (time)'
p2374
g7
(g11
S'\x1f\xe2\xb0\xb8\xdb\x01\x00@'
p2375
tp2376
Rp2377
sg17
g81
sa(dp2378
g3
g2318
sS'acary (time)'
p2379
F0.1986030000007304
sS'p_ratio acary (time)'
p2380
g7
(g11
S'\x89\xd0\x0c\xfb\x14\x9a\xf2?'
p2381
tp2382
Rp2383
sg17
g88
sa(dp2384
g3
g2318
sS'acary (time)'
p2385
F1.0967139999993378
sS'p_ratio acary (time)'
p2386
g7
(g11
S'!\xab\xf1/9\xae\x19@'
p2387
tp2388
Rp2389
sg17
g95
saa(lp2390
(dp2391
g3
S'Box_Stacks-i1000-548-46.hdf5'
p2392
sS'acary (time)'
p2393
F0.17030200000044715
sS'p_ratio acary (time)'
p2394
g7
(g11
S'\x00\x00\x00\x00\x00\x00\xf0?'
p2395
tp2396
Rp2397
sg17
g18
sa(dp2398
g3
g2392
sS'acary (time)'
p2399
F0.2707009999994625
sS'p_ratio acary (time)'
p2400
g7
(g11
S'2\xb8\xfdP\xbcn\xf9?'
p2401
tp2402
Rp2403
sg17
g25
sa(dp2404
g3
g2392
sS'acary (time)'
p2405
F0.24999100000059116
sS'p_ratio acary (time)'
p2406
g7
(g11
S'\x8e\xa8\x02\x9d\xa1|\xf7?'
p2407
tp2408
Rp2409
sg17
g32
sa(dp2410
g3
g2392
sS'acary (time)'
p2411
F0.48909400000047754
sS'p_ratio acary (time)'
p2412
g7
(g11
S'A\x192\x0e\xb2\xf9\x06@'
p2413
tp2414
Rp2415
sg17
g39
sa(dp2416
g3
g2392
sS'acary (time)'
p2417
F105.25700499999948
sS'p_ratio acary (time)'
p2418
g7
(g11
S'\xb3f\xc6\xb1|P\x83@'
p2419
tp2420
Rp2421
sg17
g46
sa(dp2422
g3
g2392
sS'acary (time)'
p2423
F0.427004000001034
sS'p_ratio acary (time)'
p2424
g7
(g11
S'\x03\x98\xdc$\x05\x0f\x04@'
p2425
tp2426
Rp2427
sg17
g53
sa(dp2428
g3
g2392
sS'acary (time)'
p2429
F1.482600999999704
sS'p_ratio acary (time)'
p2430
g7
(g11
S'(I\xd4\xb9Si!@'
p2431
tp2432
Rp2433
sg17
g60
sa(dp2434
g3
g2392
sS'acary (time)'
p2435
F86.41819300000134
sS'p_ratio acary (time)'
p2436
g7
(g11
S'\x91L\x1f\xc1\r\xb7\x7f@'
p2437
tp2438
Rp2439
sg17
g67
sa(dp2440
g3
g2392
sS'acary (time)'
p2441
F85.58822299999883
sS'p_ratio acary (time)'
p2442
g7
(g11
S'\xc5\xcfC\xd2\x13i\x7f@'
p2443
tp2444
Rp2445
sg17
g74
sa(dp2446
g3
g2392
sS'acary (time)'
p2447
F0.3439330000001064
sS'p_ratio acary (time)'
p2448
g7
(g11
S'\x8b\xa6\x1a\x96\x08(\x00@'
p2449
tp2450
Rp2451
sg17
g81
sa(dp2452
g3
g2392
sS'acary (time)'
p2453
F0.19955599999957485
sS'p_ratio acary (time)'
p2454
g7
(g11
S'V\x85\xe2q\x99\xbf\xf2?'
p2455
tp2456
Rp2457
sg17
g88
sa(dp2458
g3
g2392
sS'acary (time)'
p2459
F1.094853000000512
sS'p_ratio acary (time)'
p2460
g7
(g11
S'*\x14\xba5/\xb7\x19@'
p2461
tp2462
Rp2463
sg17
g95
saa(lp2464
(dp2465
g3
S'Box_Stacks-i1000-548-47.hdf5'
p2466
sS'acary (time)'
p2467
F0.1706319999993866
sS'p_ratio acary (time)'
p2468
g7
(g11
S'\x00\x00\x00\x00\x00\x00\xf0?'
p2469
tp2470
Rp2471
sg17
g18
sa(dp2472
g3
g2466
sS'acary (time)'
p2473
F0.27016900000126043
sS'p_ratio acary (time)'
p2474
g7
(g11
S'\xf46O\x93_U\xf9?'
p2475
tp2476
Rp2477
sg17
g25
sa(dp2478
g3
g2466
sS'acary (time)'
p2479
F0.24980800000048475
sS'p_ratio acary (time)'
p2480
g7
(g11
S'\x8b\xc0\xfc,\x9cl\xf7?'
p2481
tp2482
Rp2483
sg17
g32
sa(dp2484
g3
g2466
sS'acary (time)'
p2485
F0.48855399999956717
sS'p_ratio acary (time)'
p2486
g7
(g11
S'*J\xc1\xce\xd6\xe7\x06@'
p2487
tp2488
Rp2489
sg17
g39
sa(dp2490
g3
g2466
sS'acary (time)'
p2491
F105.34541800000079
sS'p_ratio acary (time)'
p2492
g7
(g11
S'%E\xfe\xd8\x11K\x83@'
p2493
tp2494
Rp2495
sg17
g46
sa(dp2496
g3
g2466
sS'acary (time)'
p2497
F0.4272819999987405
sS'p_ratio acary (time)'
p2498
g7
(g11
S'\xcabm\xfbl\x08\x04@'
p2499
tp2500
Rp2501
sg17
g53
sa(dp2502
g3
g2466
sS'acary (time)'
p2503
F1.486667999999554
sS'p_ratio acary (time)'
p2504
g7
(g11
S'\xa6\xcf\xc7\xfd\xe8l!@'
p2505
tp2506
Rp2507
sg17
g60
sa(dp2508
g3
g2466
sS'acary (time)'
p2509
F86.21408900000097
sS'p_ratio acary (time)'
p2510
g7
(g11
S'wV\xdc\x836\x94\x7f@'
p2511
tp2512
Rp2513
sg17
g67
sa(dp2514
g3
g2466
sS'acary (time)'
p2515
F86.5945670000001
sS'p_ratio acary (time)'
p2516
g7
(g11
S'\xac.\xa0\xd7\xe3\xb7\x7f@'
p2517
tp2518
Rp2519
sg17
g74
sa(dp2520
g3
g2466
sS'acary (time)'
p2521
F0.3427429999992455
sS'p_ratio acary (time)'
p2522
g7
(g11
S'Q\xdd<i\xc0\x11\x00@'
p2523
tp2524
Rp2525
sg17
g81
sa(dp2526
g3
g2466
sS'acary (time)'
p2527
F0.1990139999998064
sS'p_ratio acary (time)'
p2528
g7
(g11
S'#x\x99oN\xa9\xf2?'
p2529
tp2530
Rp2531
sg17
g88
sa(dp2532
g3
g2466
sS'acary (time)'
p2533
F1.0960180000001856
sS'p_ratio acary (time)'
p2534
g7
(g11
S'S!\xd3\xacq\xb1\x19@'
p2535
tp2536
Rp2537
sg17
g95
saa(lp2538
(dp2539
g3
S'Box_Stacks-i1000-548-48.hdf5'
p2540
sS'acary (time)'
p2541
F0.17004300000007788
sS'p_ratio acary (time)'
p2542
g7
(g11
S'\x00\x00\x00\x00\x00\x00\xf0?'
p2543
tp2544
Rp2545
sg17
g18
sa(dp2546
g3
g2540
sS'acary (time)'
p2547
F0.2702389999994921
sS'p_ratio acary (time)'
p2548
g7
(g11
S'\xd1\x88P\x13\x86m\xf9?'
p2549
tp2550
Rp2551
sg17
g25
sa(dp2552
g3
g2540
sS'acary (time)'
p2553
F0.24993200000062643
sS'p_ratio acary (time)'
p2554
g7
(g11
S'\xd0\xfb0C^\x84\xf7?'
p2555
tp2556
Rp2557
sg17
g32
sa(dp2558
g3
g2540
sS'acary (time)'
p2559
F0.48952099999951315
sS'p_ratio acary (time)'
p2560
g7
(g11
S'\x0e\x9b\xb3\x07\xcc\x07\x07@'
p2561
tp2562
Rp2563
sg17
g39
sa(dp2564
g3
g2540
sS'acary (time)'
p2565
F105.31646700000056
sS'p_ratio acary (time)'
p2566
g7
(g11
S'\x13J\x8a\xd5\xd0Z\x83@'
p2567
tp2568
Rp2569
sg17
g46
sa(dp2570
g3
g2540
sS'acary (time)'
p2571
F0.4276350000000093
sS'p_ratio acary (time)'
p2572
g7
(g11
S'\x8c\x1d1\xf5p\x1e\x04@'
p2573
tp2574
Rp2575
sg17
g53
sa(dp2576
g3
g2540
sS'acary (time)'
p2577
F1.4880109999994602
sS'p_ratio acary (time)'
p2578
g7
(g11
S'\x8d\x8a\x18\xdeg\x80!@'
p2579
tp2580
Rp2581
sg17
g60
sa(dp2582
g3
g2540
sS'acary (time)'
p2583
F86.41692700000021
sS'p_ratio acary (time)'
p2584
g7
(g11
S'\xe55\x86\x14M\xc3\x7f@'
p2585
tp2586
Rp2587
sg17
g67
sa(dp2588
g3
g2540
sS'acary (time)'
p2589
F87.23734700000023
sS'p_ratio acary (time)'
p2590
g7
(g11
S'\xb2\x12Q\xb0?\x08\x80@'
p2591
tp2592
Rp2593
sg17
g74
sa(dp2594
g3
g2540
sS'acary (time)'
p2595
F0.3458200000004581
sS'p_ratio acary (time)'
p2596
g7
(g11
S'h\xa97t\x0fE\x00@'
p2597
tp2598
Rp2599
sg17
g81
sa(dp2600
g3
g2540
sS'acary (time)'
p2601
F0.19940999999926134
sS'p_ratio acary (time)'
p2602
g7
(g11
S'\x07-:\x9dd\xc3\xf2?'
p2603
tp2604
Rp2605
sg17
g88
sa(dp2606
g3
g2540
sS'acary (time)'
p2607
F1.0956519999999728
sS'p_ratio acary (time)'
p2608
g7
(g11
S'\xd5H2\xec\x05\xc6\x19@'
p2609
tp2610
Rp2611
sg17
g95
saa(lp2612
(dp2613
g3
S'Box_Stacks-i1000-548-49.hdf5'
p2614
sS'acary (time)'
p2615
F0.17029600000023493
sS'p_ratio acary (time)'
p2616
g7
(g11
S'\x00\x00\x00\x00\x00\x00\xf0?'
p2617
tp2618
Rp2619
sg17
g18
sa(dp2620
g3
g2614
sS'acary (time)'
p2621
F0.2709370000011404
sS'p_ratio acary (time)'
p2622
g7
(g11
S'\xc5\xc7:.\xa4t\xf9?'
p2623
tp2624
Rp2625
sg17
g25
sa(dp2626
g3
g2614
sS'acary (time)'
p2627
F0.2504580000004353
sS'p_ratio acary (time)'
p2628
g7
(g11
S'\x8d/\x87V\x13\x88\xf7?'
p2629
tp2630
Rp2631
sg17
g32
sa(dp2632
g3
g2614
sS'acary (time)'
p2633
F0.48970700000063516
sS'p_ratio acary (time)'
p2634
g7
(g11
S'\xac\xc8<WF\x01\x07@'
p2635
tp2636
Rp2637
sg17
g39
sa(dp2638
g3
g2614
sS'acary (time)'
p2639
F105.22440000000097
sS'p_ratio acary (time)'
p2640
g7
(g11
S'\xe6}\x18.!O\x83@'
p2641
tp2642
Rp2643
sg17
g46
sa(dp2644
g3
g2614
sS'acary (time)'
p2645
F0.42702099999951315
sS'p_ratio acary (time)'
p2646
g7
(g11
S'\x94|$\xccg\x0f\x04@'
p2647
tp2648
Rp2649
sg17
g53
sa(dp2650
g3
g2614
sS'acary (time)'
p2651
F1.483979000000545
sS'p_ratio acary (time)'
p2652
g7
(g11
S'\xcd\xd6b\x89\xa0m!@'
p2653
tp2654
Rp2655
sg17
g60
sa(dp2656
g3
g2614
sS'acary (time)'
p2657
F86.33014299999923
sS'p_ratio acary (time)'
p2658
g7
(g11
S'\xb9:q/\x11\xaf\x7f@'
p2659
tp2660
Rp2661
sg17
g67
sa(dp2662
g3
g2614
sS'acary (time)'
p2663
F86.86442999999963
sS'p_ratio acary (time)'
p2664
g7
(g11
S'xm\xd0\xfbC\xe1\x7f@'
p2665
tp2666
Rp2667
sg17
g74
sa(dp2668
g3
g2614
sS'acary (time)'
p2669
F0.34557000000131666
sS'p_ratio acary (time)'
p2670
g7
(g11
S'\x002\x96\xb3\xdd;\x00@'
p2671
tp2672
Rp2673
sg17
g81
sa(dp2674
g3
g2614
sS'acary (time)'
p2675
F0.19973400000162655
sS'p_ratio acary (time)'
p2676
g7
(g11
S'|\xebh\xbf\x0c\xc4\xf2?'
p2677
tp2678
Rp2679
sg17
g88
sa(dp2680
g3
g2614
sS'acary (time)'
p2681
F1.0941340000008495
sS'p_ratio acary (time)'
p2682
g7
(g11
S'\x02j\xb8\xcc\x17\xb3\x19@'
p2683
tp2684
Rp2685
sg17
g95
saa(lp2686
(dp2687
g3
S'Box_Stacks-i1000-548-50.hdf5'
p2688
sS'acary (time)'
p2689
F0.17072600000028615
sS'p_ratio acary (time)'
p2690
g7
(g11
S'\x00\x00\x00\x00\x00\x00\xf0?'
p2691
tp2692
Rp2693
sg17
g18
sa(dp2694
g3
g2688
sS'acary (time)'
p2695
F0.2716549999986455
sS'p_ratio acary (time)'
p2696
g7
(g11
S'H\xce=Dtu\xf9?'
p2697
tp2698
Rp2699
sg17
g25
sa(dp2700
g3
g2688
sS'acary (time)'
p2701
F0.25241600000117614
sS'p_ratio acary (time)'
p2702
g7
(g11
S'\xc2MI\xee\xe0\xa7\xf7?'
p2703
tp2704
Rp2705
sg17
g32
sa(dp2706
g3
g2688
sS'acary (time)'
p2707
F0.4878840000001219
sS'p_ratio acary (time)'
p2708
g7
(g11
S'He\xdb\xc4\x92\xdc\x06@'
p2709
tp2710
Rp2711
sg17
g39
sa(dp2712
g3
g2688
sS'acary (time)'
p2713
F104.96799000000101
sS'p_ratio acary (time)'
p2714
g7
(g11
S'NHm\x1e\xaa6\x83@'
p2715
tp2716
Rp2717
sg17
g46
sa(dp2718
g3
g2688
sS'acary (time)'
p2719
F0.42718299999978626
sS'p_ratio acary (time)'
p2720
g7
(g11
S'Jfe\x1aj\x04\x04@'
p2721
tp2722
Rp2723
sg17
g53
sa(dp2724
g3
g2688
sS'acary (time)'
p2725
F1.4871430000002874
sS'p_ratio acary (time)'
p2726
g7
(g11
S'\xe2i\x12\xe5\xe0k!@'
p2727
tp2728
Rp2729
sg17
g60
sa(dp2730
g3
g2688
sS'acary (time)'
p2731
F86.52058600000055
sS'p_ratio acary (time)'
p2732
g7
(g11
S'\x14\x84\xa3h|\xac\x7f@'
p2733
tp2734
Rp2735
sg17
g67
sa(dp2736
g3
g2688
sS'acary (time)'
p2737
F87.35943600000064
sS'p_ratio acary (time)'
p2738
g7
(g11
S'\xc0\xb9\xe0\xcf\x19\xfb\x7f@'
p2739
tp2740
Rp2741
sg17
g74
sa(dp2742
g3
g2688
sS'acary (time)'
p2743
F0.3418439999986731
sS'p_ratio acary (time)'
p2744
g7
(g11
S'h-4\xce\xb3\x04\x00@'
p2745
tp2746
Rp2747
sg17
g81
sa(dp2748
g3
g2688
sS'acary (time)'
p2749
F0.1993769999990036
sS'p_ratio acary (time)'
p2750
g7
(g11
S'"\xdb\x14\x91b\xaf\xf2?'
p2751
tp2752
Rp2753
sg17
g88
sa(dp2754
g3
g2688
sS'acary (time)'
p2755
F1.095937000000049
sS'p_ratio acary (time)'
p2756
g7
(g11
S'G\xaf|4V\xad\x19@'
p2757
tp2758
Rp2759
sg17
g95
saa(lp2760
(dp2761
g3
S'Box_Stacks-i1000-548-51.hdf5'
p2762
sS'acary (time)'
p2763
F0.16989900000044145
sS'p_ratio acary (time)'
p2764
g7
(g11
S'\x00\x00\x00\x00\x00\x00\xf0?'
p2765
tp2766
Rp2767
sg17
g18
sa(dp2768
g3
g2762
sS'acary (time)'
p2769
F0.27031800000077055
sS'p_ratio acary (time)'
p2770
g7
(g11
S'\x91\xad\x05\x0e\xf2t\xf9?'
p2771
tp2772
Rp2773
sg17
g25
sa(dp2774
g3
g2762
sS'acary (time)'
p2775
F0.2495020000005752
sS'p_ratio acary (time)'
p2776
g7
(g11
S'\xce\xe25\xae\x1a\x7f\xf7?'
p2777
tp2778
Rp2779
sg17
g32
sa(dp2780
g3
g2762
sS'acary (time)'
p2781
F0.48834100000021863
sS'p_ratio acary (time)'
p2782
g7
(g11
S'\x8al\xfb\xef\x91\xfe\x06@'
p2783
tp2784
Rp2785
sg17
g39
sa(dp2786
g3
g2762
sS'acary (time)'
p2787
F104.29855299999872
sS'p_ratio acary (time)'
p2788
g7
(g11
S'\xe5\xac\x15\xc0\x15/\x83@'
p2789
tp2790
Rp2791
sg17
g46
sa(dp2792
g3
g2762
sS'acary (time)'
p2793
F0.42539600000054634
sS'p_ratio acary (time)'
p2794
g7
(g11
S'\xca\x9c\x861\xd1\x07\x04@'
p2795
tp2796
Rp2797
sg17
g53
sa(dp2798
g3
g2762
sS'acary (time)'
p2799
F1.4849539999995613
sS'p_ratio acary (time)'
p2800
g7
(g11
S'\x99\xe9\xb1\x9f\xfdz!@'
p2801
tp2802
Rp2803
sg17
g60
sa(dp2804
g3
g2762
sS'acary (time)'
p2805
F86.87152099999912
sS'p_ratio acary (time)'
p2806
g7
(g11
S'\xeaC\xff\xed\x00\xf5\x7f@'
p2807
tp2808
Rp2809
sg17
g67
sa(dp2810
g3
g2762
sS'acary (time)'
p2811
F86.55135800000062
sS'p_ratio acary (time)'
p2812
g7
(g11
S'\r\x96\x85L\xda\xd6\x7f@'
p2813
tp2814
Rp2815
sg17
g74
sa(dp2816
g3
g2762
sS'acary (time)'
p2817
F0.3417799999988347
sS'p_ratio acary (time)'
p2818
g7
(g11
S'\xfbA\x0b7\xe4\x17\x00@'
p2819
tp2820
Rp2821
sg17
g81
sa(dp2822
g3
g2762
sS'acary (time)'
p2823
F0.20004900000094494
sS'p_ratio acary (time)'
p2824
g7
(g11
S'h\xe9\x18\x97\xde\xd6\xf2?'
p2825
tp2826
Rp2827
sg17
g88
sa(dp2828
g3
g2762
sS'acary (time)'
p2829
F1.0951309999982186
sS'p_ratio acary (time)'
p2830
g7
(g11
S'5\x16\xca\xa9y\xc8\x19@'
p2831
tp2832
Rp2833
sg17
g95
saa(lp2834
(dp2835
g3
S'Box_Stacks-i1000-548-52.hdf5'
p2836
sS'acary (time)'
p2837
F0.17006099999889557
sS'p_ratio acary (time)'
p2838
g7
(g11
S'\x00\x00\x00\x00\x00\x00\xf0?'
p2839
tp2840
Rp2841
sg17
g18
sa(dp2842
g3
g2836
sS'acary (time)'
p2843
F0.2689849999987928
sS'p_ratio acary (time)'
p2844
g7
(g11
S'\x98\x8f@\xad\xa1N\xf9?'
p2845
tp2846
Rp2847
sg17
g25
sa(dp2848
g3
g2836
sS'acary (time)'
p2849
F0.2499580000003334
sS'p_ratio acary (time)'
p2850
g7
(g11
S'LsPr[\x84\xf7?'
p2851
tp2852
Rp2853
sg17
g32
sa(dp2854
g3
g2836
sS'acary (time)'
p2855
F0.48695600000064587
sS'p_ratio acary (time)'
p2856
g7
(g11
S'I<\x8e\x88H\xe8\x06@'
p2857
tp2858
Rp2859
sg17
g39
sa(dp2860
g3
g2836
sS'acary (time)'
p2861
F104.18315199999961
sS'p_ratio acary (time)'
p2862
g7
(g11
S'\xac\xe7\xcc\\\xfa$\x83@'
p2863
tp2864
Rp2865
sg17
g46
sa(dp2866
g3
g2836
sS'acary (time)'
p2867
F0.42603799999960756
sS'p_ratio acary (time)'
p2868
g7
(g11
S'\xe0,\xb1\xf1\xa9\n\x04@'
p2869
tp2870
Rp2871
sg17
g53
sa(dp2872
g3
g2836
sS'acary (time)'
p2873
F1.486034000001382
sS'p_ratio acary (time)'
p2874
g7
(g11
S'\x90B\xe7\xb8\xfay!@'
p2875
tp2876
Rp2877
sg17
g60
sa(dp2878
g3
g2836
sS'acary (time)'
p2879
F86.54858299999978
sS'p_ratio acary (time)'
p2880
g7
(g11
S'`m\x1f\xc0\xd3\xce\x7f@'
p2881
tp2882
Rp2883
sg17
g67
sa(dp2884
g3
g2836
sS'acary (time)'
p2885
F87.03955300000052
sS'p_ratio acary (time)'
p2886
g7
(g11
S'X\xdf\t\xff\x04\xfd\x7f@'
p2887
tp2888
Rp2889
sg17
g74
sa(dp2890
g3
g2836
sS'acary (time)'
p2891
F0.3421650000000227
sS'p_ratio acary (time)'
p2892
g7
(g11
S'\xf3\xc6\xb7r\x9a\x18\x00@'
p2893
tp2894
Rp2895
sg17
g81
sa(dp2896
g3
g2836
sS'acary (time)'
p2897
F0.20027099999970233
sS'p_ratio acary (time)'
p2898
g7
(g11
S'y_\xe7H\x9f\xd7\xf2?'
p2899
tp2900
Rp2901
sg17
g88
sa(dp2902
g3
g2836
sS'acary (time)'
p2903
F1.0941160000002128
sS'p_ratio acary (time)'
p2904
g7
(g11
S'\xaf-iq\x13\xbc\x19@'
p2905
tp2906
Rp2907
sg17
g95
saa(lp2908
(dp2909
g3
S'Box_Stacks-i1000-548-53.hdf5'
p2910
sS'acary (time)'
p2911
F0.17020200000115437
sS'p_ratio acary (time)'
p2912
g7
(g11
S'\x00\x00\x00\x00\x00\x00\xf0?'
p2913
tp2914
Rp2915
sg17
g18
sa(dp2916
g3
g2910
sS'acary (time)'
p2917
F0.2709930000000895
sS'p_ratio acary (time)'
p2918
g7
(g11
S'\x90c\xf2\x89\x96y\xf9?'
p2919
tp2920
Rp2921
sg17
g25
sa(dp2922
g3
g2910
sS'acary (time)'
p2923
F0.24999899999966146
sS'p_ratio acary (time)'
p2924
g7
(g11
S'\x15\x8a\xa6A[\x80\xf7?'
p2925
tp2926
Rp2927
sg17
g32
sa(dp2928
g3
g2910
sS'acary (time)'
p2929
F0.4884990000009566
sS'p_ratio acary (time)'
p2930
g7
(g11
S'\x91\xe7c\xe3\xfd\xf5\x06@'
p2931
tp2932
Rp2933
sg17
g39
sa(dp2934
g3
g2910
sS'acary (time)'
p2935
F104.45849400000043
sS'p_ratio acary (time)'
p2936
g7
(g11
S'"\xe8\xa9\x19\xdc-\x83@'
p2937
tp2938
Rp2939
sg17
g46
sa(dp2940
g3
g2910
sS'acary (time)'
p2941
F0.42569300000104704
sS'p_ratio acary (time)'
p2942
g7
(g11
S'\x8f*\xdb\x1cC\x02\x04@'
p2943
tp2944
Rp2945
sg17
g53
sa(dp2946
g3
g2910
sS'acary (time)'
p2947
F1.4879390000005515
sS'p_ratio acary (time)'
p2948
g7
(g11
S'\x92\x1a0\xed\x00|!@'
p2949
tp2950
Rp2951
sg17
g60
sa(dp2952
g3
g2910
sS'acary (time)'
p2953
F86.44646699999976
sS'p_ratio acary (time)'
p2954
g7
(g11
S'}\x93\xa9]{\xbe\x7f@'
p2955
tp2956
Rp2957
sg17
g67
sa(dp2958
g3
g2910
sS'acary (time)'
p2959
F87.01222000000053
sS'p_ratio acary (time)'
p2960
g7
(g11
S'\x89\x10\xd9\x81\xaa\xf3\x7f@'
p2961
tp2962
Rp2963
sg17
g74
sa(dp2964
g3
g2910
sS'acary (time)'
p2965
F0.3420909999986179
sS'p_ratio acary (time)'
p2966
g7
(g11
S')\xef\xd1\x9cL\x14\x00@'
p2967
tp2968
Rp2969
sg17
g81
sa(dp2970
g3
g2910
sS'acary (time)'
p2971
F0.19916799999919022
sS'p_ratio acary (time)'
p2972
g7
(g11
S'E;W\xf8\x14\xb9\xf2?'
p2973
tp2974
Rp2975
sg17
g88
sa(dp2976
g3
g2910
sS'acary (time)'
p2977
F1.094799000000421
sS'p_ratio acary (time)'
p2978
g7
(g11
S'\xe2\x10\x866\xba\xba\x19@'
p2979
tp2980
Rp2981
sg17
g95
saa(lp2982
(dp2983
g3
S'Box_Stacks-i1000-548-54.hdf5'
p2984
sS'acary (time)'
p2985
F0.1700490000002901
sS'p_ratio acary (time)'
p2986
g7
(g11
S'\x00\x00\x00\x00\x00\x00\xf0?'
p2987
tp2988
Rp2989
sg17
g18
sa(dp2990
g3
g2984
sS'acary (time)'
p2991
F0.2711959999996907
sS'p_ratio acary (time)'
p2992
g7
(g11
S'\x9b ,qX\x84\xf9?'
p2993
tp2994
Rp2995
sg17
g25
sa(dp2996
g3
g2984
sS'acary (time)'
p2997
F0.24940999999853375
sS'p_ratio acary (time)'
p2998
g7
(g11
S'\xc2;\xa2\x10\x95w\xf7?'
p2999
tp3000
Rp3001
sg17
g32
sa(dp3002
g3
g2984
sS'acary (time)'
p3003
F0.48764699999992445
sS'p_ratio acary (time)'
p3004
g7
(g11
S'\xa3u\xb5\xef\x04\xf1\x06@'
p3005
tp3006
Rp3007
sg17
g39
sa(dp3008
g3
g2984
sS'acary (time)'
p3009
F104.45931000000019
sS'p_ratio acary (time)'
p3010
g7
(g11
S'~Bc\xd5P2\x83@'
p3011
tp3012
Rp3013
sg17
g46
sa(dp3014
g3
g2984
sS'acary (time)'
p3015
F0.4259060000003956
sS'p_ratio acary (time)'
p3016
g7
(g11
S'_b\x93\xa7o\t\x04@'
p3017
tp3018
Rp3019
sg17
g53
sa(dp3020
g3
g2984
sS'acary (time)'
p3021
F1.483181000001423
sS'p_ratio acary (time)'
p3022
g7
(g11
S'\xdeo\xd3{\xb4q!@'
p3023
tp3024
Rp3025
sg17
g60
sa(dp3026
g3
g2984
sS'acary (time)'
p3027
F86.70046300000104
sS'p_ratio acary (time)'
p3028
g7
(g11
S'\xb7k\xbf6\xb1\xdd\x7f@'
p3029
tp3030
Rp3031
sg17
g67
sa(dp3032
g3
g2984
sS'acary (time)'
p3033
F86.62285200000042
sS'p_ratio acary (time)'
p3034
g7
(g11
S'\xf5\xb1\xbc\xc8c\xd6\x7f@'
p3035
tp3036
Rp3037
sg17
g74
sa(dp3038
g3
g2984
sS'acary (time)'
p3039
F0.34175299999878916
sS'p_ratio acary (time)'
p3040
g7
(g11
S'\xda\xe8\x8a\xa0\xee\x13\x00@'
p3041
tp3042
Rp3043
sg17
g81
sa(dp3044
g3
g2984
sS'acary (time)'
p3045
F0.19943599999896833
sS'p_ratio acary (time)'
p3046
g7
(g11
S'\xff\xc2\x03\x8d\xd9\xc3\xf2?'
p3047
tp3048
Rp3049
sg17
g88
sa(dp3050
g3
g2984
sS'acary (time)'
p3051
F1.0949880000007397
sS'p_ratio acary (time)'
p3052
g7
(g11
S'\t\tV\xb7\xca\xc1\x19@'
p3053
tp3054
Rp3055
sg17
g95
saa(lp3056
(dp3057
g3
S'Box_Stacks-i1000-548-55.hdf5'
p3058
sS'acary (time)'
p3059
F0.1697169999988546
sS'p_ratio acary (time)'
p3060
g7
(g11
S'\x00\x00\x00\x00\x00\x00\xf0?'
p3061
tp3062
Rp3063
sg17
g18
sa(dp3064
g3
g3058
sS'acary (time)'
p3065
F0.2703799999999319
sS'p_ratio acary (time)'
p3066
g7
(g11
S'\xb7\xb5\x182n}\xf9?'
p3067
tp3068
Rp3069
sg17
g25
sa(dp3070
g3
g3058
sS'acary (time)'
p3071
F0.2498089999990043
sS'p_ratio acary (time)'
p3072
g7
(g11
S'\x0e\xb1K\xc1\xf6\x8c\xf7?'
p3073
tp3074
Rp3075
sg17
g32
sa(dp3076
g3
g3058
sS'acary (time)'
p3077
F0.48795699999936915
sS'p_ratio acary (time)'
p3078
g7
(g11
S'\x0fh\xec\xb6?\x00\x07@'
p3079
tp3080
Rp3081
sg17
g39
sa(dp3082
g3
g3058
sS'acary (time)'
p3083
F104.29061700000057
sS'p_ratio acary (time)'
p3084
g7
(g11
S'ZY\xbc6\xfa3\x83@'
p3085
tp3086
Rp3087
sg17
g46
sa(dp3088
g3
g3058
sS'acary (time)'
p3089
F0.426831000000675
sS'p_ratio acary (time)'
p3090
g7
(g11
S'\x9a\xc2n\xe8\xa1\x1e\x04@'
p3091
tp3092
Rp3093
sg17
g53
sa(dp3094
g3
g3058
sS'acary (time)'
p3095
F1.4867360000007466
sS'p_ratio acary (time)'
p3096
g7
(g11
S'\xe5\xc6\xc2]*\x85!@'
p3097
tp3098
Rp3099
sg17
g60
sa(dp3100
g3
g3058
sS'acary (time)'
p3101
F86.71678299999985
sS'p_ratio acary (time)'
p3102
g7
(g11
S'\xcad:Y0\xef\x7f@'
p3103
tp3104
Rp3105
sg17
g67
sa(dp3106
g3
g3058
sS'acary (time)'
p3107
F85.71848800000043
sS'p_ratio acary (time)'
p3108
g7
(g11
S'\xe5\x10\x104\x13\x91\x7f@'
p3109
tp3110
Rp3111
sg17
g74
sa(dp3112
g3
g3058
sS'acary (time)'
p3113
F0.3411999999989348
sS'p_ratio acary (time)'
p3114
g7
(g11
S'\xa0\x12I\x82O\x15\x00@'
p3115
tp3116
Rp3117
sg17
g81
sa(dp3118
g3
g3058
sS'acary (time)'
p3119
F0.19914299999982177
sS'p_ratio acary (time)'
p3120
g7
(g11
S'\xd4\xedE\xfd,\xc6\xf2?'
p3121
tp3122
Rp3123
sg17
g88
sa(dp3124
g3
g3058
sS'acary (time)'
p3125
F1.0948609999995824
sS'p_ratio acary (time)'
p3126
g7
(g11
S'\x88+\xa0\xa2\xec\xcd\x19@'
p3127
tp3128
Rp3129
sg17
g95
saa(lp3130
(dp3131
g3
S'Box_Stacks-i1000-548-56.hdf5'
p3132
sS'acary (time)'
p3133
F0.1696379999993951
sS'p_ratio acary (time)'
p3134
g7
(g11
S'\x00\x00\x00\x00\x00\x00\xf0?'
p3135
tp3136
Rp3137
sg17
g18
sa(dp3138
g3
g3132
sS'acary (time)'
p3139
F0.27036600000064936
sS'p_ratio acary (time)'
p3140
g7
(g11
S'c\xcaO\x9c!\x80\xf9?'
p3141
tp3142
Rp3143
sg17
g25
sa(dp3144
g3
g3132
sS'acary (time)'
p3145
F0.24906100000043807
sS'p_ratio acary (time)'
p3146
g7
(g11
S'\xdb\xfc\x8a\xf0\xb5}\xf7?'
p3147
tp3148
Rp3149
sg17
g32
sa(dp3150
g3
g3132
sS'acary (time)'
p3151
F0.4874120000004041
sS'p_ratio acary (time)'
p3152
g7
(g11
S'4[\x8dOi\xfc\x06@'
p3153
tp3154
Rp3155
sg17
g39
sa(dp3156
g3
g3132
sS'acary (time)'
p3157
F104.41371499999877
sS'p_ratio acary (time)'
p3158
g7
(g11
S'K\xc6Ll\x12<\x83@'
p3159
tp3160
Rp3161
sg17
g46
sa(dp3162
g3
g3132
sS'acary (time)'
p3163
F0.42685399999936635
sS'p_ratio acary (time)'
p3164
g7
(g11
S'=\xe0\x1d\x0bO!\x04@'
p3165
tp3166
Rp3167
sg17
g53
sa(dp3168
g3
g3132
sS'acary (time)'
p3169
F1.4816719999998895
sS'p_ratio acary (time)'
p3170
g7
(g11
S'\x03\xee\x8aX\xf8w!@'
p3171
tp3172
Rp3173
sg17
g60
sa(dp3174
g3
g3132
sS'acary (time)'
p3175
F86.25015399999938
sS'p_ratio acary (time)'
p3176
g7
(g11
S'S\xce\x0c\xfa\xfb\xc6\x7f@'
p3177
tp3178
Rp3179
sg17
g67
sa(dp3180
g3
g3132
sS'acary (time)'
p3181
F86.28473200000008
sS'p_ratio acary (time)'
p3182
g7
(g11
S'&\x0f\x8a\xe1>\xca\x7f@'
p3183
tp3184
Rp3185
sg17
g74
sa(dp3186
g3
g3132
sS'acary (time)'
p3187
F0.3420640000003914
sS'p_ratio acary (time)'
p3188
g7
(g11
S'\xe5\r\xf1\xab\xa8!\x00@'
p3189
tp3190
Rp3191
sg17
g81
sa(dp3192
g3
g3132
sS'acary (time)'
p3193
F0.19906500000070082
sS'p_ratio acary (time)'
p3194
g7
(g11
S'\xfc\xd04\xd6\x87\xc6\xf2?'
p3195
tp3196
Rp3197
sg17
g88
sa(dp3198
g3
g3132
sS'acary (time)'
p3199
F1.0951549999990675
sS'p_ratio acary (time)'
p3200
g7
(g11
S'|\x1a\xa8\x81\xc6\xd2\x19@'
p3201
tp3202
Rp3203
sg17
g95
saa(lp3204
(dp3205
g3
S'Box_Stacks-i1000-548-57.hdf5'
p3206
sS'acary (time)'
p3207
F0.16967900000054215
sS'p_ratio acary (time)'
p3208
g7
(g11
S'\x00\x00\x00\x00\x00\x00\xf0?'
p3209
tp3210
Rp3211
sg17
g18
sa(dp3212
g3
g3206
sS'acary (time)'
p3213
F0.27099900000030175
sS'p_ratio acary (time)'
p3214
g7
(g11
S'p\x13b\x95\xd5\x8d\xf9?'
p3215
tp3216
Rp3217
sg17
g25
sa(dp3218
g3
g3206
sS'acary (time)'
p3219
F0.24922799999876588
sS'p_ratio acary (time)'
p3220
g7
(g11
S'\xde^\xca\xf6I\x80\xf7?'
p3221
tp3222
Rp3223
sg17
g32
sa(dp3224
g3
g3206
sS'acary (time)'
p3225
F0.48836499999924854
sS'p_ratio acary (time)'
p3226
g7
(g11
S'B\x98Q\xf8}\x06\x07@'
p3227
tp3228
Rp3229
sg17
g39
sa(dp3230
g3
g3206
sS'acary (time)'
p3231
F104.44895600000018
sS'p_ratio acary (time)'
p3232
g7
(g11
S'\xac\x9f\xf7.\x8b<\x83@'
p3233
tp3234
Rp3235
sg17
g46
sa(dp3236
g3
g3206
sS'acary (time)'
p3237
F0.42833799999971234
sS'p_ratio acary (time)'
p3238
g7
(g11
S'\x0fV~\xa7\xf91\x04@'
p3239
tp3240
Rp3241
sg17
g53
sa(dp3242
g3
g3206
sS'acary (time)'
p3243
F1.484827000000223
sS'p_ratio acary (time)'
p3244
g7
(g11
S'/\xb1\xe3\xdch\x80!@'
p3245
tp3246
Rp3247
sg17
g60
sa(dp3248
g3
g3206
sS'acary (time)'
p3249
F86.56423199999881
sS'p_ratio acary (time)'
p3250
g7
(g11
S'\n^\xef\x82\xa2\xe2\x7f@'
p3251
tp3252
Rp3253
sg17
g67
sa(dp3254
g3
g3206
sS'acary (time)'
p3255
F86.69701900000109
sS'p_ratio acary (time)'
p3256
g7
(g11
S"\xf3\xa8\x1e\xf3'\xef\x7f@"
p3257
tp3258
Rp3259
sg17
g74
sa(dp3260
g3
g3206
sS'acary (time)'
p3261
F0.3434770000003482
sS'p_ratio acary (time)'
p3262
g7
(g11
S'\xbbZ\xc98\xb71\x00@'
p3263
tp3264
Rp3265
sg17
g81
sa(dp3266
g3
g3206
sS'acary (time)'
p3267
F0.19909499999994296
sS'p_ratio acary (time)'
p3268
g7
(g11
S"'\x1aH\xe8\x17\xc6\xf2?"
p3269
tp3270
Rp3271
sg17
g88
sa(dp3272
g3
g3206
sS'acary (time)'
p3273
F1.0946769999991375
sS'p_ratio acary (time)'
p3274
g7
(g11
S'2\xe8w\x18K\xce\x19@'
p3275
tp3276
Rp3277
sg17
g95
saa(lp3278
(dp3279
g3
S'Box_Stacks-i1000-548-58.hdf5'
p3280
sS'acary (time)'
p3281
F0.16973200000029465
sS'p_ratio acary (time)'
p3282
g7
(g11
S'\x00\x00\x00\x00\x00\x00\xf0?'
p3283
tp3284
Rp3285
sg17
g18
sa(dp3286
g3
g3280
sS'acary (time)'
p3287
F0.27013000000079046
sS'p_ratio acary (time)'
p3288
g7
(g11
S':YN\x1b\xd2v\xf9?'
p3289
tp3290
Rp3291
sg17
g25
sa(dp3292
g3
g3280
sS'acary (time)'
p3293
F0.24993600000016158
sS'p_ratio acary (time)'
p3294
g7
(g11
S'\\w\xf2\xf0~\x8f\xf7?'
p3295
tp3296
Rp3297
sg17
g32
sa(dp3298
g3
g3280
sS'acary (time)'
p3299
F0.4883430000008957
sS'p_ratio acary (time)'
p3300
g7
(g11
S'U4:\xd2b\x04\x07@'
p3301
tp3302
Rp3303
sg17
g39
sa(dp3304
g3
g3280
sS'acary (time)'
p3305
F104.263699000001
sS'p_ratio acary (time)'
p3306
g7
(g11
S')\x05Q3F2\x83@'
p3307
tp3308
Rp3309
sg17
g46
sa(dp3310
g3
g3280
sS'acary (time)'
p3311
F0.4264530000000377
sS'p_ratio acary (time)'
p3312
g7
(g11
S'\x91\x08!\xc5\x9d\x19\x04@'
p3313
tp3314
Rp3315
sg17
g53
sa(dp3316
g3
g3280
sS'acary (time)'
p3317
F1.489359000001059
sS'p_ratio acary (time)'
p3318
g7
(g11
S';z\x8es\xae\x8c!@'
p3319
tp3320
Rp3321
sg17
g60
sa(dp3322
g3
g3280
sS'acary (time)'
p3323
F86.24466699999903
sS'p_ratio acary (time)'
p3324
g7
(g11
S'V>\xe36\xf6\xc1\x7f@'
p3325
tp3326
Rp3327
sg17
g67
sa(dp3328
g3
g3280
sS'acary (time)'
p3329
F86.13924299999962
sS'p_ratio acary (time)'
p3330
g7
(g11
S'a\xab\xfd\x1a\x06\xb8\x7f@'
p3331
tp3332
Rp3333
sg17
g74
sa(dp3334
g3
g3280
sS'acary (time)'
p3335
F0.3419499999999971
sS'p_ratio acary (time)'
p3336
g7
(g11
S'\x07\xa1\xf9\x0b\xff\x1d\x00@'
p3337
tp3338
Rp3339
sg17
g81
sa(dp3340
g3
g3280
sS'acary (time)'
p3341
F0.19910800000070594
sS'p_ratio acary (time)'
p3342
g7
(g11
S'\x99\x1e\xde\x07\xe8\xc4\xf2?'
p3343
tp3344
Rp3345
sg17
g88
sa(dp3346
g3
g3280
sS'acary (time)'
p3347
F1.0951770000010583
sS'p_ratio acary (time)'
p3348
g7
(g11
S'\xf0\xa3w;?\xcf\x19@'
p3349
tp3350
Rp3351
sg17
g95
saa(lp3352
(dp3353
g3
S'Box_Stacks-i1000-548-59.hdf5'
p3354
sS'acary (time)'
p3355
F0.16966800000045623
sS'p_ratio acary (time)'
p3356
g7
(g11
S'\x00\x00\x00\x00\x00\x00\xf0?'
p3357
tp3358
Rp3359
sg17
g18
sa(dp3360
g3
g3354
sS'acary (time)'
p3361
F0.27071600000090257
sS'p_ratio acary (time)'
p3362
g7
(g11
S'\xfe\xc3>,m\x87\xf9?'
p3363
tp3364
Rp3365
sg17
g25
sa(dp3366
g3
g3354
sS'acary (time)'
p3367
F0.24999600000046485
sS'p_ratio acary (time)'
p3368
g7
(g11
S'\xb6\x12\xc9.8\x93\xf7?'
p3369
tp3370
Rp3371
sg17
g32
sa(dp3372
g3
g3354
sS'acary (time)'
p3373
F0.48856100000011793
sS'p_ratio acary (time)'
p3374
g7
(g11
S'\xfc\x8b&u=\t\x07@'
p3375
tp3376
Rp3377
sg17
g39
sa(dp3378
g3
g3354
sS'acary (time)'
p3379
F104.54026300000078
sS'p_ratio acary (time)'
p3380
g7
(g11
S'=\xa1\xc6\x0c+A\x83@'
p3381
tp3382
Rp3383
sg17
g46
sa(dp3384
g3
g3354
sS'acary (time)'
p3385
F0.4257159999997384
sS'p_ratio acary (time)'
p3386
g7
(g11
S'\x02P7D\xa9\x12\x04@'
p3387
tp3388
Rp3389
sg17
g53
sa(dp3390
g3
g3354
sS'acary (time)'
p3391
F1.4846959999995306
sS'p_ratio acary (time)'
p3392
g7
(g11
S'\xed\xb4I\x06N\x80!@'
p3393
tp3394
Rp3395
sg17
g60
sa(dp3396
g3
g3354
sS'acary (time)'
p3397
F86.56860099999903
sS'p_ratio acary (time)'
p3398
g7
(g11
S'\x83\xa2\xfbu\x93\xe3\x7f@'
p3399
tp3400
Rp3401
sg17
g67
sa(dp3402
g3
g3354
sS'acary (time)'
p3403
F85.84669199999917
sS'p_ratio acary (time)'
p3404
g7
(g11
S';\xb1?\xaa\x7f\x9f\x7f@'
p3405
tp3406
Rp3407
sg17
g74
sa(dp3408
g3
g3354
sS'acary (time)'
p3409
F0.34183999999913794
sS'p_ratio acary (time)'
p3410
g7
(g11
S'7F\x99\x909\x1e\x00@'
p3411
tp3412
Rp3413
sg17
g81
sa(dp3414
g3
g3354
sS'acary (time)'
p3415
F0.1993480000001
sS'p_ratio acary (time)'
p3416
g7
(g11
S'=\x83\x8cA\x83\xcc\xf2?'
p3417
tp3418
Rp3419
sg17
g88
sa(dp3420
g3
g3354
sS'acary (time)'
p3421
F1.0960610000001907
sS'p_ratio acary (time)'
p3422
g7
(g11
S'c\x8a\xdf\x13\x13\xd7\x19@'
p3423
tp3424
Rp3425
sg17
g95
saa(lp3426
(dp3427
g3
S'Box_Stacks-i1000-548-60.hdf5'
p3428
sS'acary (time)'
p3429
F0.17043800000101328
sS'p_ratio acary (time)'
p3430
g7
(g11
S'\x00\x00\x00\x00\x00\x00\xf0?'
p3431
tp3432
Rp3433
sg17
g18
sa(dp3434
g3
g3428
sS'acary (time)'
p3435
F0.2707909999990079
sS'p_ratio acary (time)'
p3436
g7
(g11
S'<\xee\xd4\x0b\xb4k\xf9?'
p3437
tp3438
Rp3439
sg17
g25
sa(dp3440
g3
g3428
sS'acary (time)'
p3441
F0.24927000000025146
sS'p_ratio acary (time)'
p3442
g7
(g11
S'\x17\xb3\xa8\x9f\x81f\xf7?'
p3443
tp3444
Rp3445
sg17
g32
sa(dp3446
g3
g3428
sS'acary (time)'
p3447
F0.48591599999963364
sS'p_ratio acary (time)'
p3448
g7
(g11
S'8\xbfb\xaa\xd0\xce\x06@'
p3449
tp3450
Rp3451
sg17
g39
sa(dp3452
g3
g3428
sS'acary (time)'
p3453
F104.52031399999942
sS'p_ratio acary (time)'
p3454
g7
(g11
S'\xe6of\x83\xf6)\x83@'
p3455
tp3456
Rp3457
sg17
g46
sa(dp3458
g3
g3428
sS'acary (time)'
p3459
F0.4292199999999866
sS'p_ratio acary (time)'
p3460
g7
(g11
S'\x83:7\xe1\x8c%\x04@'
p3461
tp3462
Rp3463
sg17
g53
sa(dp3464
g3
g3428
sS'acary (time)'
p3465
F1.4829719999997906
sS'p_ratio acary (time)'
p3466
g7
(g11
S'\x14\xcb\x80\x85\xe2f!@'
p3467
tp3468
Rp3469
sg17
g60
sa(dp3470
g3
g3428
sS'acary (time)'
p3471
F86.48905000000013
sS'p_ratio acary (time)'
p3472
g7
(g11
S'q~F\x18:\xb7\x7f@'
p3473
tp3474
Rp3475
sg17
g67
sa(dp3476
g3
g3428
sS'acary (time)'
p3477
F86.23632200000065
sS'p_ratio acary (time)'
p3478
g7
(g11
S'Q\xfc1|\x80\x9f\x7f@'
p3479
tp3480
Rp3481
sg17
g74
sa(dp3482
g3
g3428
sS'acary (time)'
p3483
F0.34219600000142236
sS'p_ratio acary (time)'
p3484
g7
(g11
S'\xfb\xfa\xfbz\xdc\x0f\x00@'
p3485
tp3486
Rp3487
sg17
g81
sa(dp3488
g3
g3428
sS'acary (time)'
p3489
F0.1994909999993979
sS'p_ratio acary (time)'
p3490
g7
(g11
S'"\x0c\xfe\x1d5\xba\xf2?'
p3491
tp3492
Rp3493
sg17
g88
sa(dp3494
g3
g3428
sS'acary (time)'
p3495
F1.095338000000993
sS'p_ratio acary (time)'
p3496
g7
(g11
S'M\xcd\xdee\xd8\xb4\x19@'
p3497
tp3498
Rp3499
sg17
g95
saa(lp3500
(dp3501
g3
S'Box_Stacks-i1000-548-61.hdf5'
p3502
sS'acary (time)'
p3503
F0.16987599999993108
sS'p_ratio acary (time)'
p3504
g7
(g11
S'\x00\x00\x00\x00\x00\x00\xf0?'
p3505
tp3506
Rp3507
sg17
g18
sa(dp3508
g3
g3502
sS'acary (time)'
p3509
F0.27143900000010035
sS'p_ratio acary (time)'
p3510
g7
(g11
S'\x95\xd9\xa0j\xdb\x90\xf9?'
p3511
tp3512
Rp3513
sg17
g25
sa(dp3514
g3
g3502
sS'acary (time)'
p3515
F0.2502710000007937
sS'p_ratio acary (time)'
p3516
g7
(g11
S'4s\xe9\xe4u\x92\xf7?'
p3517
tp3518
Rp3519
sg17
g32
sa(dp3520
g3
g3502
sS'acary (time)'
p3521
F0.48869899999954214
sS'p_ratio acary (time)'
p3522
g7
(g11
S'\x15o6\xdd\xae\x03\x07@'
p3523
tp3524
Rp3525
sg17
g39
sa(dp3526
g3
g3502
sS'acary (time)'
p3527
F104.4937829999999
sS'p_ratio acary (time)'
p3528
g7
(g11
S'\xad\xff\xac\xa2\xf18\x83@'
p3529
tp3530
Rp3531
sg17
g46
sa(dp3532
g3
g3502
sS'acary (time)'
p3533
F0.4264500000008411
sS'p_ratio acary (time)'
p3534
g7
(g11
S'\xcfJ\x89\xe27\x15\x04@'
p3535
tp3536
Rp3537
sg17
g53
sa(dp3538
g3
g3502
sS'acary (time)'
p3539
F1.4864859999997861
sS'p_ratio acary (time)'
p3540
g7
(g11
S'#\xa8#\xc86\x80!@'
p3541
tp3542
Rp3543
sg17
g60
sa(dp3544
g3
g3502
sS'acary (time)'
p3545
F86.45921799999996
sS'p_ratio acary (time)'
p3546
g7
(g11
S'I&\xe0(G\xcf\x7f@'
p3547
tp3548
Rp3549
sg17
g67
sa(dp3550
g3
g3502
sS'acary (time)'
p3551
F85.98131499999909
sS'p_ratio acary (time)'
p3552
g7
(g11
S'\xba\xbc\x7f\x1aD\xa2\x7f@'
p3553
tp3554
Rp3555
sg17
g74
sa(dp3556
g3
g3502
sS'acary (time)'
p3557
F0.34127600000101666
sS'p_ratio acary (time)'
p3558
g7
(g11
S'\xa1\xeb\xbd\x84_\x12\x00@'
p3559
tp3560
Rp3561
sg17
g81
sa(dp3562
g3
g3502
sS'acary (time)'
p3563
F0.19913699999960954
sS'p_ratio acary (time)'
p3564
g7
(g11
S'\xc7M}X\x88\xc1\xf2?'
p3565
tp3566
Rp3567
sg17
g88
sa(dp3568
g3
g3502
sS'acary (time)'
p3569
F1.0961349999997765
sS'p_ratio acary (time)'
p3570
g7
(g11
S'\x83}\xe0\xc2k\xcf\x19@'
p3571
tp3572
Rp3573
sg17
g95
saa(lp3574
(dp3575
g3
S'Box_Stacks-i1000-548-62.hdf5'
p3576
sS'acary (time)'
p3577
F0.1701599999996688
sS'p_ratio acary (time)'
p3578
g7
(g11
S'\x00\x00\x00\x00\x00\x00\xf0?'
p3579
tp3580
Rp3581
sg17
g18
sa(dp3582
g3
g3576
sS'acary (time)'
p3583
F0.2704649999996036
sS'p_ratio acary (time)'
p3584
g7
(g11
S'&\xc4N\xee|n\xf9?'
p3585
tp3586
Rp3587
sg17
g25
sa(dp3588
g3
g3576
sS'acary (time)'
p3589
F0.24903400000039255
sS'p_ratio acary (time)'
p3590
g7
(g11
S'A\xc0/\xcd\x9cj\xf7?'
p3591
tp3592
Rp3593
sg17
g32
sa(dp3594
g3
g3576
sS'acary (time)'
p3595
F0.48740100000031816
sS'p_ratio acary (time)'
p3596
g7
(g11
S'\x9a\xbbm4:\xea\x06@'
p3597
tp3598
Rp3599
sg17
g39
sa(dp3600
g3
g3576
sS'acary (time)'
p3601
F104.60919299999841
sS'p_ratio acary (time)'
p3602
g7
(g11
S'\xbe\xcev\x1d(6\x83@'
p3603
tp3604
Rp3605
sg17
g46
sa(dp3606
g3
g3576
sS'acary (time)'
p3607
F0.4315810000007332
sS'p_ratio acary (time)'
p3608
g7
(g11
S'\x9b\x1e\x11\x92dJ\x04@'
p3609
tp3610
Rp3611
sg17
g53
sa(dp3612
g3
g3576
sS'acary (time)'
p3613
F1.4864370000013878
sS'p_ratio acary (time)'
p3614
g7
(g11
S'\xe3\xc6\x9c\xc8\x96x!@'
p3615
tp3616
Rp3617
sg17
g60
sa(dp3618
g3
g3576
sS'acary (time)'
p3619
F86.07451200000105
sS'p_ratio acary (time)'
p3620
g7
(g11
S'\xd2\x1e\xa4[\x83\x9d\x7f@'
p3621
tp3622
Rp3623
sg17
g67
sa(dp3624
g3
g3576
sS'acary (time)'
p3625
F86.32235300000139
sS'p_ratio acary (time)'
p3626
g7
(g11
S'iS\xd3@\xd1\xb4\x7f@'
p3627
tp3628
Rp3629
sg17
g74
sa(dp3630
g3
g3576
sS'acary (time)'
p3631
F0.3419420000009268
sS'p_ratio acary (time)'
p3632
g7
(g11
S'T\xa0\xe5\x9e\x85\x13\x00@'
p3633
tp3634
Rp3635
sg17
g81
sa(dp3636
g3
g3576
sS'acary (time)'
p3637
F0.19882000000143307
sS'p_ratio acary (time)'
p3638
g7
(g11
S'de\xdfZ\xe3\xb1\xf2?'
p3639
tp3640
Rp3641
sg17
g88
sa(dp3642
g3
g3576
sS'acary (time)'
p3643
F1.0962879999988218
sS'p_ratio acary (time)'
p3644
g7
(g11
S'\x13\x95\x93SP\xc5\x19@'
p3645
tp3646
Rp3647
sg17
g95
saa(lp3648
(dp3649
g3
S'Box_Stacks-i1000-548-63.hdf5'
p3650
sS'acary (time)'
p3651
F0.16979900000114867
sS'p_ratio acary (time)'
p3652
g7
(g11
S'\x00\x00\x00\x00\x00\x00\xf0?'
p3653
tp3654
Rp3655
sg17
g18
sa(dp3656
g3
g3650
sS'acary (time)'
p3657
F0.2713260000000446
sS'p_ratio acary (time)'
p3658
g7
(g11
S'\x0e\xad\xfcc\x19\x91\xf9?'
p3659
tp3660
Rp3661
sg17
g25
sa(dp3662
g3
g3650
sS'acary (time)'
p3663
F0.24981899999875168
sS'p_ratio acary (time)'
p3664
g7
(g11
S'lZ6(K\x8a\xf7?'
p3665
tp3666
Rp3667
sg17
g32
sa(dp3668
g3
g3650
sS'acary (time)'
p3669
F0.48880800000006275
sS'p_ratio acary (time)'
p3670
g7
(g11
S'\xf5\x1c\xccc\xab\x07\x07@'
p3671
tp3672
Rp3673
sg17
g39
sa(dp3674
g3
g3650
sS'acary (time)'
p3675
F104.53396000000066
sS'p_ratio acary (time)'
p3676
g7
(g11
S'9\xe6\x16\x7f\x11=\x83@'
p3677
tp3678
Rp3679
sg17
g46
sa(dp3680
g3
g3650
sS'acary (time)'
p3681
F0.4272710000004736
sS'p_ratio acary (time)'
p3682
g7
(g11
S'\x102\xd8\xbas!\x04@'
p3683
tp3684
Rp3685
sg17
g53
sa(dp3686
g3
g3650
sS'acary (time)'
p3687
F1.4843130000008387
sS'p_ratio acary (time)'
p3688
g7
(g11
S'q\x8d\xb7\x7f\xb1{!@'
p3689
tp3690
Rp3691
sg17
g60
sa(dp3692
g3
g3650
sS'acary (time)'
p3693
F86.4408489999987
sS'p_ratio acary (time)'
p3694
g7
(g11
S'\xd9\x14\xdag=\xd1\x7f@'
p3695
tp3696
Rp3697
sg17
g67
sa(dp3698
g3
g3650
sS'acary (time)'
p3699
F86.63955999999962
sS'p_ratio acary (time)'
p3700
g7
(g11
S'\x0f\xd0\xe3\xd6\xf6\xe3\x7f@'
p3701
tp3702
Rp3703
sg17
g74
sa(dp3704
g3
g3650
sS'acary (time)'
p3705
F0.34202600000025996
sS'p_ratio acary (time)'
p3706
g7
(g11
S'x-&\xeeH\x1d\x00@'
p3707
tp3708
Rp3709
sg17
g81
sa(dp3710
g3
g3650
sS'acary (time)'
p3711
F0.1993899999997666
sS'p_ratio acary (time)'
p3712
g7
(g11
S"'c\xb2!\xd0\xc9\xf2?"
p3713
tp3714
Rp3715
sg17
g88
sa(dp3716
g3
g3650
sS'acary (time)'
p3717
F1.0963119999996707
sS'p_ratio acary (time)'
p3718
g7
(g11
S'\x06[M\x14|\xd3\x19@'
p3719
tp3720
Rp3721
sg17
g95
saa(lp3722
(dp3723
g3
S'Box_Stacks-i1000-548-64.hdf5'
p3724
sS'acary (time)'
p3725
F0.17009200000029523
sS'p_ratio acary (time)'
p3726
g7
(g11
S'\x00\x00\x00\x00\x00\x00\xf0?'
p3727
tp3728
Rp3729
sg17
g18
sa(dp3730
g3
g3724
sS'acary (time)'
p3731
F0.2701919999999518
sS'p_ratio acary (time)'
p3732
g7
(g11
S'\xb5\x92\xeeC\x84j\xf9?'
p3733
tp3734
Rp3735
sg17
g25
sa(dp3736
g3
g3724
sS'acary (time)'
p3737
F0.2499179999995249
sS'p_ratio acary (time)'
p3738
g7
(g11
S'v3\xba\xf6K\x82\xf7?'
p3739
tp3740
Rp3741
sg17
g32
sa(dp3742
g3
g3724
sS'acary (time)'
p3743
F0.4878420000004553
sS'p_ratio acary (time)'
p3744
g7
(g11
S'\xba{"\xe9\xe1\xf1\x06@'
p3745
tp3746
Rp3747
sg17
g39
sa(dp3748
g3
g3724
sS'acary (time)'
p3749
F104.75775299999987
sS'p_ratio acary (time)'
p3750
g7
(g11
S"'\xddx4\x1c?\x83@"
p3751
tp3752
Rp3753
sg17
g46
sa(dp3754
g3
g3724
sS'acary (time)'
p3755
F0.42769700000098965
sS'p_ratio acary (time)'
p3756
g7
(g11
S'\xea\xe7\x96:\xb4\x1d\x04@'
p3757
tp3758
Rp3759
sg17
g53
sa(dp3760
g3
g3724
sS'acary (time)'
p3761
F1.4893929999998363
sS'p_ratio acary (time)'
p3762
g7
(g11
S'\xd9\xd95hF\x83!@'
p3763
tp3764
Rp3765
sg17
g60
sa(dp3766
g3
g3724
sS'acary (time)'
p3767
F86.85228299999835
sS'p_ratio acary (time)'
p3768
g7
(g11
S'M\x9ebA\xe9\xe9\x7f@'
p3769
tp3770
Rp3771
sg17
g67
sa(dp3772
g3
g3724
sS'acary (time)'
p3773
F86.0823820000005
sS'p_ratio acary (time)'
p3774
g7
(g11
S'\x9f\xd7\x1d4}\xa1\x7f@'
p3775
tp3776
Rp3777
sg17
g74
sa(dp3778
g3
g3724
sS'acary (time)'
p3779
F0.3433920000006765
sS'p_ratio acary (time)'
p3780
g7
(g11
S'I\xd6\x8bE\xa0&\x00@'
p3781
tp3782
Rp3783
sg17
g81
sa(dp3784
g3
g3724
sS'acary (time)'
p3785
F0.2002040000006673
sS'p_ratio acary (time)'
p3786
g7
(g11
S'\xb0\xfc\x930!\xd5\xf2?'
p3787
tp3788
Rp3789
sg17
g88
sa(dp3790
g3
g3724
sS'acary (time)'
p3791
F1.0958100000007107
sS'p_ratio acary (time)'
p3792
g7
(g11
S'\x08\xa3a\xd6\x12\xc5\x19@'
p3793
tp3794
Rp3795
sg17
g95
saa(lp3796
(dp3797
g3
S'Box_Stacks-i1000-548-65.hdf5'
p3798
sS'acary (time)'
p3799
F0.1706479999993462
sS'p_ratio acary (time)'
p3800
g7
(g11
S'\x00\x00\x00\x00\x00\x00\xf0?'
p3801
tp3802
Rp3803
sg17
g18
sa(dp3804
g3
g3798
sS'acary (time)'
p3805
F0.2710000000006403
sS'p_ratio acary (time)'
p3806
g7
(g11
S'\xc4:\xc6!\xb6h\xf9?'
p3807
tp3808
Rp3809
sg17
g25
sa(dp3810
g3
g3798
sS'acary (time)'
p3811
F0.25097099999948114
sS'p_ratio acary (time)'
p3812
g7
(g11
S'\xf2\xe6\xb5~\xf6\x87\xf7?'
p3813
tp3814
Rp3815
sg17
g32
sa(dp3816
g3
g3798
sS'acary (time)'
p3817
F0.4903729999987263
sS'p_ratio acary (time)'
p3818
g7
(g11
S'\x04\xa4\xac\xa3\x1e\xfd\x06@'
p3819
tp3820
Rp3821
sg17
g39
sa(dp3822
g3
g3798
sS'acary (time)'
p3823
F104.25877000000037
sS'p_ratio acary (time)'
p3824
g7
(g11
S'\xe0I8\x18\xaa\x17\x83@'
p3825
tp3826
Rp3827
sg17
g46
sa(dp3828
g3
g3798
sS'acary (time)'
p3829
F0.42607499999940046
sS'p_ratio acary (time)'
p3830
g7
(g11
S'\x8aM\xad\x93u\xf9\x03@'
p3831
tp3832
Rp3833
sg17
g53
sa(dp3834
g3
g3798
sS'acary (time)'
p3835
F1.4899370000002818
sS'p_ratio acary (time)'
p3836
g7
(g11
S'\xcb\xa0\xce\xc8Lv!@'
p3837
tp3838
Rp3839
sg17
g60
sa(dp3840
g3
g3798
sS'acary (time)'
p3841
F86.40933200000109
sS'p_ratio acary (time)'
p3842
g7
(g11
S'\x02\xa1;\xd1\xc2\xa5\x7f@'
p3843
tp3844
Rp3845
sg17
g67
sa(dp3846
g3
g3798
sS'acary (time)'
p3847
F85.99963200000093
sS'p_ratio acary (time)'
p3848
g7
(g11
S'&\x9b\x15\xf1X\x7f\x7f@'
p3849
tp3850
Rp3851
sg17
g74
sa(dp3852
g3
g3798
sS'acary (time)'
p3853
F0.3416589999997086
sS'p_ratio acary (time)'
p3854
g7
(g11
S'%E\x0bB[\x04\x00@'
p3855
tp3856
Rp3857
sg17
g81
sa(dp3858
g3
g3798
sS'acary (time)'
p3859
F0.2002520000005461
sS'p_ratio acary (time)'
p3860
g7
(g11
S'\xb3\x1f@\xdf\x92\xc6\xf2?'
p3861
tp3862
Rp3863
sg17
g88
sa(dp3864
g3
g3798
sS'acary (time)'
p3865
F1.0963690000007773
sS'p_ratio acary (time)'
p3866
g7
(g11
S'\x89u\x80\xfe\xee\xb2\x19@'
p3867
tp3868
Rp3869
sg17
g95
saa(lp3870
(dp3871
g3
S'Box_Stacks-i1000-548-66.hdf5'
p3872
sS'acary (time)'
p3873
F0.16995200000019395
sS'p_ratio acary (time)'
p3874
g7
(g11
S'\x00\x00\x00\x00\x00\x00\xf0?'
p3875
tp3876
Rp3877
sg17
g18
sa(dp3878
g3
g3872
sS'acary (time)'
p3879
F0.2755319999996573
sS'p_ratio acary (time)'
p3880
g7
(g11
S'\xf3\xa9\tN\x93\xf0\xf9?'
p3881
tp3882
Rp3883
sg17
g25
sa(dp3884
g3
g3872
sS'acary (time)'
p3885
F0.2493880000001809
sS'p_ratio acary (time)'
p3886
g7
(g11
S'7\xe9\x85\x1b{z\xf7?'
p3887
tp3888
Rp3889
sg17
g32
sa(dp3890
g3
g3872
sS'acary (time)'
p3891
F0.48857500000121945
sS'p_ratio acary (time)'
p3892
g7
(g11
S'V\x05\xa8\xdb\x8d\xff\x06@'
p3893
tp3894
Rp3895
sg17
g39
sa(dp3896
g3
g3872
sS'acary (time)'
p3897
F104.490534999999
sS'p_ratio acary (time)'
p3898
g7
(g11
S'\xfd\x95 &\x976\x83@'
p3899
tp3900
Rp3901
sg17
g46
sa(dp3902
g3
g3872
sS'acary (time)'
p3903
F0.4263460000001942
sS'p_ratio acary (time)'
p3904
g7
(g11
S'\xb7\xc4k}\xaa\x11\x04@'
p3905
tp3906
Rp3907
sg17
g53
sa(dp3908
g3
g3872
sS'acary (time)'
p3909
F1.4880009999997128
sS'p_ratio acary (time)'
p3910
g7
(g11
S'\xdbiiM\xc6\x82!@'
p3911
tp3912
Rp3913
sg17
g60
sa(dp3914
g3
g3872
sS'acary (time)'
p3915
F86.36821600000076
sS'p_ratio acary (time)'
p3916
g7
(g11
S'\xaa\xbe\xa8\xb0\x11\xc3\x7f@'
p3917
tp3918
Rp3919
sg17
g67
sa(dp3920
g3
g3872
sS'acary (time)'
p3921
F86.19952100000046
sS'p_ratio acary (time)'
p3922
g7
(g11
S'\xeb\xab$\xfc/\xb3\x7f@'
p3923
tp3924
Rp3925
sg17
g74
sa(dp3926
g3
g3872
sS'acary (time)'
p3927
F0.3432489999995596
sS'p_ratio acary (time)'
p3928
g7
(g11
S'\x0b\xe2\x0f\rO(\x00@'
p3929
tp3930
Rp3931
sg17
g81
sa(dp3932
g3
g3872
sS'acary (time)'
p3933
F0.20022999999855529
sS'p_ratio acary (time)'
p3934
g7
(g11
S'\xdf\xc2\xd4L\xba\xd9\xf2?'
p3935
tp3936
Rp3937
sg17
g88
sa(dp3938
g3
g3872
sS'acary (time)'
p3939
F1.0965230000001611
sS'p_ratio acary (time)'
p3940
g7
(g11
S'J\x8ff\xd2\xcd\xce\x19@'
p3941
tp3942
Rp3943
sg17
g95
saa(lp3944
(dp3945
g3
S'Box_Stacks-i1000-548-67.hdf5'
p3946
sS'acary (time)'
p3947
F0.16994599999998172
sS'p_ratio acary (time)'
p3948
g7
(g11
S'\x00\x00\x00\x00\x00\x00\xf0?'
p3949
tp3950
Rp3951
sg17
g18
sa(dp3952
g3
g3946
sS'acary (time)'
p3953
F0.27074499999980617
sS'p_ratio acary (time)'
p3954
g7
(g11
S'g-^Fo}\xf9?'
p3955
tp3956
Rp3957
sg17
g25
sa(dp3958
g3
g3946
sS'acary (time)'
p3959
F0.25072200000067824
sS'p_ratio acary (time)'
p3960
g7
(g11
S'J\xfa\x85H\xd8\x9a\xf7?'
p3961
tp3962
Rp3963
sg17
g32
sa(dp3964
g3
g3946
sS'acary (time)'
p3965
F0.48973800000021583
sS'p_ratio acary (time)'
p3966
g7
(g11
S'\xae]\x06\xf5\xc6\r\x07@'
p3967
tp3968
Rp3969
sg17
g39
sa(dp3970
g3
g3946
sS'acary (time)'
p3971
F104.62029699999948
sS'p_ratio acary (time)'
p3972
g7
(g11
S'\x06\xff\xe3Y\xdf<\x83@'
p3973
tp3974
Rp3975
sg17
g46
sa(dp3976
g3
g3946
sS'acary (time)'
p3977
F0.42740600000070117
sS'p_ratio acary (time)'
p3978
g7
(g11
S'\xa1\xc4\xba\r\x9f\x1e\x04@'
p3979
tp3980
Rp3981
sg17
g53
sa(dp3982
g3
g3946
sS'acary (time)'
p3983
F1.4889679999996588
sS'p_ratio acary (time)'
p3984
g7
(g11
S'E\x99\xac\x9f\xd8\x85!@'
p3985
tp3986
Rp3987
sg17
g60
sa(dp3988
g3
g3946
sS'acary (time)'
p3989
F86.5227270000014
sS'p_ratio acary (time)'
p3990
g7
(g11
S'KJM+\xe7\xd1\x7f@'
p3991
tp3992
Rp3993
sg17
g67
sa(dp3994
g3
g3946
sS'acary (time)'
p3995
F87.68970000000081
sS'p_ratio acary (time)'
p3996
g7
(g11
S'\x1c\xce\xdf\xa4\xe2\x1f\x80@'
p3997
tp3998
Rp3999
sg17
g74
sa(dp4000
g3
g3946
sS'acary (time)'
p4001
F0.3453430000008666
sS'p_ratio acary (time)'
p4002
g7
(g11
S'\x0b3s{\xb0A\x00@'
p4003
tp4004
Rp4005
sg17
g81
sa(dp4006
g3
g3946
sS'acary (time)'
p4007
F0.20067800000106217
sS'p_ratio acary (time)'
p4008
g7
(g11
S'\xc3\xa9\x9d\x19\xb2\xe4\xf2?'
p4009
tp4010
Rp4011
sg17
g88
sa(dp4012
g3
g3946
sS'acary (time)'
p4013
F1.0945620000002236
sS'p_ratio acary (time)'
p4014
g7
(g11
S'\xbd\x81\x91\xaa8\xc3\x19@'
p4015
tp4016
Rp4017
sg17
g95
saa(lp4018
(dp4019
g3
S'Box_Stacks-i1000-548-68.hdf5'
p4020
sS'acary (time)'
p4021
F0.17054099999950267
sS'p_ratio acary (time)'
p4022
g7
(g11
S'\x00\x00\x00\x00\x00\x00\xf0?'
p4023
tp4024
Rp4025
sg17
g18
sa(dp4026
g3
g4020
sS'acary (time)'
p4027
F0.27009799999905226
sS'p_ratio acary (time)'
p4028
g7
(g11
S'\xddX\x8d\xef W\xf9?'
p4029
tp4030
Rp4031
sg17
g25
sa(dp4032
g3
g4020
sS'acary (time)'
p4033
F0.24912199999926088
sS'p_ratio acary (time)'
p4034
g7
(g11
S'\xd8\xaa(mU_\xf7?'
p4035
tp4036
Rp4037
sg17
g32
sa(dp4038
g3
g4020
sS'acary (time)'
p4039
F0.4860979999994015
sS'p_ratio acary (time)'
p4040
g7
(g11
S'M\r\x7fky\xcd\x06@'
p4041
tp4042
Rp4043
sg17
g39
sa(dp4044
g3
g4020
sS'acary (time)'
p4045
F104.59104000000116
sS'p_ratio acary (time)'
p4046
g7
(g11
S'w[%RQ*\x83@'
p4047
tp4048
Rp4049
sg17
g46
sa(dp4050
g3
g4020
sS'acary (time)'
p4051
F0.42796499999894877
sS'p_ratio acary (time)'
p4052
g7
(g11
S'\x19\xb4\n@]\x13\x04@'
p4053
tp4054
Rp4055
sg17
g53
sa(dp4056
g3
g4020
sS'acary (time)'
p4057
F1.4869400000006863
sS'p_ratio acary (time)'
p4058
g7
(g11
S'6~xg\x1bp!@'
p4059
tp4060
Rp4061
sg17
g60
sa(dp4062
g3
g4020
sS'acary (time)'
p4063
F86.55005100000017
sS'p_ratio acary (time)'
p4064
g7
(g11
S'+\xbfL\xda\x0b\xb8\x7f@'
p4065
tp4066
Rp4067
sg17
g67
sa(dp4068
g3
g4020
sS'acary (time)'
p4069
F85.68546500000048
sS'p_ratio acary (time)'
p4070
g7
(g11
S'\xda\x82\xa5\x7f\xeef\x7f@'
p4071
tp4072
Rp4073
sg17
g74
sa(dp4074
g3
g4020
sS'acary (time)'
p4075
F0.34186899999986053
sS'p_ratio acary (time)'
p4076
g7
(g11
S'\xce\xd6\x0crs\t\x00@'
p4077
tp4078
Rp4079
sg17
g81
sa(dp4080
g3
g4020
sS'acary (time)'
p4081
F0.198936999999205
sS'p_ratio acary (time)'
p4082
g7
(g11
S'\xaa\xad\x08\x95\x01\xaa\xf2?'
p4083
tp4084
Rp4085
sg17
g88
sa(dp4086
g3
g4020
sS'acary (time)'
p4087
F1.0946920000005775
sS'p_ratio acary (time)'
p4088
g7
(g11
S'\x99\x03\xc5\xeb\xfd\xac\x19@'
p4089
tp4090
Rp4091
sg17
g95
saa(lp4092
(dp4093
g3
S'Box_Stacks-i1000-548-69.hdf5'
p4094
sS'acary (time)'
p4095
F0.17021900000145251
sS'p_ratio acary (time)'
p4096
g7
(g11
S'\x00\x00\x00\x00\x00\x00\xf0?'
p4097
tp4098
Rp4099
sg17
g18
sa(dp4100
g3
g4094
sS'acary (time)'
p4101
F0.270580999998856
sS'p_ratio acary (time)'
p4102
g7
(g11
S'\xf1\xec\xd3\xd0\x05o\xf9?'
p4103
tp4104
Rp4105
sg17
g25
sa(dp4106
g3
g4094
sS'acary (time)'
p4107
F0.24966500000118685
sS'p_ratio acary (time)'
p4108
g7
(g11
S'\xa6{g\xf1\xb7w\xf7?'
p4109
tp4110
Rp4111
sg17
g32
sa(dp4112
g3
g4094
sS'acary (time)'
p4113
F0.4882590000015625
sS'p_ratio acary (time)'
p4114
g7
(g11
S'\xf0\x1a\xe1b\x84\xf2\x06@'
p4115
tp4116
Rp4117
sg17
g39
sa(dp4118
g3
g4094
sS'acary (time)'
p4119
F104.53651700000046
sS'p_ratio acary (time)'
p4120
g7
(g11
S'"\xd2\xd2N\t1\x83@'
p4121
tp4122
Rp4123
sg17
g46
sa(dp4124
g3
g4094
sS'acary (time)'
p4125
F0.42770800000107556
sS'p_ratio acary (time)'
p4126
g7
(g11
S'S\x92\xd6\x82\xfe\x19\x04@'
p4127
tp4128
Rp4129
sg17
g53
sa(dp4130
g3
g4094
sS'acary (time)'
p4131
F1.4843089999994845
sS'p_ratio acary (time)'
p4132
g7
(g11
S'\xfd\n\xfeP\xa3p!@'
p4133
tp4134
Rp4135
sg17
g60
sa(dp4136
g3
g4094
sS'acary (time)'
p4137
F86.32398099999955
sS'p_ratio acary (time)'
p4138
g7
(g11
S'\x1a`O3(\xb2\x7f@'
p4139
tp4140
Rp4141
sg17
g67
sa(dp4142
g3
g4094
sS'acary (time)'
p4143
F85.95723700000053
sS'p_ratio acary (time)'
p4144
g7
(g11
S'l\x02/2\xaf\x8f\x7f@'
p4145
tp4146
Rp4147
sg17
g74
sa(dp4148
g3
g4094
sS'acary (time)'
p4149
F0.3413890000010724
sS'p_ratio acary (time)'
p4150
g7
(g11
S'\x98"\xc2\'q\x0b\x00@'
p4151
tp4152
Rp4153
sg17
g81
sa(dp4154
g3
g4094
sS'acary (time)'
p4155
F0.20000500000060129
sS'p_ratio acary (time)'
p4156
g7
(g11
S'\xe8\xa0Ez\xbe\xcc\xf2?'
p4157
tp4158
Rp4159
sg17
g88
sa(dp4160
g3
g4094
sS'acary (time)'
p4161
F1.1027979999998934
sS'p_ratio acary (time)'
p4162
g7
(g11
S'\x83D \x960\xea\x19@'
p4163
tp4164
Rp4165
sg17
g95
saa(lp4166
(dp4167
g3
S'Box_Stacks-i1000-548-70.hdf5'
p4168
sS'acary (time)'
p4169
F0.1704859999990731
sS'p_ratio acary (time)'
p4170
g7
(g11
S'\x00\x00\x00\x00\x00\x00\xf0?'
p4171
tp4172
Rp4173
sg17
g18
sa(dp4174
g3
g4168
sS'acary (time)'
p4175
F0.2712210000008781
sS'p_ratio acary (time)'
p4176
g7
(g11
S'qx\xfa\xb63t\xf9?'
p4177
tp4178
Rp4179
sg17
g25
sa(dp4180
g3
g4168
sS'acary (time)'
p4181
F0.2509300000001531
sS'p_ratio acary (time)'
p4182
g7
(g11
S'\xd2\xa4\xbf\xb2\xb3\x8c\xf7?'
p4183
tp4184
Rp4185
sg17
g32
sa(dp4186
g3
g4168
sS'acary (time)'
p4187
F0.48961899999994785
sS'p_ratio acary (time)'
p4188
g7
(g11
S'\xe9\xbb\x0e\x7f\xa7\xf9\x06@'
p4189
tp4190
Rp4191
sg17
g39
sa(dp4192
g3
g4168
sS'acary (time)'
p4193
F104.20804099999987
sS'p_ratio acary (time)'
p4194
g7
(g11
S'W\xd2\x9f\xa9\xed\x19\x83@'
p4195
tp4196
Rp4197
sg17
g46
sa(dp4198
g3
g4168
sS'acary (time)'
p4199
F0.4257529999995313
sS'p_ratio acary (time)'
p4200
g7
(g11
S'\x8a\xaac;s\xfa\x03@'
p4201
tp4202
Rp4203
sg17
g53
sa(dp4204
g3
g4168
sS'acary (time)'
p4205
F1.4911100000008446
sS'p_ratio acary (time)'
p4206
g7
(g11
S'\xc1p\x7f\t\x12~!@'
p4207
tp4208
Rp4209
sg17
g60
sa(dp4210
g3
g4168
sS'acary (time)'
p4211
F86.88402200000019
sS'p_ratio acary (time)'
p4212
g7
(g11
S'XE\xb0C\x02\xda\x7f@'
p4213
tp4214
Rp4215
sg17
g67
sa(dp4216
g3
g4168
sS'acary (time)'
p4217
F86.31988300000012
sS'p_ratio acary (time)'
p4218
g7
(g11
S'\xac\xcc\x9f\x94\x10\xa5\x7f@'
p4219
tp4220
Rp4221
sg17
g74
sa(dp4222
g3
g4168
sS'acary (time)'
p4223
F0.345182000000932
sS'p_ratio acary (time)'
p4224
g7
(g11
S'\xd5\xd8O\xd3\x922\x00@'
p4225
tp4226
Rp4227
sg17
g81
sa(dp4228
g3
g4168
sS'acary (time)'
p4229
F0.19984299999850919
sS'p_ratio acary (time)'
p4230
g7
(g11
S'%\x1f[\x8cP\xc1\xf2?'
p4231
tp4232
Rp4233
sg17
g88
sa(dp4234
g3
g4168
sS'acary (time)'
p4235
F1.0944630000012694
sS'p_ratio acary (time)'
p4236
g7
(g11
S'yK\x95\xa6\xbc\xad\x19@'
p4237
tp4238
Rp4239
sg17
g95
saa(lp4240
(dp4241
g3
S'Box_Stacks-i1000-548-71.hdf5'
p4242
sS'acary (time)'
p4243
F0.17048500000055355
sS'p_ratio acary (time)'
p4244
g7
(g11
S'\x00\x00\x00\x00\x00\x00\xf0?'
p4245
tp4246
Rp4247
sg17
g18
sa(dp4248
g3
g4242
sS'acary (time)'
p4249
F0.2705819999991945
sS'p_ratio acary (time)'
p4250
g7
(g11
S'\x8d\xda\xc8L\xe3d\xf9?'
p4251
tp4252
Rp4253
sg17
g25
sa(dp4254
g3
g4242
sS'acary (time)'
p4255
F0.24978299999929732
sS'p_ratio acary (time)'
p4256
g7
(g11
S'\xba\x1c\xd3\x12.q\xf7?'
p4257
tp4258
Rp4259
sg17
g32
sa(dp4260
g3
g4242
sS'acary (time)'
p4261
F0.48748499999965134
sS'p_ratio acary (time)'
p4262
g7
(g11
S'\xa8l\xcf\xb1\r\xe0\x06@'
p4263
tp4264
Rp4265
sg17
g39
sa(dp4266
g3
g4242
sS'acary (time)'
p4267
F104.56458600000042
sS'p_ratio acary (time)'
p4268
g7
(g11
S'\xb4J\xbd\x1a\xb0*\x83@'
p4269
tp4270
Rp4271
sg17
g46
sa(dp4272
g3
g4242
sS'acary (time)'
p4273
F0.4266929999994318
sS'p_ratio acary (time)'
p4274
g7
(g11
S'\xd0>=\xab\xc5\x05\x04@'
p4275
tp4276
Rp4277
sg17
g53
sa(dp4278
g3
g4242
sS'acary (time)'
p4279
F1.470196999998734
sS'p_ratio acary (time)'
p4280
g7
(g11
S'$FwvJ?!@'
p4281
tp4282
Rp4283
sg17
g60
sa(dp4284
g3
g4242
sS'acary (time)'
p4285
F86.48479800000132
sS'p_ratio acary (time)'
p4286
g7
(g11
S'#[2\xec\x96\xb4\x7f@'
p4287
tp4288
Rp4289
sg17
g67
sa(dp4290
g3
g4242
sS'acary (time)'
p4291
F85.85053700000026
sS'p_ratio acary (time)'
p4292
g7
(g11
S'\t* p\x10y\x7f@'
p4293
tp4294
Rp4295
sg17
g74
sa(dp4296
g3
g4242
sS'acary (time)'
p4297
F0.3421070000003965
sS'p_ratio acary (time)'
p4298
g7
(g11
S'\xc9\xcb\x00\x96\xa8\r\x00@'
p4299
tp4300
Rp4301
sg17
g81
sa(dp4302
g3
g4242
sS'acary (time)'
p4303
F0.19876699999986158
sS'p_ratio acary (time)'
p4304
g7
(g11
S'\xd4{\xf5\xc4}\xa7\xf2?'
p4305
tp4306
Rp4307
sg17
g88
sa(dp4308
g3
g4242
sS'acary (time)'
p4309
F1.0949999999993452
sS'p_ratio acary (time)'
p4310
g7
(g11
S'\xa6\xee\x94;\x00\xb1\x19@'
p4311
tp4312
Rp4313
sg17
g95
saa(lp4314
(dp4315
g3
S'Box_Stacks-i1000-548-72.hdf5'
p4316
sS'acary (time)'
p4317
F0.170099000000846
sS'p_ratio acary (time)'
p4318
g7
(g11
S'\x00\x00\x00\x00\x00\x00\xf0?'
p4319
tp4320
Rp4321
sg17
g18
sa(dp4322
g3
g4316
sS'acary (time)'
p4323
F0.2707360000003973
sS'p_ratio acary (time)'
p4324
g7
(g11
S'yf\x8f5Yw\xf9?'
p4325
tp4326
Rp4327
sg17
g25
sa(dp4328
g3
g4316
sS'acary (time)'
p4329
F0.25052600000162784
sS'p_ratio acary (time)'
p4330
g7
(g11
S'\xecUO\x94\xb0\x90\xf7?'
p4331
tp4332
Rp4333
sg17
g32
sa(dp4334
g3
g4316
sS'acary (time)'
p4335
F0.48907300000064424
sS'p_ratio acary (time)'
p4336
g7
(g11
S'\x97\x10\x0bHv\x00\x07@'
p4337
tp4338
Rp4339
sg17
g39
sa(dp4340
g3
g4316
sS'acary (time)'
p4341
F104.40114799999901
sS'p_ratio acary (time)'
p4342
g7
(g11
S'\xb3\x8c\xb0\xc1".\x83@'
p4343
tp4344
Rp4345
sg17
g46
sa(dp4346
g3
g4316
sS'acary (time)'
p4347
F0.42693099999996775
sS'p_ratio acary (time)'
p4348
g7
(g11
S'\xca\xf0\xad\xf8D\x14\x04@'
p4349
tp4350
Rp4351
sg17
g53
sa(dp4352
g3
g4316
sS'acary (time)'
p4353
F1.4807000000000698
sS'p_ratio acary (time)'
p4354
g7
(g11
S'\x13\xfe\xd3\xab\xech!@'
p4355
tp4356
Rp4357
sg17
g60
sa(dp4358
g3
g4316
sS'acary (time)'
p4359
F86.34246300000086
sS'p_ratio acary (time)'
p4360
g7
(g11
S'\x8f\x89\xd7\xab\x9e\xb9\x7f@'
p4361
tp4362
Rp4363
sg17
g67
sa(dp4364
g3
g4316
sS'acary (time)'
p4365
F86.008276999999
sS'p_ratio acary (time)'
p4366
g7
(g11
S'\x8cX\xd7p/\x9a\x7f@'
p4367
tp4368
Rp4369
sg17
g74
sa(dp4370
g3
g4316
sS'acary (time)'
p4371
F0.3414360000006127
sS'p_ratio acary (time)'
p4372
g7
(g11
S':&\xfe\xd3\xe7\x0e\x00@'
p4373
tp4374
Rp4375
sg17
g81
sa(dp4376
g3
g4316
sS'acary (time)'
p4377
F0.19965200000115146
sS'p_ratio acary (time)'
p4378
g7
(g11
S'1#\xb7\x97\xa3\xc7\xf2?'
p4379
tp4380
Rp4381
sg17
g88
sa(dp4382
g3
g4316
sS'acary (time)'
p4383
F1.0970889999989595
sS'p_ratio acary (time)'
p4384
g7
(g11
S'\x97\xf5\xebo\x80\xcc\x19@'
p4385
tp4386
Rp4387
sg17
g95
saa(lp4388
(dp4389
g3
S'Box_Stacks-i1000-548-73.hdf5'
p4390
sS'acary (time)'
p4391
F0.1703639999996085
sS'p_ratio acary (time)'
p4392
g7
(g11
S'\x00\x00\x00\x00\x00\x00\xf0?'
p4393
tp4394
Rp4395
sg17
g18
sa(dp4396
g3
g4390
sS'acary (time)'
p4397
F0.27079000000048836
sS'p_ratio acary (time)'
p4398
g7
(g11
S'\x98\xb5\x9b\x87\x81n\xf9?'
p4399
tp4400
Rp4401
sg17
g25
sa(dp4402
g3
g4390
sS'acary (time)'
p4403
F0.24917699999969045
sS'p_ratio acary (time)'
p4404
g7
(g11
S'a-\x16X\xdff\xf7?'
p4405
tp4406
Rp4407
sg17
g32
sa(dp4408
g3
g4390
sS'acary (time)'
p4409
F0.4881069999992178
sS'p_ratio acary (time)'
p4410
g7
(g11
S'|\xea\x9f\xa2\xb0\xeb\x06@'
p4411
tp4412
Rp4413
sg17
g39
sa(dp4414
g3
g4390
sS'acary (time)'
p4415
F104.3377189999992
sS'p_ratio acary (time)'
p4416
g7
(g11
S'<\xfe\x87\x02\x85#\x83@'
p4417
tp4418
Rp4419
sg17
g46
sa(dp4420
g3
g4390
sS'acary (time)'
p4421
F0.42636400000083086
sS'p_ratio acary (time)'
p4422
g7
(g11
S'[Tq*u\x05\x04@'
p4423
tp4424
Rp4425
sg17
g53
sa(dp4426
g3
g4390
sS'acary (time)'
p4427
F1.4781899999998132
sS'p_ratio acary (time)'
p4428
g7
(g11
S'\xaf\xdd\xa4\xcarZ!@'
p4429
tp4430
Rp4431
sg17
g60
sa(dp4432
g3
g4390
sS'acary (time)'
p4433
F86.50063599999885
sS'p_ratio acary (time)'
p4434
g7
(g11
S'\xd0\x05\xf8|\xd7\xbb\x7f@'
p4435
tp4436
Rp4437
sg17
g67
sa(dp4438
g3
g4390
sS'acary (time)'
p4439
F86.42581699999937
sS'p_ratio acary (time)'
p4440
g7
(g11
S'7P[\xa4\xd0\xb4\x7f@'
p4441
tp4442
Rp4443
sg17
g74
sa(dp4444
g3
g4390
sS'acary (time)'
p4445
F0.34179299999959767
sS'p_ratio acary (time)'
p4446
g7
(g11
S'T\xd6\x0f~\xcd\x0c\x00@'
p4447
tp4448
Rp4449
sg17
g81
sa(dp4450
g3
g4390
sS'acary (time)'
p4451
F0.19992799999999988
sS'p_ratio acary (time)'
p4452
g7
(g11
S'\x13S\xea\xea\xcb\xc6\xf2?'
p4453
tp4454
Rp4455
sg17
g88
sa(dp4456
g3
g4390
sS'acary (time)'
p4457
F1.095937000000049
sS'p_ratio acary (time)'
p4458
g7
(g11
S'(\xae;\xdeM\xbb\x19@'
p4459
tp4460
Rp4461
sg17
g95
saa(lp4462
(dp4463
g3
S'Box_Stacks-i1000-548-74.hdf5'
p4464
sS'acary (time)'
p4465
F0.17074400000092282
sS'p_ratio acary (time)'
p4466
g7
(g11
S'\x00\x00\x00\x00\x00\x00\xf0?'
p4467
tp4468
Rp4469
sg17
g18
sa(dp4470
g3
g4464
sS'acary (time)'
p4471
F0.27104399999916495
sS'p_ratio acary (time)'
p4472
g7
(g11
S'\xb5\x9e\\\x17\x1cf\xf9?'
p4473
tp4474
Rp4475
sg17
g25
sa(dp4476
g3
g4464
sS'acary (time)'
p4477
F0.25034799999957613
sS'p_ratio acary (time)'
p4478
g7
(g11
S'R\xc1uu\xa1u\xf7?'
p4479
tp4480
Rp4481
sg17
g32
sa(dp4482
g3
g4464
sS'acary (time)'
p4483
F0.4876989999993384
sS'p_ratio acary (time)'
p4484
g7
(g11
S'TY*\xc2\xbc\xd9\x06@'
p4485
tp4486
Rp4487
sg17
g39
sa(dp4488
g3
g4464
sS'acary (time)'
p4489
F104.50235600000087
sS'p_ratio acary (time)'
p4490
g7
(g11
S'\\X<LT \x83@'
p4491
tp4492
Rp4493
sg17
g46
sa(dp4494
g3
g4464
sS'acary (time)'
p4495
F0.42887900000096124
sS'p_ratio acary (time)'
p4496
g7
(g11
S'I\xe0\x0e\x8f7\x18\x04@'
p4497
tp4498
Rp4499
sg17
g53
sa(dp4500
g3
g4464
sS'acary (time)'
p4501
F1.4747619999998278
sS'p_ratio acary (time)'
p4502
g7
(g11
S'S\x1d4;HF!@'
p4503
tp4504
Rp4505
sg17
g60
sa(dp4506
g3
g4464
sS'acary (time)'
p4507
F86.53067499999997
sS'p_ratio acary (time)'
p4508
g7
(g11
S'\xd8,\xe8\x9a\x93\xac\x7f@'
p4509
tp4510
Rp4511
sg17
g67
sa(dp4512
g3
g4464
sS'acary (time)'
p4513
F85.39193199999863
sS'p_ratio acary (time)'
p4514
g7
(g11
S'\x91V\xbd&\xdeA\x7f@'
p4515
tp4516
Rp4517
sg17
g74
sa(dp4518
g3
g4464
sS'acary (time)'
p4519
F0.34187499999825377
sS'p_ratio acary (time)'
p4520
g7
(g11
S'\x93\xddUS\xa4\x04\x00@'
p4521
tp4522
Rp4523
sg17
g81
sa(dp4524
g3
g4464
sS'acary (time)'
p4525
F0.2003359999980603
sS'p_ratio acary (time)'
p4526
g7
(g11
S'\xb4\xde\xb2\xe6\xe2\xc5\xf2?'
p4527
tp4528
Rp4529
sg17
g88
sa(dp4530
g3
g4464
sS'acary (time)'
p4531
F1.096588000000338
sS'p_ratio acary (time)'
p4532
g7
(g11
S'\xbb\x1a\xd6I\x8c\xb0\x19@'
p4533
tp4534
Rp4535
sg17
g95
saa(lp4536
(dp4537
g3
S'Box_Stacks-i1000-548-75.hdf5'
p4538
sS'acary (time)'
p4539
F0.1703479999996489
sS'p_ratio acary (time)'
p4540
g7
(g11
S'\x00\x00\x00\x00\x00\x00\xf0?'
p4541
tp4542
Rp4543
sg17
g18
sa(dp4544
g3
g4538
sS'acary (time)'
p4545
F0.26995800000076997
sS'p_ratio acary (time)'
p4546
g7
(g11
S'*V\x1f\xb4\x1c[\xf9?'
p4547
tp4548
Rp4549
sg17
g25
sa(dp4550
g3
g4538
sS'acary (time)'
p4551
F0.24981400000251597
sS'p_ratio acary (time)'
p4552
g7
(g11
S'\xdd&\x7fq\xc0v\xf7?'
p4553
tp4554
Rp4555
sg17
g32
sa(dp4556
g3
g4538
sS'acary (time)'
p4557
F0.4888470000005327
sS'p_ratio acary (time)'
p4558
g7
(g11
S'\x04V~A#\xf5\x06@'
p4559
tp4560
Rp4561
sg17
g39
sa(dp4562
g3
g4538
sS'acary (time)'
p4563
F104.26167299999724
sS'p_ratio acary (time)'
p4564
g7
(g11
S'\xa7\xf9)\x8fh \x83@'
p4565
tp4566
Rp4567
sg17
g46
sa(dp4568
g3
g4538
sS'acary (time)'
p4569
F0.42659199999980046
sS'p_ratio acary (time)'
p4570
g7
(g11
S'\x91\x8c\x15"\xae\x08\x04@'
p4571
tp4572
Rp4573
sg17
g53
sa(dp4574
g3
g4538
sS'acary (time)'
p4575
F1.4782500000001164
sS'p_ratio acary (time)'
p4576
g7
(g11
S'\xbfN\xa7\xc6\x0b[!@'
p4577
tp4578
Rp4579
sg17
g60
sa(dp4580
g3
g4538
sS'acary (time)'
p4581
F86.23989699999947
sS'p_ratio acary (time)'
p4582
g7
(g11
S'\x08\x9c\x03b\x1d\xa4\x7f@'
p4583
tp4584
Rp4585
sg17
g67
sa(dp4586
g3
g4538
sS'acary (time)'
p4587
F85.55318799999804
sS'p_ratio acary (time)'
p4588
g7
(g11
S'\xce^A\x89\x9dc\x7f@'
p4589
tp4590
Rp4591
sg17
g74
sa(dp4592
g3
g4538
sS'acary (time)'
p4593
F0.34183499999926426
sS'p_ratio acary (time)'
p4594
g7
(g11
S'\x05\xdb\xb3\x8d\xb1\r\x00@'
p4595
tp4596
Rp4597
sg17
g81
sa(dp4598
g3
g4538
sS'acary (time)'
p4599
F0.19934999999895808
sS'p_ratio acary (time)'
p4600
g7
(g11
S'\xa1\xdf\x0f\x9fY\xb9\xf2?'
p4601
tp4602
Rp4603
sg17
g88
sa(dp4604
g3
g4538
sS'acary (time)'
p4605
F1.095195000001695
sS'p_ratio acary (time)'
p4606
g7
(g11
S'\x19\x9aDjv\xb7\x19@'
p4607
tp4608
Rp4609
sg17
g95
saa(lp4610
(dp4611
g3
S'Box_Stacks-i1000-548-76.hdf5'
p4612
sS'acary (time)'
p4613
F0.17032599999947706
sS'p_ratio acary (time)'
p4614
g7
(g11
S'\x00\x00\x00\x00\x00\x00\xf0?'
p4615
tp4616
Rp4617
sg17
g18
sa(dp4618
g3
g4612
sS'acary (time)'
p4619
F0.270885999998427
sS'p_ratio acary (time)'
p4620
g7
(g11
S'\xc1\xbe\xdd_Dr\xf9?'
p4621
tp4622
Rp4623
sg17
g25
sa(dp4624
g3
g4612
sS'acary (time)'
p4625
F0.24965799999699811
sS'p_ratio acary (time)'
p4626
g7
(g11
S'\xaf\x96{\xae\xc6s\xf7?'
p4627
tp4628
Rp4629
sg17
g32
sa(dp4630
g3
g4612
sS'acary (time)'
p4631
F0.4872270000014396
sS'p_ratio acary (time)'
p4632
g7
(g11
S'"z\xde\xfej\xe2\x06@'
p4633
tp4634
Rp4635
sg17
g39
sa(dp4636
g3
g4612
sS'acary (time)'
p4637
F104.70183299999917
sS'p_ratio acary (time)'
p4638
g7
(g11
S'=J\xbc\xf2\xb65\x83@'
p4639
tp4640
Rp4641
sg17
g46
sa(dp4642
g3
g4612
sS'acary (time)'
p4643
F0.4315829999977723
sS'p_ratio acary (time)'
p4644
g7
(g11
S'\xad\x08r\xbcZE\x04@'
p4645
tp4646
Rp4647
sg17
g53
sa(dp4648
g3
g4612
sS'acary (time)'
p4649
F1.4727360000033514
sS'p_ratio acary (time)'
p4650
g7
(g11
S'\xc6\x19\xc8w\x0bK!@'
p4651
tp4652
Rp4653
sg17
g60
sa(dp4654
g3
g4612
sS'acary (time)'
p4655
F86.22647700000016
sS'p_ratio acary (time)'
p4656
g7
(g11
S'\x11\xf5A\x7f\xe6\xa3\x7f@'
p4657
tp4658
Rp4659
sg17
g67
sa(dp4660
g3
g4612
sS'acary (time)'
p4661
F86.41253000000142
sS'p_ratio acary (time)'
p4662
g7
(g11
S'\x1e\x155\xb3`\xb5\x7f@'
p4663
tp4664
Rp4665
sg17
g74
sa(dp4666
g3
g4612
sS'acary (time)'
p4667
F0.3423240000010992
sS'p_ratio acary (time)'
p4668
g7
(g11
S'\r^?\xa8\x1a\x14\x00@'
p4669
tp4670
Rp4671
sg17
g81
sa(dp4672
g3
g4612
sS'acary (time)'
p4673
F0.20044099999722675
sS'p_ratio acary (time)'
p4674
g7
(g11
S'-\xb7\x08\xa14\xd4\xf2?'
p4675
tp4676
Rp4677
sg17
g88
sa(dp4678
g3
g4612
sS'acary (time)'
p4679
F1.0937659999981406
sS'p_ratio acary (time)'
p4680
g7
(g11
S'\x88\xef\x12\xc5\xb8\xaf\x19@'
p4681
tp4682
Rp4683
sg17
g95
saa(lp4684
(dp4685
g3
S'Box_Stacks-i1000-548-77.hdf5'
p4686
sS'acary (time)'
p4687
F0.17016299999886542
sS'p_ratio acary (time)'
p4688
g7
(g11
S'\x00\x00\x00\x00\x00\x00\xf0?'
p4689
tp4690
Rp4691
sg17
g18
sa(dp4692
g3
g4686
sS'acary (time)'
p4693
F0.27125599999999395
sS'p_ratio acary (time)'
p4694
g7
(g11
S'rR\xfa\xd5i\x81\xf9?'
p4695
tp4696
Rp4697
sg17
g25
sa(dp4698
g3
g4686
sS'acary (time)'
p4699
F0.25115500000174507
sS'p_ratio acary (time)'
p4700
g7
(g11
S'c\xdb\xe1\xbd\x8f\x9d\xf7?'
p4701
tp4702
Rp4703
sg17
g32
sa(dp4704
g3
g4686
sS'acary (time)'
p4705
F0.4895959999994375
sS'p_ratio acary (time)'
p4706
g7
(g11
S'\xf4\xfb7\xba\x8a\x04\x07@'
p4707
tp4708
Rp4709
sg17
g39
sa(dp4710
g3
g4686
sS'acary (time)'
p4711
F104.22818099999859
sS'p_ratio acary (time)'
p4712
g7
(g11
S'\xcd\xd2\xa2=($\x83@'
p4713
tp4714
Rp4715
sg17
g46
sa(dp4716
g3
g4686
sS'acary (time)'
p4717
F0.42596899999989546
sS'p_ratio acary (time)'
p4718
g7
(g11
S'\xd6M\x9c\x08\xc2\x06\x04@'
p4719
tp4720
Rp4721
sg17
g53
sa(dp4722
g3
g4686
sS'acary (time)'
p4723
F1.4792450000022654
sS'p_ratio acary (time)'
p4724
g7
(g11
S'\xeb\xd2\xe1\xca\xdeb!@'
p4725
tp4726
Rp4727
sg17
g60
sa(dp4728
g3
g4686
sS'acary (time)'
p4729
F86.27581799999825
sS'p_ratio acary (time)'
p4730
g7
(g11
S'\xa1tDyL\xb0\x7f@'
p4731
tp4732
Rp4733
sg17
g67
sa(dp4734
g3
g4686
sS'acary (time)'
p4735
F85.76970300000175
sS'p_ratio acary (time)'
p4736
g7
(g11
S'\xb4\xe2\xaa\xc2\xb5\x80\x7f@'
p4737
tp4738
Rp4739
sg17
g74
sa(dp4740
g3
g4686
sS'acary (time)'
p4741
F0.3418629999978293
sS'p_ratio acary (time)'
p4742
g7
(g11
S'\xc7\x86\xc2\xa3\x7f\x12\x00@'
p4743
tp4744
Rp4745
sg17
g81
sa(dp4746
g3
g4686
sS'acary (time)'
p4747
F0.200514000000112
sS'p_ratio acary (time)'
p4748
g7
(g11
S'v\xc3K\x7f\x94\xda\xf2?'
p4749
tp4750
Rp4751
sg17
g88
sa(dp4752
g3
g4686
sS'acary (time)'
p4753
F1.0949120000004768
sS'p_ratio acary (time)'
p4754
g7
(g11
S'\xd2dB\xc2\xea\xbc\x19@'
p4755
tp4756
Rp4757
sg17
g95
saa(lp4758
(dp4759
g3
S'Box_Stacks-i1000-548-78.hdf5'
p4760
sS'acary (time)'
p4761
F0.17050199999721372
sS'p_ratio acary (time)'
p4762
g7
(g11
S'\x00\x00\x00\x00\x00\x00\xf0?'
p4763
tp4764
Rp4765
sg17
g18
sa(dp4766
g3
g4760
sS'acary (time)'
p4767
F0.2711860000017623
sS'p_ratio acary (time)'
p4768
g7
(g11
S'\xd9%^\xed\xbfr\xf9?'
p4769
tp4770
Rp4771
sg17
g25
sa(dp4772
g3
g4760
sS'acary (time)'
p4773
F0.2490780000007362
sS'p_ratio acary (time)'
p4774
g7
(g11
S'\xf4\x11B1\xa5_\xf7?'
p4775
tp4776
Rp4777
sg17
g32
sa(dp4778
g3
g4760
sS'acary (time)'
p4779
F0.48877899999934016
sS'p_ratio acary (time)'
p4780
g7
(g11
S'b2g:\x03\xef\x06@'
p4781
tp4782
Rp4783
sg17
g39
sa(dp4784
g3
g4760
sS'acary (time)'
p4785
F104.27249200000006
sS'p_ratio acary (time)'
p4786
g7
(g11
S'#\xe8\x94Y~\x1c\x83@'
p4787
tp4788
Rp4789
sg17
g46
sa(dp4790
g3
g4760
sS'acary (time)'
p4791
F0.4258829999998852
sS'p_ratio acary (time)'
p4792
g7
(g11
S'\x9d\xd9\xc2\x1c\x88\xfb\x03@'
p4793
tp4794
Rp4795
sg17
g53
sa(dp4796
g3
g4760
sS'acary (time)'
p4797
F1.477696999998443
sS'p_ratio acary (time)'
p4798
g7
(g11
S'?\xd0\xb5S_U!@'
p4799
tp4800
Rp4801
sg17
g60
sa(dp4802
g3
g4760
sS'acary (time)'
p4803
F86.3057489999992
sS'p_ratio acary (time)'
p4804
g7
(g11
S'\xba\x8etl\xfa\xa2\x7f@'
p4805
tp4806
Rp4807
sg17
g67
sa(dp4808
g3
g4760
sS'acary (time)'
p4809
F86.20524700000169
sS'p_ratio acary (time)'
p4810
g7
(g11
S'\xb9\xe9\xd0\x0b\x8c\x99\x7f@'
p4811
tp4812
Rp4813
sg17
g74
sa(dp4814
g3
g4760
sS'acary (time)'
p4815
F0.34204400000089663
sS'p_ratio acary (time)'
p4816
g7
(g11
S's\xbe.\xf7}\x0c\x00@'
p4817
tp4818
Rp4819
sg17
g81
sa(dp4820
g3
g4760
sS'acary (time)'
p4821
F0.20042499999908614
sS'p_ratio acary (time)'
p4822
g7
(g11
S'=\xdf\x84w\xd8\xce\xf2?'
p4823
tp4824
Rp4825
sg17
g88
sa(dp4826
g3
g4760
sS'acary (time)'
p4827
F1.0942289999984496
sS'p_ratio acary (time)'
p4828
g7
(g11
S'#\x08"\xf5\xb6\xab\x19@'
p4829
tp4830
Rp4831
sg17
g95
saa(lp4832
(dp4833
g3
S'Box_Stacks-i1000-548-79.hdf5'
p4834
sS'acary (time)'
p4835
F0.1702030000014929
sS'p_ratio acary (time)'
p4836
g7
(g11
S'\x00\x00\x00\x00\x00\x00\xf0?'
p4837
tp4838
Rp4839
sg17
g18
sa(dp4840
g3
g4834
sS'acary (time)'
p4841
F0.2705209999985527
sS'p_ratio acary (time)'
p4842
g7
(g11
S'#\xf0\x99\xdc0n\xf9?'
p4843
tp4844
Rp4845
sg17
g25
sa(dp4846
g3
g4834
sS'acary (time)'
p4847
F0.24999700000262237
sS'p_ratio acary (time)'
p4848
g7
(g11
S'\x9fD\xc8\xe2E\x80\xf7?'
p4849
tp4850
Rp4851
sg17
g32
sa(dp4852
g3
g4834
sS'acary (time)'
p4853
F0.48885299999892595
sS'p_ratio acary (time)'
p4854
g7
(g11
S'x-m\x7f7\xfa\x06@'
p4855
tp4856
Rp4857
sg17
g39
sa(dp4858
g3
g4834
sS'acary (time)'
p4859
F104.25268000000142
sS'p_ratio acary (time)'
p4860
g7
(g11
S'>3!8($\x83@'
p4861
tp4862
Rp4863
sg17
g46
sa(dp4864
g3
g4834
sS'acary (time)'
p4865
F0.42547299999932875
sS'p_ratio acary (time)'
p4866
g7
(g11
S'\xa6\n.\xba\x95\xff\x03@'
p4867
tp4868
Rp4869
sg17
g53
sa(dp4870
g3
g4834
sS'acary (time)'
p4871
F1.4779550000021118
sS'p_ratio acary (time)'
p4872
g7
(g11
S'\x94\xc1\x06\x98\xf1]!@'
p4873
tp4874
Rp4875
sg17
g60
sa(dp4876
g3
g4834
sS'acary (time)'
p4877
F86.35994500000015
sS'p_ratio acary (time)'
p4878
g7
(g11
S'o\x80C\xf5L\xb6\x7f@'
p4879
tp4880
Rp4881
sg17
g67
sa(dp4882
g3
g4834
sS'acary (time)'
p4883
F85.59794400000101
sS'p_ratio acary (time)'
p4884
g7
(g11
S'u*&\x1d\xabn\x7f@'
p4885
tp4886
Rp4887
sg17
g74
sa(dp4888
g3
g4834
sS'acary (time)'
p4889
F0.34185299999808194
sS'p_ratio acary (time)'
p4890
g7
(g11
S'\xe0\xd5%Ki\x11\x00@'
p4891
tp4892
Rp4893
sg17
g81
sa(dp4894
g3
g4834
sS'acary (time)'
p4895
F0.19941599999947357
sS'p_ratio acary (time)'
p4896
g7
(g11
S'/\n\xaf\x9f\x05\xbf\xf2?'
p4897
tp4898
Rp4899
sg17
g88
sa(dp4900
g3
g4834
sS'acary (time)'
p4901
F1.0958129999999073
sS'p_ratio acary (time)'
p4902
g7
(g11
S"'I\x8c\r\xca\xc0\x19@"
p4903
tp4904
Rp4905
sg17
g95
saa(lp4906
(dp4907
g3
S'Box_Stacks-i1000-548-80.hdf5'
p4908
sS'acary (time)'
p4909
F0.1706400000002759
sS'p_ratio acary (time)'
p4910
g7
(g11
S'\x00\x00\x00\x00\x00\x00\xf0?'
p4911
tp4912
Rp4913
sg17
g18
sa(dp4914
g3
g4908
sS'acary (time)'
p4915
F0.2709420000028331
sS'p_ratio acary (time)'
p4916
g7
(g11
S'{\xe4\x00\xcb\x9fg\xf9?'
p4917
tp4918
Rp4919
sg17
g25
sa(dp4920
g3
g4908
sS'acary (time)'
p4921
F0.24929699999847799
sS'p_ratio acary (time)'
p4922
g7
(g11
S'_\x02i!\x10`\xf7?'
p4923
tp4924
Rp4925
sg17
g32
sa(dp4926
g3
g4908
sS'acary (time)'
p4927
F0.48812700000053155
sS'p_ratio acary (time)'
p4928
g7
(g11
S'\xa4vH{p\xe2\x06@'
p4929
tp4930
Rp4931
sg17
g39
sa(dp4932
g3
g4908
sS'acary (time)'
p4933
F104.39359600000171
sS'p_ratio acary (time)'
p4934
g7
(g11
S'[\x16\xab\xeb6\x1e\x83@'
p4935
tp4936
Rp4937
sg17
g46
sa(dp4938
g3
g4908
sS'acary (time)'
p4939
F0.43151900000157184
sS'p_ratio acary (time)'
p4940
g7
(g11
S'\x17\xc4\x8c\x87\t;\x04@'
p4941
tp4942
Rp4943
sg17
g53
sa(dp4944
g3
g4908
sS'acary (time)'
p4945
F1.47586500000034
sS'p_ratio acary (time)'
p4946
g7
(g11
S'O\xe1\x93sIL!@'
p4947
tp4948
Rp4949
sg17
g60
sa(dp4950
g3
g4908
sS'acary (time)'
p4951
F86.477304
sS'p_ratio acary (time)'
p4952
g7
(g11
S'\x1d\xea\xf5\xa2\x83\xac\x7f@'
p4953
tp4954
Rp4955
sg17
g67
sa(dp4956
g3
g4908
sS'acary (time)'
p4957
F86.0361699999994
sS'p_ratio acary (time)'
p4958
g7
(g11
S'\xca\x1a\x1c\xc4&\x83\x7f@'
p4959
tp4960
Rp4961
sg17
g74
sa(dp4962
g3
g4908
sS'acary (time)'
p4963
F0.3422549999995681
sS'p_ratio acary (time)'
p4964
g7
(g11
S'\x86\xa4\x06\xab\xb3\x0b\x00@'
p4965
tp4966
Rp4967
sg17
g81
sa(dp4968
g3
g4908
sS'acary (time)'
p4969
F0.19971399999849382
sS'p_ratio acary (time)'
p4970
g7
(g11
S'\x8a\xa6F\x92\xe2\xb9\xf2?'
p4971
tp4972
Rp4973
sg17
g88
sa(dp4974
g3
g4908
sS'acary (time)'
p4975
F1.0939829999988433
sS'p_ratio acary (time)'
p4976
g7
(g11
S'zp%|\xec\xa4\x19@'
p4977
tp4978
Rp4979
sg17
g95
saa(lp4980
(dp4981
g3
S'Box_Stacks-i1000-548-81.hdf5'
p4982
sS'acary (time)'
p4983
F0.17036599999846658
sS'p_ratio acary (time)'
p4984
g7
(g11
S'\x00\x00\x00\x00\x00\x00\xf0?'
p4985
tp4986
Rp4987
sg17
g18
sa(dp4988
g3
g4982
sS'acary (time)'
p4989
F0.2711319999980333
sS'p_ratio acary (time)'
p4990
g7
(g11
S'u\xa6\x89\xeb\xa6v\xf9?'
p4991
tp4992
Rp4993
sg17
g25
sa(dp4994
g3
g4982
sS'acary (time)'
p4995
F0.2535829999978887
sS'p_ratio acary (time)'
p4996
g7
(g11
S'F\x0e\x16\x94\xbb\xd0\xf7?'
p4997
tp4998
Rp4999
sg17
g32
sa(dp5000
g3
g4982
sS'acary (time)'
p5001
F0.4870359999986249
sS'p_ratio acary (time)'
p5002
g7
(g11
S'o\x19(\x15\xbf\xde\x06@'
p5003
tp5004
Rp5005
sg17
g39
sa(dp5006
g3
g4982
sS'acary (time)'
p5007
F104.13329200000226
sS'p_ratio acary (time)'
p5008
g7
(g11
S'\x99\x92\x01\xd5\xdc\x19\x83@'
p5009
tp5010
Rp5011
sg17
g46
sa(dp5012
g3
g4982
sS'acary (time)'
p5013
F0.42746600000100443
sS'p_ratio acary (time)'
p5014
g7
(g11
S'\x8b\xfd\xb1\x14\xa5\x12\x04@'
p5015
tp5016
Rp5017
sg17
g53
sa(dp5018
g3
g4982
sS'acary (time)'
p5019
F1.4793349999999919
sS'p_ratio acary (time)'
p5020
g7
(g11
S'n\x91FZ\xd6]!@'
p5021
tp5022
Rp5023
sg17
g60
sa(dp5024
g3
g4982
sS'acary (time)'
p5025
F86.33310400000119
sS'p_ratio acary (time)'
p5026
g7
(g11
S'\xe4$\xad5\x03\xac\x7f@'
p5027
tp5028
Rp5029
sg17
g67
sa(dp5030
g3
g4982
sS'acary (time)'
p5031
F85.87090499999977
sS'p_ratio acary (time)'
p5032
g7
(g11
S'\xc9cY\xdb\x9a\x80\x7f@'
p5033
tp5034
Rp5035
sg17
g74
sa(dp5036
g3
g4982
sS'acary (time)'
p5037
F0.34156300000177
sS'p_ratio acary (time)'
p5038
g7
(g11
S'\x89\xddZV\xfd\t\x00@'
p5039
tp5040
Rp5041
sg17
g81
sa(dp5042
g3
g4982
sS'acary (time)'
p5043
F0.199983999998949
sS'p_ratio acary (time)'
p5044
g7
(g11
S'\xe7\x96\x9c$\x16\xc8\xf2?'
p5045
tp5046
Rp5047
sg17
g88
sa(dp5048
g3
g4982
sS'acary (time)'
p5049
F1.095726999999897
sS'p_ratio acary (time)'
p5050
g7
(g11
S'6\xad*\xf1\xf6\xb9\x19@'
p5051
tp5052
Rp5053
sg17
g95
saa(lp5054
(dp5055
g3
S'Box_Stacks-i1000-548-82.hdf5'
p5056
sS'acary (time)'
p5057
F0.17003000000113389
sS'p_ratio acary (time)'
p5058
g7
(g11
S'\x00\x00\x00\x00\x00\x00\xf0?'
p5059
tp5060
Rp5061
sg17
g18
sa(dp5062
g3
g5056
sS'acary (time)'
p5063
F0.27113099999769474
sS'p_ratio acary (time)'
p5064
g7
(g11
S'\x80\x85\xa4t\x82\x83\xf9?'
p5065
tp5066
Rp5067
sg17
g25
sa(dp5068
g3
g5056
sS'acary (time)'
p5069
F0.24955299999783165
sS'p_ratio acary (time)'
p5070
g7
(g11
S'\xfa\xe3\xd2\xcd\xb2{\xf7?'
p5071
tp5072
Rp5073
sg17
g32
sa(dp5074
g3
g5056
sS'acary (time)'
p5075
F0.4877390000001469
sS'p_ratio acary (time)'
p5076
g7
(g11
S'R!]\xa0\xc8\xf2\x06@'
p5077
tp5078
Rp5079
sg17
g39
sa(dp5080
g3
g5056
sS'acary (time)'
p5081
F104.35598800000298
sS'p_ratio acary (time)'
p5082
g7
(g11
S'\xb4e\xcd\xe8\x00.\x83@'
p5083
tp5084
Rp5085
sg17
g46
sa(dp5086
g3
g5056
sS'acary (time)'
p5087
F0.42694399999891175
sS'p_ratio acary (time)'
p5088
g7
(g11
S'-B"\x11\x83\x16\x04@'
p5089
tp5090
Rp5091
sg17
g53
sa(dp5092
g3
g5056
sS'acary (time)'
p5093
F1.47463400000197
sS'p_ratio acary (time)'
p5094
g7
(g11
S'&-\xd9\x8ewX!@'
p5095
tp5096
Rp5097
sg17
g60
sa(dp5098
g3
g5056
sS'acary (time)'
p5099
F86.347901000001
sS'p_ratio acary (time)'
p5100
g7
(g11
S'\xffi9hm\xbd\x7f@'
p5101
tp5102
Rp5103
sg17
g67
sa(dp5104
g3
g5056
sS'acary (time)'
p5105
F86.21442799999932
sS'p_ratio acary (time)'
p5106
g7
(g11
S'h\xc4t\x0f\xde\xb0\x7f@'
p5107
tp5108
Rp5109
sg17
g74
sa(dp5110
g3
g5056
sS'acary (time)'
p5111
F0.3420640000003914
sS'p_ratio acary (time)'
p5112
g7
(g11
S' \xfd\xfeV#\x18\x00@'
p5113
tp5114
Rp5115
sg17
g81
sa(dp5116
g3
g5056
sS'acary (time)'
p5117
F0.1996610000023793
sS'p_ratio acary (time)'
p5118
g7
(g11
S'\x1c2\xae\x8c\xce\xc9\xf2?'
p5119
tp5120
Rp5121
sg17
g88
sa(dp5122
g3
g5056
sS'acary (time)'
p5123
F1.0954789999996137
sS'p_ratio acary (time)'
p5124
g7
(g11
S'c\xb5\xc4W|\xc5\x19@'
p5125
tp5126
Rp5127
sg17
g95
saa(lp5128
(dp5129
g3
S'Box_Stacks-i1000-548-83.hdf5'
p5130
sS'acary (time)'
p5131
F0.17044999999779975
sS'p_ratio acary (time)'
p5132
g7
(g11
S'\x00\x00\x00\x00\x00\x00\xf0?'
p5133
tp5134
Rp5135
sg17
g18
sa(dp5136
g3
g5130
sS'acary (time)'
p5137
F0.27039700000023004
sS'p_ratio acary (time)'
p5138
g7
(g11
S'\x1c8\x12\xf2\xc6a\xf9?'
p5139
tp5140
Rp5141
sg17
g25
sa(dp5142
g3
g5130
sS'acary (time)'
p5143
F0.24950199999875622
sS'p_ratio acary (time)'
p5144
g7
(g11
S'\xa9\xc3\x9d\xe0\xa8k\xf7?'
p5145
tp5146
Rp5147
sg17
g32
sa(dp5148
g3
g5130
sS'acary (time)'
p5149
F0.48679099999935715
sS'p_ratio acary (time)'
p5150
g7
(g11
S'\xa3\x8a\xa4\xd9\xea\xd8\x06@'
p5151
tp5152
Rp5153
sg17
g39
sa(dp5154
g3
g5130
sS'acary (time)'
p5155
F104.67496499999834
sS'p_ratio acary (time)'
p5156
g7
(g11
S'\xa8*\xc5C\xe00\x83@'
p5157
tp5158
Rp5159
sg17
g46
sa(dp5160
g3
g5130
sS'acary (time)'
p5161
F0.4258910000025935
sS'p_ratio acary (time)'
p5162
g7
(g11
S'\xb2\xec\xfe<0\xfd\x03@'
p5163
tp5164
Rp5165
sg17
g53
sa(dp5166
g3
g5130
sS'acary (time)'
p5167
F1.47703299999921
sS'p_ratio acary (time)'
p5168
g7
(g11
S'\xf4X"H\xbbT!@'
p5169
tp5170
Rp5171
sg17
g60
sa(dp5172
g3
g5130
sS'acary (time)'
p5173
F86.86515199999849
sS'p_ratio acary (time)'
p5174
g7
(g11
S'\xf3\xacW\xaf\xf5\xd9\x7f@'
p5175
tp5176
Rp5177
sg17
g67
sa(dp5178
g3
g5130
sS'acary (time)'
p5179
F85.84468100000231
sS'p_ratio acary (time)'
p5180
g7
(g11
S'\xb0\n\xba?+z\x7f@'
p5181
tp5182
Rp5183
sg17
g74
sa(dp5184
g3
g5130
sS'acary (time)'
p5185
F0.34504500000184635
sS'p_ratio acary (time)'
p5186
g7
(g11
S'O\xffE\xa0\xcd1\x00@'
p5187
tp5188
Rp5189
sg17
g81
sa(dp5190
g3
g5130
sS'acary (time)'
p5191
F0.1986910000014177
sS'p_ratio acary (time)'
p5192
g7
(g11
S'\x97\x7f\x8aC\xa5\xa6\xf2?'
p5193
tp5194
Rp5195
sg17
g88
sa(dp5196
g3
g5130
sS'acary (time)'
p5197
F1.0971219999992172
sS'p_ratio acary (time)'
p5198
g7
(g11
S'S5\xd8\x7f\x19\xbf\x19@'
p5199
tp5200
Rp5201
sg17
g95
saa(lp5202
(dp5203
g3
S'Box_Stacks-i1000-548-84.hdf5'
p5204
sS'acary (time)'
p5205
F0.170086000001902
sS'p_ratio acary (time)'
p5206
g7
(g11
S'\x00\x00\x00\x00\x00\x00\xf0?'
p5207
tp5208
Rp5209
sg17
g18
sa(dp5210
g3
g5204
sS'acary (time)'
p5211
F0.27096700000038254
sS'p_ratio acary (time)'
p5212
g7
(g11
S'\xe5\xf1;\xe1h}\xf9?'
p5213
tp5214
Rp5215
sg17
g25
sa(dp5216
g3
g5204
sS'acary (time)'
p5217
F0.2498330000016722
sS'p_ratio acary (time)'
p5218
g7
(g11
S'\x15s[Jv\x80\xf7?'
p5219
tp5220
Rp5221
sg17
g32
sa(dp5222
g3
g5204
sS'acary (time)'
p5223
F0.48683100000198465
sS'p_ratio acary (time)'
p5224
g7
(g11
S'g\xc1\xa0\x8f\xea\xe5\x06@'
p5225
tp5226
Rp5227
sg17
g39
sa(dp5228
g3
g5204
sS'acary (time)'
p5229
F104.53351900000052
sS'p_ratio acary (time)'
p5230
g7
(g11
S'\xf3L\xbe\xb4\xbc4\x83@'
p5231
tp5232
Rp5233
sg17
g46
sa(dp5234
g3
g5204
sS'acary (time)'
p5235
F0.4259749999982887
sS'p_ratio acary (time)'
p5236
g7
(g11
S'_f\xcc\xb0&\t\x04@'
p5237
tp5238
Rp5239
sg17
g53
sa(dp5240
g3
g5204
sS'acary (time)'
p5241
F1.4745490000022983
sS'p_ratio acary (time)'
p5242
g7
(g11
S':\xdcQ\xc8\xbfV!@'
p5243
tp5244
Rp5245
sg17
g60
sa(dp5246
g3
g5204
sS'acary (time)'
p5247
F86.34540800000104
sS'p_ratio acary (time)'
p5248
g7
(g11
S'm\xd1:\x81\x84\xba\x7f@'
p5249
tp5250
Rp5251
sg17
g67
sa(dp5252
g3
g5204
sS'acary (time)'
p5253
F86.34159500000169
sS'p_ratio acary (time)'
p5254
g7
(g11
S'\xe4\xbe-\xae(\xba\x7f@'
p5255
tp5256
Rp5257
sg17
g74
sa(dp5258
g3
g5204
sS'acary (time)'
p5259
F0.34170500000254833
sS'p_ratio acary (time)'
p5260
g7
(g11
S'S\x06 tu\x12\x00@'
p5261
tp5262
Rp5263
sg17
g81
sa(dp5264
g3
g5204
sS'acary (time)'
p5265
F0.19956599999932223
sS'p_ratio acary (time)'
p5266
g7
(g11
S'\xcb\xf3Gy\xef\xc5\xf2?'
p5267
tp5268
Rp5269
sg17
g88
sa(dp5270
g3
g5204
sS'acary (time)'
p5271
F1.0957070000004023
sS'p_ratio acary (time)'
p5272
g7
(g11
S'\x07{h\xaa\xaf\xc4\x19@'
p5273
tp5274
Rp5275
sg17
g95
saa(lp5276
(dp5277
g3
S'Box_Stacks-i1000-548-86.hdf5'
p5278
sS'acary (time)'
p5279
F0.17043300000295858
sS'p_ratio acary (time)'
p5280
g7
(g11
S'\x00\x00\x00\x00\x00\x00\xf0?'
p5281
tp5282
Rp5283
sg17
g18
sa(dp5284
g3
g5278
sS'acary (time)'
p5285
F0.27035999999861815
sS'p_ratio acary (time)'
p5286
g7
(g11
S'>\xbc\xf19\x89a\xf9?'
p5287
tp5288
Rp5289
sg17
g25
sa(dp5290
g3
g5278
sS'acary (time)'
p5291
F0.24932999999873573
sS'p_ratio acary (time)'
p5292
g7
(g11
S'k<k\xc2\x1fh\xf7?'
p5293
tp5294
Rp5295
sg17
g32
sa(dp5296
g3
g5278
sS'acary (time)'
p5297
F0.486944999996922
sS'p_ratio acary (time)'
p5298
g7
(g11
S'(LH\xf0Y\xdb\x06@'
p5299
tp5300
Rp5301
sg17
g39
sa(dp5302
g3
g5278
sS'acary (time)'
p5303
F104.47462499999892
sS'p_ratio acary (time)'
p5304
g7
(g11
S"=\\\xb8V\xf6'\x83@"
p5305
tp5306
Rp5307
sg17
g46
sa(dp5308
g3
g5278
sS'acary (time)'
p5309
F0.4261609999994107
sS'p_ratio acary (time)'
p5310
g7
(g11
S'Y\x9d\x8b{\xf1\x00\x04@'
p5311
tp5312
Rp5313
sg17
g53
sa(dp5314
g3
g5278
sS'acary (time)'
p5315
F1.4760649999989255
sS'p_ratio acary (time)'
p5316
g7
(g11
S' \xaeX!DR!@'
p5317
tp5318
Rp5319
sg17
g60
sa(dp5320
g3
g5278
sS'acary (time)'
p5321
F86.16417600000204
sS'p_ratio acary (time)'
p5322
g7
(g11
S')h\x1dh\xf7\x98\x7f@'
p5323
tp5324
Rp5325
sg17
g67
sa(dp5326
g3
g5278
sS'acary (time)'
p5327
F86.00187499999811
sS'p_ratio acary (time)'
p5328
g7
(g11
S'*\x7f\x9f\xd7\xba\x89\x7f@'
p5329
tp5330
Rp5331
sg17
g74
sa(dp5332
g3
g5278
sS'acary (time)'
p5333
F0.3416670000005979
sS'p_ratio acary (time)'
p5334
g7
(g11
S'\xae\x00\xad\x0b\xa0\t\x00@'
p5335
tp5336
Rp5337
sg17
g81
sa(dp5338
g3
g5278
sS'acary (time)'
p5339
F0.199585999998817
sS'p_ratio acary (time)'
p5340
g7
(g11
S'\x137m\x9a\xa1\xbc\xf2?'
p5341
tp5342
Rp5343
sg17
g88
sa(dp5344
g3
g5278
sS'acary (time)'
p5345
F1.0952199999992445
sS'p_ratio acary (time)'
p5346
g7
(g11
S'\xf3\xebNST\xb4\x19@'
p5347
tp5348
Rp5349
sg17
g95
saa(lp5350
(dp5351
g3
S'Box_Stacks-i1000-548-87.hdf5'
p5352
sS'acary (time)'
p5353
F0.17062299999815878
sS'p_ratio acary (time)'
p5354
g7
(g11
S'\x00\x00\x00\x00\x00\x00\xf0?'
p5355
tp5356
Rp5357
sg17
g18
sa(dp5358
g3
g5352
sS'acary (time)'
p5359
F0.2707829999999376
sS'p_ratio acary (time)'
p5360
g7
(g11
S'\xaf:&\x88td\xf9?'
p5361
tp5362
Rp5363
sg17
g25
sa(dp5364
g3
g5352
sS'acary (time)'
p5365
F0.2505669999991369
sS'p_ratio acary (time)'
p5366
g7
(g11
S'\xd0V\xe0\xa3%\x7f\xf7?'
p5367
tp5368
Rp5369
sg17
g32
sa(dp5370
g3
g5352
sS'acary (time)'
p5371
F0.4901449999997567
sS'p_ratio acary (time)'
p5372
g7
(g11
S':\xa0\xe6\xca>\xfb\x06@'
p5373
tp5374
Rp5375
sg17
g39
sa(dp5376
g3
g5352
sS'acary (time)'
p5377
F104.26321100000132
sS'p_ratio acary (time)'
p5378
g7
(g11
S'\x96u\r\xbc\x96\x18\x83@'
p5379
tp5380
Rp5381
sg17
g46
sa(dp5382
g3
g5352
sS'acary (time)'
p5383
F0.4261850000002596
sS'p_ratio acary (time)'
p5384
g7
(g11
S'\n\x97\x1cc\x87\xfb\x03@'
p5385
tp5386
Rp5387
sg17
g53
sa(dp5388
g3
g5352
sS'acary (time)'
p5389
F1.4794809999984864
sS'p_ratio acary (time)'
p5390
g7
(g11
S')ZO3\x94W!@'
p5391
tp5392
Rp5393
sg17
g60
sa(dp5394
g3
g5352
sS'acary (time)'
p5395
F86.30133100000239
sS'p_ratio acary (time)'
p5396
g7
(g11
S'$\x11\x15\x06\xd2\x9c\x7f@'
p5397
tp5398
Rp5399
sg17
g67
sa(dp5400
g3
g5352
sS'acary (time)'
p5401
F86.10077799999999
sS'p_ratio acary (time)'
p5402
g7
(g11
S'\xde\xaa\x19\x85\x03\x8a\x7f@'
p5403
tp5404
Rp5405
sg17
g74
sa(dp5406
g3
g5352
sS'acary (time)'
p5407
F0.34227200000168523
sS'p_ratio acary (time)'
p5408
g7
(g11
S'4\x97\xbc\xadP\x0c\x00@'
p5409
tp5410
Rp5411
sg17
g81
sa(dp5412
g3
g5352
sS'acary (time)'
p5413
F0.19900699999925564
sS'p_ratio acary (time)'
p5414
g7
(g11
S'\xa0\xd8T\xedc\xa9\xf2?'
p5415
tp5416
Rp5417
sg17
g88
sa(dp5418
g3
g5352
sS'acary (time)'
p5419
F1.096813000000111
sS'p_ratio acary (time)'
p5420
g7
(g11
S'\x1f\x0e\x04\xed\x8f\xb6\x19@'
p5421
tp5422
Rp5423
sg17
g95
saa(lp5424
(dp5425
g3
S'Box_Stacks-i1000-549-23.hdf5'
p5426
sS'acary (time)'
p5427
F0.16653900000164867
sS'p_ratio acary (time)'
p5428
g7
(g11
S'\x00\x00\x00\x00\x00\x00\xf0?'
p5429
tp5430
Rp5431
sg17
g18
sa(dp5432
g3
g5426
sS'acary (time)'
p5433
F0.18877100000099745
sS'p_ratio acary (time)'
p5434
g7
(g11
S'\xf3}\xa4\xdf\xca"\xf2?'
p5435
tp5436
Rp5437
sg17
g25
sa(dp5438
g3
g5426
sS'acary (time)'
p5439
F0.20885700000144425
sS'p_ratio acary (time)'
p5440
g7
(g11
S'\xb6\x1d\xbe\xee\xcd\x10\xf4?'
p5441
tp5442
Rp5443
sg17
g32
sa(dp5444
g3
g5426
sS'acary (time)'
p5445
F0.4374969999989844
sS'p_ratio acary (time)'
p5446
g7
(g11
S'\xce\th\x93\x15\x04\x05@'
p5447
tp5448
Rp5449
sg17
g39
sa(dp5450
g3
g5426
sS'acary (time)'
p5451
F101.77387299999828
sS'p_ratio acary (time)'
p5452
g7
(g11
S'\xeba\x18\x0b\xe4\x18\x83@'
p5453
tp5454
Rp5455
sg17
g46
sa(dp5456
g3
g5426
sS'acary (time)'
p5457
F0.4240070000014384
sS'p_ratio acary (time)'
p5458
g7
(g11
S'.\xd9\x9e,1^\x04@'
p5459
tp5460
Rp5461
sg17
g53
sa(dp5462
g3
g5426
sS'acary (time)'
p5463
F3.853758999997808
sS'p_ratio acary (time)'
p5464
g7
(g11
S'\xaft\xb2Z\xe9#7@'
p5465
tp5466
Rp5467
sg17
g60
sa(dp5468
g3
g5426
sS'acary (time)'
p5469
F86.44205599999987
sS'p_ratio acary (time)'
p5470
g7
(g11
S'\x05\xec\xc6@f8\x80@'
p5471
tp5472
Rp5473
sg17
g67
sa(dp5474
g3
g5426
sS'acary (time)'
p5475
F1.042674000000261
sS'p_ratio acary (time)'
p5476
g7
(g11
S'\xf3s\xe1\x96\x19\x0b\x19@'
p5477
tp5478
Rp5479
sg17
g74
sa(dp5480
g3
g5426
sS'acary (time)'
p5481
F0.36631000000124914
sS'p_ratio acary (time)'
p5482
g7
(g11
S'\xb5\xc9\x94\xf8\xaa\x98\x01@'
p5483
tp5484
Rp5485
sg17
g81
sa(dp5486
g3
g5426
sS'acary (time)'
p5487
F0.3286279999992985
sS'p_ratio acary (time)'
p5488
g7
(g11
S'\xac\x9f\x03\x8f\x8d\x92\xff?'
p5489
tp5490
Rp5491
sg17
g88
sa(dp5492
g3
g5426
sS'acary (time)'
p5493
F0.6954509999995935
sS'p_ratio acary (time)'
p5494
g7
(g11
S'\x19gy_ \xb4\x10@'
p5495
tp5496
Rp5497
sg17
g95
saa(lp5498
(dp5499
g3
S'Box_Stacks-i1000-549-24.hdf5'
p5500
sS'acary (time)'
p5501
F0.1803059999983816
sS'p_ratio acary (time)'
p5502
g7
(g11
S'\x00\x00\x00\x00\x00\x00\xf0?'
p5503
tp5504
Rp5505
sg17
g18
sa(dp5506
g3
g5500
sS'acary (time)'
p5507
F0.19194399999832967
sS'p_ratio acary (time)'
p5508
g7
(g11
S'H\x85\xad4a\x08\xf1?'
p5509
tp5510
Rp5511
sg17
g25
sa(dp5512
g3
g5500
sS'acary (time)'
p5513
F0.21160500000041793
sS'p_ratio acary (time)'
p5514
g7
(g11
S'!N\x93t\x04\xc7\xf2?'
p5515
tp5516
Rp5517
sg17
g32
sa(dp5518
g3
g5500
sS'acary (time)'
p5519
F0.4341129999993427
sS'p_ratio acary (time)'
p5520
g7
(g11
S'\x1f\xdaM\xd9\xdbB\x03@'
p5521
tp5522
Rp5523
sg17
g39
sa(dp5524
g3
g5500
sS'acary (time)'
p5525
F103.44995800000106
sS'p_ratio acary (time)'
p5526
g7
(g11
S'\xa3\xd9\xb7\x13\xf9\xed\x81@'
p5527
tp5528
Rp5529
sg17
g46
sa(dp5530
g3
g5500
sS'acary (time)'
p5531
F0.4555319999999483
sS'p_ratio acary (time)'
p5532
g7
(g11
S'\xa4\xd9aT%6\x04@'
p5533
tp5534
Rp5535
sg17
g53
sa(dp5536
g3
g5500
sS'acary (time)'
p5537
F38.68495999999868
sS'p_ratio acary (time)'
p5538
g7
(g11
S'W\x19|\x94\xa7\xd1j@'
p5539
tp5540
Rp5541
sg17
g60
sa(dp5542
g3
g5500
sS'acary (time)'
p5543
F86.3388100000011
sS'p_ratio acary (time)'
p5544
g7
(g11
S'\x0b\xdfwI\x89\xed}@'
p5545
tp5546
Rp5547
sg17
g67
sa(dp5548
g3
g5500
sS'acary (time)'
p5549
F90.26781800000026
sS'p_ratio acary (time)'
p5550
g7
(g11
S'N\x0c2P0J\x7f@'
p5551
tp5552
Rp5553
sg17
g74
sa(dp5554
g3
g5500
sS'acary (time)'
p5555
F0.3733729999985371
sS'p_ratio acary (time)'
p5556
g7
(g11
S'\xfaM\xb8\x06\xf2\x90\x00@'
p5557
tp5558
Rp5559
sg17
g81
sa(dp5560
g3
g5500
sS'acary (time)'
p5561
F0.41645799999969313
sS'p_ratio acary (time)'
p5562
g7
(g11
S'\x919\xdb4Sz\x02@'
p5563
tp5564
Rp5565
sg17
g88
sa(dp5566
g3
g5500
sS'acary (time)'
p5567
F0.9020319999981439
sS'p_ratio acary (time)'
p5568
g7
(g11
S'Gp\x89\xd9\xd9\x02\x14@'
p5569
tp5570
Rp5571
sg17
g95
saa(lp5572
(dp5573
g3
S'Box_Stacks-i1000-549-36.hdf5'
p5574
sS'acary (time)'
p5575
F0.18190799999865703
sS'p_ratio acary (time)'
p5576
g7
(g11
S'\x00\x00\x00\x00\x00\x00\xf0?'
p5577
tp5578
Rp5579
sg17
g18
sa(dp5580
g3
g5574
sS'acary (time)'
p5581
F0.23875399999815272
sS'p_ratio acary (time)'
p5582
g7
(g11
S'\x99W\x15\x8f\xfe\xff\xf4?'
p5583
tp5584
Rp5585
sg17
g25
sa(dp5586
g3
g5574
sS'acary (time)'
p5587
F0.2505959999980405
sS'p_ratio acary (time)'
p5588
g7
(g11
S'\x04\xd32\xa4\xa3\n\xf6?'
p5589
tp5590
Rp5591
sg17
g32
sa(dp5592
g3
g5574
sS'acary (time)'
p5593
F0.46808299999975134
sS'p_ratio acary (time)'
p5594
g7
(g11
S'\xcd\x9d\xec2\xe2\x95\x04@'
p5595
tp5596
Rp5597
sg17
g39
sa(dp5598
g3
g5574
sS'acary (time)'
p5599
F105.90356999999858
sS'p_ratio acary (time)'
p5600
g7
(g11
S'\x87\x04\xdb\xcft1\x82@'
p5601
tp5602
Rp5603
sg17
g46
sa(dp5604
g3
g5574
sS'acary (time)'
p5605
F0.5479400000003807
sS'p_ratio acary (time)'
p5606
g7
(g11
S'\xe5\x9f\xf6\xdd\xf2\x18\x08@'
p5607
tp5608
Rp5609
sg17
g53
sa(dp5610
g3
g5574
sS'acary (time)'
p5611
F1.5087149999999383
sS'p_ratio acary (time)'
p5612
g7
(g11
S'g\xce\x1d\x96q\x96 @'
p5613
tp5614
Rp5615
sg17
g60
sa(dp5616
g3
g5574
sS'acary (time)'
p5617
F86.4712780000009
sS'p_ratio acary (time)'
p5618
g7
(g11
S'\xaf,\x04\x1a\xb7\xb5}@'
p5619
tp5620
Rp5621
sg17
g67
sa(dp5622
g3
g5574
sS'acary (time)'
p5623
F87.35135000000082
sS'p_ratio acary (time)'
p5624
g7
(g11
S'Y\xa4\x05\x93\x1f\x03~@'
p5625
tp5626
Rp5627
sg17
g74
sa(dp5628
g3
g5574
sS'acary (time)'
p5629
F0.36138300000311574
sS'p_ratio acary (time)'
p5630
g7
(g11
S'\xa1]\x8fh7\xc9\xff?'
p5631
tp5632
Rp5633
sg17
g81
sa(dp5634
g3
g5574
sS'acary (time)'
p5635
F0.29249799999888637
sS'p_ratio acary (time)'
p5636
g7
(g11
S'b\x89%2$\xba\xf9?'
p5637
tp5638
Rp5639
sg17
g88
sa(dp5640
g3
g5574
sS'acary (time)'
p5641
F1.0387809999992896
sS'p_ratio acary (time)'
p5642
g7
(g11
S'\xcf\xc2P\xa2\x86\xd7\x16@'
p5643
tp5644
Rp5645
sg17
g95
saa(lp5646
(dp5647
g3
S'Box_Stacks-i1000-549-37.hdf5'
p5648
sS'acary (time)'
p5649
F0.18275599999833503
sS'p_ratio acary (time)'
p5650
g7
(g11
S'\x00\x00\x00\x00\x00\x00\xf0?'
p5651
tp5652
Rp5653
sg17
g18
sa(dp5654
g3
g5648
sS'acary (time)'
p5655
F0.2376430000003893
sS'p_ratio acary (time)'
p5656
g7
(g11
S'\x89\xac\xb23&\xce\xf4?'
p5657
tp5658
Rp5659
sg17
g25
sa(dp5660
g3
g5648
sS'acary (time)'
p5661
F0.2506780000003346
sS'p_ratio acary (time)'
p5662
g7
(g11
S'\xfemHyK\xf2\xf5?'
p5663
tp5664
Rp5665
sg17
g32
sa(dp5666
g3
g5648
sS'acary (time)'
p5667
F0.46849099999963073
sS'p_ratio acary (time)'
p5668
g7
(g11
S'F\xcd\xaf\xcb\x00\x82\x04@'
p5669
tp5670
Rp5671
sg17
g39
sa(dp5672
g3
g5648
sS'acary (time)'
p5673
F105.88972000000285
sS'p_ratio acary (time)'
p5674
g7
(g11
S'!+\xc06=\x1b\x82@'
p5675
tp5676
Rp5677
sg17
g46
sa(dp5678
g3
g5648
sS'acary (time)'
p5679
F0.5484310000028927
sS'p_ratio acary (time)'
p5680
g7
(g11
S'\x0f\xc5\xbd\x9c\xd3\x01\x08@'
p5681
tp5682
Rp5683
sg17
g53
sa(dp5684
g3
g5648
sS'acary (time)'
p5685
F1.5094349999999395
sS'p_ratio acary (time)'
p5686
g7
(g11
S'\x19(\xcd\xcc\xc1\x84 @'
p5687
tp5688
Rp5689
sg17
g60
sa(dp5690
g3
g5648
sS'acary (time)'
p5691
F86.87381800000003
sS'p_ratio acary (time)'
p5692
g7
(g11
S'}\xe0J|\xaa\xb5}@'
p5693
tp5694
Rp5695
sg17
g67
sa(dp5696
g3
g5648
sS'acary (time)'
p5697
F86.78010599999834
sS'p_ratio acary (time)'
p5698
g7
(g11
S'\x1b\xb3\xcb,v\xad}@'
p5699
tp5700
Rp5701
sg17
g74
sa(dp5702
g3
g5648
sS'acary (time)'
p5703
F0.36125600000013947
sS'p_ratio acary (time)'
p5704
g7
(g11
S'E,\x05\xe3\x9c\xa0\xff?'
p5705
tp5706
Rp5707
sg17
g81
sa(dp5708
g3
g5648
sS'acary (time)'
p5709
F0.29227199999877485
sS'p_ratio acary (time)'
p5710
g7
(g11
S'\x062!\x1c\x84\x96\xf9?'
p5711
tp5712
Rp5713
sg17
g88
sa(dp5714
g3
g5648
sS'acary (time)'
p5715
F1.0381489999999758
sS'p_ratio acary (time)'
p5716
g7
(g11
S'@4\x98\x12\xda\xb8\x16@'
p5717
tp5718
Rp5719
sg17
g95
saa(lp5720
(dp5721
g3
S'Box_Stacks-i1000-549-38.hdf5'
p5722
sS'acary (time)'
p5723
F0.17013300000326126
sS'p_ratio acary (time)'
p5724
g7
(g11
S'\x00\x00\x00\x00\x00\x00\xf0?'
p5725
tp5726
Rp5727
sg17
g18
sa(dp5728
g3
g5722
sS'acary (time)'
p5729
F0.24337000000014086
sS'p_ratio acary (time)'
p5730
g7
(g11
S'\x08u\x1b\x923\xe3\xf6?'
p5731
tp5732
Rp5733
sg17
g25
sa(dp5734
g3
g5722
sS'acary (time)'
p5735
F0.2503230000002077
sS'p_ratio acary (time)'
p5736
g7
(g11
S'^\xeb\x82\xcd\x98\x8a\xf7?'
p5737
tp5738
Rp5739
sg17
g32
sa(dp5740
g3
g5722
sS'acary (time)'
p5741
F0.46734700000160956
sS'p_ratio acary (time)'
p5742
g7
(g11
S'\xc5E\xb7f\xc1\xf9\x05@'
p5743
tp5744
Rp5745
sg17
g39
sa(dp5746
g3
g5722
sS'acary (time)'
p5747
F106.50321799999801
sS'p_ratio acary (time)'
p5748
g7
(g11
S'\x12o\xba\x84\xff\x8f\x83@'
p5749
tp5750
Rp5751
sg17
g46
sa(dp5752
g3
g5722
sS'acary (time)'
p5753
F0.5295850000002247
sS'p_ratio acary (time)'
p5754
g7
(g11
S'\xb1\xadRE\xf4\xe6\x08@'
p5755
tp5756
Rp5757
sg17
g53
sa(dp5758
g3
g5722
sS'acary (time)'
p5759
F1.5059860000001208
sS'p_ratio acary (time)'
p5760
g7
(g11
S'\xa4\xec\xc47!\xb4!@'
p5761
tp5762
Rp5763
sg17
g60
sa(dp5764
g3
g5722
sS'acary (time)'
p5765
F86.38343700000041
sS'p_ratio acary (time)'
p5766
g7
(g11
S'\xf5MF\xa1\xd9\xbb\x7f@'
p5767
tp5768
Rp5769
sg17
g67
sa(dp5770
g3
g5722
sS'acary (time)'
p5771
F86.40495700000247
sS'p_ratio acary (time)'
p5772
g7
(g11
S'\x99\xcc\xe4\xba\xdf\xbd\x7f@'
p5773
tp5774
Rp5775
sg17
g74
sa(dp5776
g3
g5722
sS'acary (time)'
p5777
F0.3613470000018424
sS'p_ratio acary (time)'
p5778
g7
(g11
S'd\xa2\xa5\xf8\xc3\xfd\x00@'
p5779
tp5780
Rp5781
sg17
g81
sa(dp5782
g3
g5722
sS'acary (time)'
p5783
F0.29303100000106497
sS'p_ratio acary (time)'
p5784
g7
(g11
S'E\xd1\xa8\xd5\xcd\x8e\xfb?'
p5785
tp5786
Rp5787
sg17
g88
sa(dp5788
g3
g5722
sS'acary (time)'
p5789
F1.0382320000026084
sS'p_ratio acary (time)'
p5790
g7
(g11
S'\xdd&D\x9f\xeeh\x18@'
p5791
tp5792
Rp5793
sg17
g95
saa(lp5794
(dp5795
g3
S'Box_Stacks-i1000-549-88.hdf5'
p5796
sS'acary (time)'
p5797
F0.17050899999958347
sS'p_ratio acary (time)'
p5798
g7
(g11
S'\x00\x00\x00\x00\x00\x00\xf0?'
p5799
tp5800
Rp5801
sg17
g18
sa(dp5802
g3
g5796
sS'acary (time)'
p5803
F0.27076300000044284
sS'p_ratio acary (time)'
p5804
g7
(g11
S'i6\xd6$Rh\xf9?'
p5805
tp5806
Rp5807
sg17
g25
sa(dp5808
g3
g5796
sS'acary (time)'
p5809
F0.2505569999993895
sS'p_ratio acary (time)'
p5810
g7
(g11
S'\xa8\x9d@\xaf\xed\x82\xf7?'
p5811
tp5812
Rp5813
sg17
g32
sa(dp5814
g3
g5796
sS'acary (time)'
p5815
F0.4882569999972475
sS'p_ratio acary (time)'
p5816
g7
(g11
S'\xe0Sku\x80\xe8\x06@'
p5817
tp5818
Rp5819
sg17
g39
sa(dp5820
g3
g5796
sS'acary (time)'
p5821
F105.33329500000036
sS'p_ratio acary (time)'
p5822
g7
(g11
S'\x1f\x81\x8dV\x10N\x83@'
p5823
tp5824
Rp5825
sg17
g46
sa(dp5826
g3
g5796
sS'acary (time)'
p5827
F0.4276900000004389
sS'p_ratio acary (time)'
p5828
g7
(g11
S'\xa5\xb9*\x96\x06\x11\x04@'
p5829
tp5830
Rp5831
sg17
g53
sa(dp5832
g3
g5796
sS'acary (time)'
p5833
F1.5278370000014547
sS'p_ratio acary (time)'
p5834
g7
(g11
S'\xc0\x13\x97\xd1\xbf\xeb!@'
p5835
tp5836
Rp5837
sg17
g60
sa(dp5838
g3
g5796
sS'acary (time)'
p5839
F86.61175699999876
sS'p_ratio acary (time)'
p5840
g7
(g11
S'\x12p\xecI\\\xbf\x7f@'
p5841
tp5842
Rp5843
sg17
g67
sa(dp5844
g3
g5796
sS'acary (time)'
p5845
F86.39517900000283
sS'p_ratio acary (time)'
p5846
g7
(g11
S'j\x17B\x9c\t\xab\x7f@'
p5847
tp5848
Rp5849
sg17
g74
sa(dp5850
g3
g5796
sS'acary (time)'
p5851
F0.343511999999464
sS'p_ratio acary (time)'
p5852
g7
(g11
S'6h\x0b\xa7\xf4\x1d\x00@'
p5853
tp5854
Rp5855
sg17
g81
sa(dp5856
g3
g5796
sS'acary (time)'
p5857
F0.2006260000016482
sS'p_ratio acary (time)'
p5858
g7
(g11
S'\xc2\x9c>\xf3y\xd3\xf2?'
p5859
tp5860
Rp5861
sg17
g88
sa(dp5862
g3
g5796
sS'acary (time)'
p5863
F9.320189999998547
sS'p_ratio acary (time)'
p5864
g7
(g11
S'\xe5\x8cg-\x9bTK@'
p5865
tp5866
Rp5867
sg17
g95
saa(lp5868
(dp5869
g3
S'Box_Stacks-i1000-549-89.hdf5'
p5870
sS'acary (time)'
p5871
F0.17062599999917438
sS'p_ratio acary (time)'
p5872
g7
(g11
S'\x00\x00\x00\x00\x00\x00\xf0?'
p5873
tp5874
Rp5875
sg17
g18
sa(dp5876
g3
g5870
sS'acary (time)'
p5877
F0.23896400000012363
sS'p_ratio acary (time)'
p5878
g7
(g11
S'\xd7\x97 \xbe\x80h\xf6?'
p5879
tp5880
Rp5881
sg17
g25
sa(dp5882
g3
g5870
sS'acary (time)'
p5883
F0.2505600000004051
sS'p_ratio acary (time)'
p5884
g7
(g11
S'~Y\x1a\x8c\xdf~\xf7?'
p5885
tp5886
Rp5887
sg17
g32
sa(dp5888
g3
g5870
sS'acary (time)'
p5889
F0.4814779999978782
sS'p_ratio acary (time)'
p5890
g7
(g11
S'\x96( \xf1\x1c\x93\x06@'
p5891
tp5892
Rp5893
sg17
g39
sa(dp5894
g3
g5870
sS'acary (time)'
p5895
F105.64447400000063
sS'p_ratio acary (time)'
p5896
g7
(g11
S'\xc3\xcdP\xd6CY\x83@'
p5897
tp5898
Rp5899
sg17
g46
sa(dp5900
g3
g5870
sS'acary (time)'
p5901
F0.4281550000014249
sS'p_ratio acary (time)'
p5902
g7
(g11
S'\x0c4\xe8\xa4\x15\x13\x04@'
p5903
tp5904
Rp5905
sg17
g53
sa(dp5906
g3
g5870
sS'acary (time)'
p5907
F1.5125860000007378
sS'p_ratio acary (time)'
p5908
g7
(g11
S'\x91\xba\xce\xea\xd6\xba!@'
p5909
tp5910
Rp5911
sg17
g60
sa(dp5912
g3
g5870
sS'acary (time)'
p5913
F86.31488099999842
sS'p_ratio acary (time)'
p5914
g7
(g11
S'\xf4L\xf8\xdf\xf2\x9d\x7f@'
p5915
tp5916
Rp5917
sg17
g67
sa(dp5918
g3
g5870
sS'acary (time)'
p5919
F87.15046300000176
sS'p_ratio acary (time)'
p5920
g7
(g11
S'(\x90\\\x9fM\xec\x7f@'
p5921
tp5922
Rp5923
sg17
g74
sa(dp5924
g3
g5870
sS'acary (time)'
p5925
F0.3445819999978994
sS'p_ratio acary (time)'
p5926
g7
(g11
S"hG\xb92\xf8'\x00@"
p5927
tp5928
Rp5929
sg17
g81
sa(dp5930
g3
g5870
sS'acary (time)'
p5931
F0.20117199999731383
sS'p_ratio acary (time)'
p5932
g7
(g11
S'\xd04\x9fZG\xdd\xf2?'
p5933
tp5934
Rp5935
sg17
g88
sa(dp5936
g3
g5870
sS'acary (time)'
p5937
F1.101184999999532
sS'p_ratio acary (time)'
p5938
g7
(g11
S'\x0e\xbe.J\xaf\xd0\x19@'
p5939
tp5940
Rp5941
sg17
g95
saa(lp5942
(dp5943
g3
S'Box_Stacks-i1000-549-90.hdf5'
p5944
sS'acary (time)'
p5945
F0.17134900000019115
sS'p_ratio acary (time)'
p5946
g7
(g11
S'\x00\x00\x00\x00\x00\x00\xf0?'
p5947
tp5948
Rp5949
sg17
g18
sa(dp5950
g3
g5944
sS'acary (time)'
p5951
F0.24029800000062096
sS'p_ratio acary (time)'
p5952
g7
(g11
S'a\xa7\xb5\xbc/p\xf6?'
p5953
tp5954
Rp5955
sg17
g25
sa(dp5956
g3
g5944
sS'acary (time)'
p5957
F0.2526679999973567
sS'p_ratio acary (time)'
p5958
g7
(g11
S'\xf5O\xd5^\xe2\x97\xf7?'
p5959
tp5960
Rp5961
sg17
g32
sa(dp5962
g3
g5944
sS'acary (time)'
p5963
F0.48295299999881536
sS'p_ratio acary (time)'
p5964
g7
(g11
S'\xd2\x05\x95\x9b[\x8c\x06@'
p5965
tp5966
Rp5967
sg17
g39
sa(dp5968
g3
g5944
sS'acary (time)'
p5969
F105.67869000000064
sS'p_ratio acary (time)'
p5970
g7
(g11
S'\x1d\xab\x97^\xf6E\x83@'
p5971
tp5972
Rp5973
sg17
g46
sa(dp5974
g3
g5944
sS'acary (time)'
p5975
F0.42970400000194786
sS'p_ratio acary (time)'
p5976
g7
(g11
S'\xeb}c\x14\xea\x0f\x04@'
p5977
tp5978
Rp5979
sg17
g53
sa(dp5980
g3
g5944
sS'acary (time)'
p5981
F1.5096389999998792
sS'p_ratio acary (time)'
p5982
g7
(g11
S"'\x0b.\xdd\xe1\x9e!@"
p5983
tp5984
Rp5985
sg17
g60
sa(dp5986
g3
g5944
sS'acary (time)'
p5987
F86.33726799999931
sS'p_ratio acary (time)'
p5988
g7
(g11
S'\xa6-0\x17\xe3}\x7f@'
p5989
tp5990
Rp5991
sg17
g67
sa(dp5992
g3
g5944
sS'acary (time)'
p5993
F86.64704599999823
sS'p_ratio acary (time)'
p5994
g7
(g11
S'\x07\x8b"(\xd0\x9a\x7f@'
p5995
tp5996
Rp5997
sg17
g74
sa(dp5998
g3
g5944
sS'acary (time)'
p5999
F0.3446159999984957
sS'p_ratio acary (time)'
p6000
g7
(g11
S'\xf2Y\x07\xa2\xec\x16\x00@'
p6001
tp6002
Rp6003
sg17
g81
sa(dp6004
g3
g5944
sS'acary (time)'
p6005
F0.19972000000052503
sS'p_ratio acary (time)'
p6006
g7
(g11
S'V\x80>K1\xa6\xf2?'
p6007
tp6008
Rp6009
sg17
g88
sa(dp6010
g3
g5944
sS'acary (time)'
p6011
F1.1019980000019132
sS'p_ratio acary (time)'
p6012
g7
(g11
S'\x9e\xd6\xbd\x81\xa8\xb9\x19@'
p6013
tp6014
Rp6015
sg17
g95
saa(lp6016
(dp6017
g3
S'Box_Stacks-i1000-549-91.hdf5'
p6018
sS'acary (time)'
p6019
F0.17150600000240956
sS'p_ratio acary (time)'
p6020
g7
(g11
S'\x00\x00\x00\x00\x00\x00\xf0?'
p6021
tp6022
Rp6023
sg17
g18
sa(dp6024
g3
g6018
sS'acary (time)'
p6025
F0.2398620000021765
sS'p_ratio acary (time)'
p6026
g7
(g11
S'\x16\x99[\xed\x83`\xf6?'
p6027
tp6028
Rp6029
sg17
g25
sa(dp6030
g3
g6018
sS'acary (time)'
p6031
F0.25121199999921373
sS'p_ratio acary (time)'
p6032
g7
(g11
S'\x88j\xce\r\x95o\xf7?'
p6033
tp6034
Rp6035
sg17
g32
sa(dp6036
g3
g6018
sS'acary (time)'
p6037
F0.48047300000325777
sS'p_ratio acary (time)'
p6038
g7
(g11
S'v\xcb;\x98ui\x06@'
p6039
tp6040
Rp6041
sg17
g39
sa(dp6042
g3
g6018
sS'acary (time)'
p6043
F105.41718899999978
sS'p_ratio acary (time)'
p6044
g7
(g11
S'\x89\xbe\xf2s?5\x83@'
p6045
tp6046
Rp6047
sg17
g46
sa(dp6048
g3
g6018
sS'acary (time)'
p6049
F0.4282899999998335
sS'p_ratio acary (time)'
p6050
g7
(g11
S'V\xed\xef\xf0S\xfa\x03@'
p6051
tp6052
Rp6053
sg17
g53
sa(dp6054
g3
g6018
sS'acary (time)'
p6055
F1.5111680000009073
sS'p_ratio acary (time)'
p6056
g7
(g11
S'InxFQ\x9f!@'
p6057
tp6058
Rp6059
sg17
g60
sa(dp6060
g3
g6018
sS'acary (time)'
p6061
F86.46619400000054
sS'p_ratio acary (time)'
p6062
g7
(g11
S'H\x87\x85\xe3\x88\x82\x7f@'
p6063
tp6064
Rp6065
sg17
g67
sa(dp6066
g3
g6018
sS'acary (time)'
p6067
F86.7815589999991
sS'p_ratio acary (time)'
p6068
g7
(g11
S'+\xa4\xa5\x9b\xf4\x9f\x7f@'
p6069
tp6070
Rp6071
sg17
g74
sa(dp6072
g3
g6018
sS'acary (time)'
p6073
F0.3441849999981059
sS'p_ratio acary (time)'
p6074
g7
(g11
S'\x19\x9a.\xd2\x01\x0e\x00@'
p6075
tp6076
Rp6077
sg17
g81
sa(dp6078
g3
g6018
sS'acary (time)'
p6079
F0.20041300000229967
sS'p_ratio acary (time)'
p6080
g7
(g11
S'\x0f\x13\xbem_\xb2\xf2?'
p6081
tp6082
Rp6083
sg17
g88
sa(dp6084
g3
g6018
sS'acary (time)'
p6085
F1.10183600000164
sS'p_ratio acary (time)'
p6086
g7
(g11
S'x\xe5a\x8f\xa9\xb2\x19@'
p6087
tp6088
Rp6089
sg17
g95
saa(lp6090
(dp6091
g3
S'Box_Stacks-i1000-549-92.hdf5'
p6092
sS'acary (time)'
p6093
F0.1711509999986447
sS'p_ratio acary (time)'
p6094
g7
(g11
S'\x00\x00\x00\x00\x00\x00\xf0?'
p6095
tp6096
Rp6097
sg17
g18
sa(dp6098
g3
g6092
sS'acary (time)'
p6099
F0.24088399999891408
sS'p_ratio acary (time)'
p6100
g7
(g11
S'\x90\x00\xce \xdb\x84\xf6?'
p6101
tp6102
Rp6103
sg17
g25
sa(dp6104
g3
g6092
sS'acary (time)'
p6105
F0.25193099999887636
sS'p_ratio acary (time)'
p6106
g7
(g11
S'\x99\xcfb\xd3;\x8d\xf7?'
p6107
tp6108
Rp6109
sg17
g32
sa(dp6110
g3
g6092
sS'acary (time)'
p6111
F0.48174199999994016
sS'p_ratio acary (time)'
p6112
g7
(g11
S'0\xe9o{\x8b\x84\x06@'
p6113
tp6114
Rp6115
sg17
g39
sa(dp6116
g3
g6092
sS'acary (time)'
p6117
F105.58853299999828
sS'p_ratio acary (time)'
p6118
g7
(g11
S'\xcb$~\xc9tG\x83@'
p6119
tp6120
Rp6121
sg17
g46
sa(dp6122
g3
g6092
sS'acary (time)'
p6123
F0.4292849999983446
sS'p_ratio acary (time)'
p6124
g7
(g11
S'\xb74\xa9\x9a\xd7\x10\x04@'
p6125
tp6126
Rp6127
sg17
g53
sa(dp6128
g3
g6092
sS'acary (time)'
p6129
F1.513176000000385
sS'p_ratio acary (time)'
p6130
g7
(g11
S'\xc2\xb0\xa0\x88\xae\xae!@'
p6131
tp6132
Rp6133
sg17
g60
sa(dp6134
g3
g6092
sS'acary (time)'
p6135
F86.48191000000224
sS'p_ratio acary (time)'
p6136
g7
(g11
S'\x82_\x9aG\xbc\x94\x7f@'
p6137
tp6138
Rp6139
sg17
g67
sa(dp6140
g3
g6092
sS'acary (time)'
p6141
F87.14271999999983
sS'p_ratio acary (time)'
p6142
g7
(g11
S'\xc2\x16\xf7\xd6\x82\xd2\x7f@'
p6143
tp6144
Rp6145
sg17
g74
sa(dp6146
g3
g6092
sS'acary (time)'
p6147
F0.344954999996844
sS'p_ratio acary (time)'
p6148
g7
(g11
S'\xc4V\xdd\xf3\xbe\x1f\x00@'
p6149
tp6150
Rp6151
sg17
g81
sa(dp6152
g3
g6092
sS'acary (time)'
p6153
F0.2013779999979306
sS'p_ratio acary (time)'
p6154
g7
(g11
S':J7$e\xd3\xf2?'
p6155
tp6156
Rp6157
sg17
g88
sa(dp6158
g3
g6092
sS'acary (time)'
p6159
F1.1033129999996163
sS'p_ratio acary (time)'
p6160
g7
(g11
S'q\x01R\t%\xc9\x19@'
p6161
tp6162
Rp6163
sg17
g95
saa(lp6164
(dp6165
g3
S'Box_Stacks-i1000-549-94.hdf5'
p6166
sS'acary (time)'
p6167
F0.17112099999940256
sS'p_ratio acary (time)'
p6168
g7
(g11
S'\x00\x00\x00\x00\x00\x00\xf0?'
p6169
tp6170
Rp6171
sg17
g18
sa(dp6172
g3
g6166
sS'acary (time)'
p6173
F0.23974500000258558
sS'p_ratio acary (time)'
p6174
g7
(g11
S'K\xcc\x03l\x9aj\xf6?'
p6175
tp6176
Rp6177
sg17
g25
sa(dp6178
g3
g6166
sS'acary (time)'
p6179
F0.2506020000000717
sS'p_ratio acary (time)'
p6180
g7
(g11
S'\xae\xbek\xb9zn\xf7?'
p6181
tp6182
Rp6183
sg17
g32
sa(dp6184
g3
g6166
sS'acary (time)'
p6185
F0.4795350000022154
sS'p_ratio acary (time)'
p6186
g7
(g11
S'\xa8\xf9}K$k\x06@'
p6187
tp6188
Rp6189
sg17
g39
sa(dp6190
g3
g6166
sS'acary (time)'
p6191
F105.43597200000295
sS'p_ratio acary (time)'
p6192
g7
(g11
S'\x9d\x08\xeek0A\x83@'
p6193
tp6194
Rp6195
sg17
g46
sa(dp6196
g3
g6166
sS'acary (time)'
p6197
F0.4282030000031227
sS'p_ratio acary (time)'
p6198
g7
(g11
S'\x10\x96\xc5\x11\xcb\x04\x04@'
p6199
tp6200
Rp6201
sg17
g53
sa(dp6202
g3
g6166
sS'acary (time)'
p6203
F1.5105659999971977
sS'p_ratio acary (time)'
p6204
g7
(g11
S'\x16\xb0\x17\x89\xaa\xa7!@'
p6205
tp6206
Rp6207
sg17
g60
sa(dp6208
g3
g6166
sS'acary (time)'
p6209
F86.48034700000062
sS'p_ratio acary (time)'
p6210
g7
(g11
S'R\xc0\xe5\xb6\x01\x96\x7f@'
p6211
tp6212
Rp6213
sg17
g67
sa(dp6214
g3
g6166
sS'acary (time)'
p6215
F87.16045700000177
sS'p_ratio acary (time)'
p6216
g7
(g11
S'\x1e\x87d\x04\x99\xd5\x7f@'
p6217
tp6218
Rp6219
sg17
g74
sa(dp6220
g3
g6166
sS'acary (time)'
p6221
F0.34476400000130525
sS'p_ratio acary (time)'
p6222
g7
(g11
S'\xd5\xc8\x8b\x03/\x1e\x00@'
p6223
tp6224
Rp6225
sg17
g81
sa(dp6226
g3
g6166
sS'acary (time)'
p6227
F0.20037600000068778
sS'p_ratio acary (time)'
p6228
g7
(g11
S'\x93\x0b\xe3~A\xbc\xf2?'
p6229
tp6230
Rp6231
sg17
g88
sa(dp6232
g3
g6166
sS'acary (time)'
p6233
F1.101479000000836
sS'p_ratio acary (time)'
p6234
g7
(g11
S'5\xc2)\xc1S\xbf\x19@'
p6235
tp6236
Rp6237
sg17
g95
saa(lp6238
(dp6239
g3
S'Box_Stacks-i1000-549-95.hdf5'
p6240
sS'acary (time)'
p6241
F0.17082099999970524
sS'p_ratio acary (time)'
p6242
g7
(g11
S'\x00\x00\x00\x00\x00\x00\xf0?'
p6243
tp6244
Rp6245
sg17
g18
sa(dp6246
g3
g6240
sS'acary (time)'
p6247
F0.24038300000029267
sS'p_ratio acary (time)'
p6248
g7
(g11
S'\xceMl\xca\xfa\x83\xf6?'
p6249
tp6250
Rp6251
sg17
g25
sa(dp6252
g3
g6240
sS'acary (time)'
p6253
F0.2507259999983944
sS'p_ratio acary (time)'
p6254
g7
(g11
S';\x97\xd7\xc4\xfc{\xf7?'
p6255
tp6256
Rp6257
sg17
g32
sa(dp6258
g3
g6240
sS'acary (time)'
p6259
F0.48129400000107125
sS'p_ratio acary (time)'
p6260
g7
(g11
S'\xab\xab\\WO\x8a\x06@'
p6261
tp6262
Rp6263
sg17
g39
sa(dp6264
g3
g6240
sS'acary (time)'
p6265
F105.36644399999932
sS'p_ratio acary (time)'
p6266
g7
(g11
S'Caq\xf8\x96F\x83@'
p6267
tp6268
Rp6269
sg17
g46
sa(dp6270
g3
g6240
sS'acary (time)'
p6271
F0.4300629999997909
sS'p_ratio acary (time)'
p6272
g7
(g11
S'\xdf\xdd\x7f\xe6\x17$\x04@'
p6273
tp6274
Rp6275
sg17
g53
sa(dp6276
g3
g6240
sS'acary (time)'
p6277
F1.5139889999991283
sS'p_ratio acary (time)'
p6278
g7
(g11
S'c\xd6_\t\xdd\xb9!@'
p6279
tp6280
Rp6281
sg17
g60
sa(dp6282
g3
g6240
sS'acary (time)'
p6283
F86.53820600000108
sS'p_ratio acary (time)'
p6284
g7
(g11
S'8\x8a\xca}\xa0\xa9\x7f@'
p6285
tp6286
Rp6287
sg17
g67
sa(dp6288
g3
g6240
sS'acary (time)'
p6289
F87.01065799999924
sS'p_ratio acary (time)'
p6290
g7
(g11
S'+\xb4N\x18\xe1\xd5\x7f@'
p6291
tp6292
Rp6293
sg17
g74
sa(dp6294
g3
g6240
sS'acary (time)'
p6295
F0.3448529999986931
sS'p_ratio acary (time)'
p6296
g7
(g11
S'\xf4u\xa7G\x7f&\x00@'
p6297
tp6298
Rp6299
sg17
g81
sa(dp6300
g3
g6240
sS'acary (time)'
p6301
F0.2012109999996028
sS'p_ratio acary (time)'
p6302
g7
(g11
S'h\xbb8w\xb3\xd8\xf2?'
p6303
tp6304
Rp6305
sg17
g88
sa(dp6306
g3
g6240
sS'acary (time)'
p6307
F1.1009889999986626
sS'p_ratio acary (time)'
p6308
g7
(g11
S';7B6\xf7\xc7\x19@'
p6309
tp6310
Rp6311
sg17
g95
saa(lp6312
(dp6313
g3
S'Box_Stacks-i1000-549-96.hdf5'
p6314
sS'acary (time)'
p6315
F0.17152300000088871
sS'p_ratio acary (time)'
p6316
g7
(g11
S'\x00\x00\x00\x00\x00\x00\xf0?'
p6317
tp6318
Rp6319
sg17
g18
sa(dp6320
g3
g6314
sS'acary (time)'
p6321
F0.23971399999936693
sS'p_ratio acary (time)'
p6322
g7
(g11
S'\xaa\xa7\x9d\xcei\\\xf6?'
p6323
tp6324
Rp6325
sg17
g25
sa(dp6326
g3
g6314
sS'acary (time)'
p6327
F0.25051000000166823
sS'p_ratio acary (time)'
p6328
g7
(g11
S'\x93q\x0cF9^\xf7?'
p6329
tp6330
Rp6331
sg17
g32
sa(dp6332
g3
g6314
sS'acary (time)'
p6333
F0.4845839999979944
sS'p_ratio acary (time)'
p6334
g7
(g11
S'E\xd4\x16\xf6\xf9\x99\x06@'
p6335
tp6336
Rp6337
sg17
g39
sa(dp6338
g3
g6314
sS'acary (time)'
p6339
F105.72113599999648
sS'p_ratio acary (time)'
p6340
g7
(g11
S'd\x85\xf3\xd7\xefB\x83@'
p6341
tp6342
Rp6343
sg17
g46
sa(dp6344
g3
g6314
sS'acary (time)'
p6345
F0.4291250000023865
sS'p_ratio acary (time)'
p6346
g7
(g11
S'\x1b\xaa\x90}\xca\x03\x04@'
p6347
tp6348
Rp6349
sg17
g53
sa(dp6350
g3
g6314
sS'acary (time)'
p6351
F1.510880999998335
sS'p_ratio acary (time)'
p6352
g7
(g11
S'\xb4\x12\xd6~\x03\x9e!@'
p6353
tp6354
Rp6355
sg17
g60
sa(dp6356
g3
g6314
sS'acary (time)'
p6357
F86.90517900000123
sS'p_ratio acary (time)'
p6358
g7
(g11
S'Y\xd4uB\xaf\xaa\x7f@'
p6359
tp6360
Rp6361
sg17
g67
sa(dp6362
g3
g6314
sS'acary (time)'
p6363
F87.47204699999929
sS'p_ratio acary (time)'
p6364
g7
(g11
S'\xdd\xbfJ+\x90\xdf\x7f@'
p6365
tp6366
Rp6367
sg17
g74
sa(dp6368
g3
g6314
sS'acary (time)'
p6369
F0.34514000000126543
sS'p_ratio acary (time)'
p6370
g7
(g11
S' E\xf8\xa6\x00\x19\x00@'
p6371
tp6372
Rp6373
sg17
g81
sa(dp6374
g3
g6314
sS'acary (time)'
p6375
F0.20045399999798974
sS'p_ratio acary (time)'
p6376
g7
(g11
S'\xbdr\xc2\xa1\xe0\xb2\xf2?'
p6377
tp6378
Rp6379
sg17
g88
sa(dp6380
g3
g6314
sS'acary (time)'
p6381
F1.1020790000002307
sS'p_ratio acary (time)'
p6382
g7
(g11
S'\x19\xa5\xba\x06v\xb3\x19@'
p6383
tp6384
Rp6385
sg17
g95
saa(lp6386
(dp6387
g3
S'Box_Stacks-i1000-550-27.hdf5'
p6388
sS'acary (time)'
p6389
F0.1807669999980135
sS'p_ratio acary (time)'
p6390
g7
(g11
S'\x00\x00\x00\x00\x00\x00\xf0?'
p6391
tp6392
Rp6393
sg17
g18
sa(dp6394
g3
g6388
sS'acary (time)'
p6395
F0.2103129999995872
sS'p_ratio acary (time)'
p6396
g7
(g11
S'\xd4x\x8f\x9f{\x9d\xf2?'
p6397
tp6398
Rp6399
sg17
g25
sa(dp6400
g3
g6388
sS'acary (time)'
p6401
F0.23704300000099465
sS'p_ratio acary (time)'
p6402
g7
(g11
S'\xa5X@v(\xfb\xf4?'
p6403
tp6404
Rp6405
sg17
g32
sa(dp6406
g3
g6388
sS'acary (time)'
p6407
F0.44082200000048033
sS'p_ratio acary (time)'
p6408
g7
(g11
S'\r\xb7\xdd#K\x82\x03@'
p6409
tp6410
Rp6411
sg17
g39
sa(dp6412
g3
g6388
sS'acary (time)'
p6413
F104.18901499999993
sS'p_ratio acary (time)'
p6414
g7
(g11
S'\x8aPd\x9a\xf9\x02\x82@'
p6415
tp6416
Rp6417
sg17
g46
sa(dp6418
g3
g6388
sS'acary (time)'
p6419
F0.43398900000102003
sS'p_ratio acary (time)'
p6420
g7
(g11
S'd\xeb@\x08\xe14\x03@'
p6421
tp6422
Rp6423
sg17
g53
sa(dp6424
g3
g6388
sS'acary (time)'
p6425
F87.58342000000266
sS'p_ratio acary (time)'
p6426
g7
(g11
S'\xe8\x86\x94\xfa(H~@'
p6427
tp6428
Rp6429
sg17
g60
sa(dp6430
g3
g6388
sS'acary (time)'
p6431
F86.53426699999909
sS'p_ratio acary (time)'
p6432
g7
(g11
S'\xbd~\xc37L\xeb}@'
p6433
tp6434
Rp6435
sg17
g67
sa(dp6436
g3
g6388
sS'acary (time)'
p6437
F85.86826400000064
sS'p_ratio acary (time)'
p6438
g7
(g11
S'$I\xfb@Y\xb0}@'
p6439
tp6440
Rp6441
sg17
g74
sa(dp6442
g3
g6388
sS'acary (time)'
p6443
F0.5587679999989632
sS'p_ratio acary (time)'
p6444
g7
(g11
S'\x9e\x96O\x1a\x90\xba\x08@'
p6445
tp6446
Rp6447
sg17
g81
sa(dp6448
g3
g6388
sS'acary (time)'
p6449
F0.2931480000006559
sS'p_ratio acary (time)'
p6450
g7
(g11
S'ov\xd8\x00q\xf2\xf9?'
p6451
tp6452
Rp6453
sg17
g88
sa(dp6454
g3
g6388
sS'acary (time)'
p6455
F1.9364000000023225
sS'p_ratio acary (time)'
p6456
g7
(g11
S'7\x939\x97\x9cl%@'
p6457
tp6458
Rp6459
sg17
g95
saa(lp6460
(dp6461
g3
S'Box_Stacks-i1000-550-30.hdf5'
p6462
sS'acary (time)'
p6463
F0.18263800000204355
sS'p_ratio acary (time)'
p6464
g7
(g11
S'\x00\x00\x00\x00\x00\x00\xf0?'
p6465
tp6466
Rp6467
sg17
g18
sa(dp6468
g3
g6462
sS'acary (time)'
p6469
F0.22718900000108988
sS'p_ratio acary (time)'
p6470
g7
(g11
S'_.]\xca#\xe7\xf3?'
p6471
tp6472
Rp6473
sg17
g25
sa(dp6474
g3
g6462
sS'acary (time)'
p6475
F0.2140739999995276
sS'p_ratio acary (time)'
p6476
g7
(g11
S'\xfe\xb0V\xe5\x02\xc1\xf2?'
p6477
tp6478
Rp6479
sg17
g32
sa(dp6480
g3
g6462
sS'acary (time)'
p6481
F0.41548300000067684
sS'p_ratio acary (time)'
p6482
g7
(g11
S'\xec\xc1\x96<\xfe2\x02@'
p6483
tp6484
Rp6485
sg17
g39
sa(dp6486
g3
g6462
sS'acary (time)'
p6487
F105.15621300000203
sS'p_ratio acary (time)'
p6488
g7
(g11
S'w\xd3\t\xbd\x1a\xfe\x81@'
p6489
tp6490
Rp6491
sg17
g46
sa(dp6492
g3
g6462
sS'acary (time)'
p6493
F0.5021579999993264
sS'p_ratio acary (time)'
p6494
g7
(g11
S'\xb2\xa4\xb2\xfb\xea\xfe\x05@'
p6495
tp6496
Rp6497
sg17
g53
sa(dp6498
g3
g6462
sS'acary (time)'
p6499
F89.23255599999902
sS'p_ratio acary (time)'
p6500
g7
(g11
S'\x10\xec\x9a\x937\x89~@'
p6501
tp6502
Rp6503
sg17
g60
sa(dp6504
g3
g6462
sS'acary (time)'
p6505
F86.754277
sS'p_ratio acary (time)'
p6506
g7
(g11
S'\xc6\xb1\x8b\x84\x1b\xb0}@'
p6507
tp6508
Rp6509
sg17
g67
sa(dp6510
g3
g6462
sS'acary (time)'
p6511
F86.91228300000148
sS'p_ratio acary (time)'
p6512
g7
(g11
S'\xb1\xa1R\x19\xf3\xbd}@'
p6513
tp6514
Rp6515
sg17
g74
sa(dp6516
g3
g6462
sS'acary (time)'
p6517
F0.4758089999995718
sS'p_ratio acary (time)'
p6518
g7
(g11
S'\x80G}{t\xd7\x04@'
p6519
tp6520
Rp6521
sg17
g81
sa(dp6522
g3
g6462
sS'acary (time)'
p6523
F0.37533799999800976
sS'p_ratio acary (time)'
p6524
g7
(g11
S'\x18#\xeca\xd4p\x00@'
p6525
tp6526
Rp6527
sg17
g88
sa(dp6528
g3
g6462
sS'acary (time)'
p6529
F1.6500000000014552
sS'p_ratio acary (time)'
p6530
g7
(g11
S'#\xbd\xe0\x1d\x8b\x11"@'
p6531
tp6532
Rp6533
sg17
g95
saa(lp6534
(dp6535
g3
S'Box_Stacks-i1000-550-31.hdf5'
p6536
sS'acary (time)'
p6537
F0.1833839999999327
sS'p_ratio acary (time)'
p6538
g7
(g11
S'\x00\x00\x00\x00\x00\x00\xf0?'
p6539
tp6540
Rp6541
sg17
g18
sa(dp6542
g3
g6536
sS'acary (time)'
p6543
F0.22627099999954225
sS'p_ratio acary (time)'
p6544
g7
(g11
S'\xab\x80\xc4\xa8\xe8\xbd\xf3?'
p6545
tp6546
Rp6547
sg17
g25
sa(dp6548
g3
g6536
sS'acary (time)'
p6549
F0.2142279999970924
sS'p_ratio acary (time)'
p6550
g7
(g11
S'%\xf9\x8a\xaf\xeb\xb0\xf2?'
p6551
tp6552
Rp6553
sg17
g32
sa(dp6554
g3
g6536
sS'acary (time)'
p6555
F0.4162350000005972
sS'p_ratio acary (time)'
p6556
g7
(g11
S'3\x85\xbaMp(\x02@'
p6557
tp6558
Rp6559
sg17
g39
sa(dp6560
g3
g6536
sS'acary (time)'
p6561
F105.44802100000015
sS'p_ratio acary (time)'
p6562
g7
(g11
S'>\x8e\xc1\xcd\x18\xf8\x81@'
p6563
tp6564
Rp6565
sg17
g46
sa(dp6566
g3
g6536
sS'acary (time)'
p6567
F0.4580310000019381
sS'p_ratio acary (time)'
p6568
g7
(g11
S'\xd4\x9aJ\x815\xfb\x03@'
p6569
tp6570
Rp6571
sg17
g53
sa(dp6572
g3
g6536
sS'acary (time)'
p6573
F89.2845219999981
sS'p_ratio acary (time)'
p6574
g7
(g11
S'\xfd\xea\xcel\xf3m~@'
p6575
tp6576
Rp6577
sg17
g60
sa(dp6578
g3
g6536
sS'acary (time)'
p6579
F86.75038799999675
sS'p_ratio acary (time)'
p6580
g7
(g11
S'\xd7$\x14\xe8\xd9\x90}@'
p6581
tp6582
Rp6583
sg17
g67
sa(dp6584
g3
g6536
sS'acary (time)'
p6585
F86.95884599999772
sS'p_ratio acary (time)'
p6586
g7
(g11
S'\xd2\xfaU\xf3\t\xa3}@'
p6587
tp6588
Rp6589
sg17
g74
sa(dp6590
g3
g6536
sS'acary (time)'
p6591
F0.47716399999990244
sS'p_ratio acary (time)'
p6592
g7
(g11
S'\xd4Bg\t\xe2\xd0\x04@'
p6593
tp6594
Rp6595
sg17
g81
sa(dp6596
g3
g6536
sS'acary (time)'
p6597
F0.3884470000011788
sS'p_ratio acary (time)'
p6598
g7
(g11
S'&\xc1Ts\x1b\xf2\x00@'
p6599
tp6600
Rp6601
sg17
g88
sa(dp6602
g3
g6536
sS'acary (time)'
p6603
F1.6733260000000882
sS'p_ratio acary (time)'
p6604
g7
(g11
S'\x0f!f\x1e\xda?"@'
p6605
tp6606
Rp6607
sg17
g95
saa(lp6608
(dp6609
g3
S'Box_Stacks-i1000-550-32.hdf5'
p6610
sS'acary (time)'
p6611
F0.18268199999874923
sS'p_ratio acary (time)'
p6612
g7
(g11
S'\x00\x00\x00\x00\x00\x00\xf0?'
p6613
tp6614
Rp6615
sg17
g18
sa(dp6616
g3
g6610
sS'acary (time)'
p6617
F0.22677999999723397
sS'p_ratio acary (time)'
p6618
g7
(g11
S'i\xfc\xc2\x02\xbe\xdc\xf3?'
p6619
tp6620
Rp6621
sg17
g25
sa(dp6622
g3
g6610
sS'acary (time)'
p6623
F0.2139869999991788
sS'p_ratio acary (time)'
p6624
g7
(g11
S'\x87I\xba\x7f\xe7\xbd\xf2?'
p6625
tp6626
Rp6627
sg17
g32
sa(dp6628
g3
g6610
sS'acary (time)'
p6629
F0.4162140000007639
sS'p_ratio acary (time)'
p6630
g7
(g11
S'DYs\xe6\x10:\x02@'
p6631
tp6632
Rp6633
sg17
g39
sa(dp6634
g3
g6610
sS'acary (time)'
p6635
F105.50706899999932
sS'p_ratio acary (time)'
p6636
g7
(g11
S'\xdb\x19\xc3\x15\\\x0c\x82@'
p6637
tp6638
Rp6639
sg17
g46
sa(dp6640
g3
g6610
sS'acary (time)'
p6641
F0.45833700000002864
sS'p_ratio acary (time)'
p6642
g7
(g11
S'\xc2\x8c\xae\xc1K\x12\x04@'
p6643
tp6644
Rp6645
sg17
g53
sa(dp6646
g3
g6610
sS'acary (time)'
p6647
F43.93091600000116
sS'p_ratio acary (time)'
p6648
g7
(g11
S'\xb0fq\xebG\x0fn@'
p6649
tp6650
Rp6651
sg17
g60
sa(dp6652
g3
g6610
sS'acary (time)'
p6653
F86.63015299999824
sS'p_ratio acary (time)'
p6654
g7
(g11
S'\x9e_\xed\xdbg\xa3}@'
p6655
tp6656
Rp6657
sg17
g67
sa(dp6658
g3
g6610
sS'acary (time)'
p6659
F86.2477089999993
sS'p_ratio acary (time)'
p6660
g7
(g11
S'\x8eFy\xe6\xe8\x81}@'
p6661
tp6662
Rp6663
sg17
g74
sa(dp6664
g3
g6610
sS'acary (time)'
p6665
F0.47695199999725446
sS'p_ratio acary (time)'
p6666
g7
(g11
S'\xa07\xd6\xda\xfb\xe2\x04@'
p6667
tp6668
Rp6669
sg17
g81
sa(dp6670
g3
g6610
sS'acary (time)'
p6671
F0.376047000001563
sS'p_ratio acary (time)'
p6672
g7
(g11
S'E.\xf0\xa9\xc3w\x00@'
p6673
tp6674
Rp6675
sg17
g88
sa(dp6676
g3
g6610
sS'acary (time)'
p6677
F1.67540100000042
sS'p_ratio acary (time)'
p6678
g7
(g11
S'\x01\xa3\x8b\xcd\x9eW"@'
p6679
tp6680
Rp6681
sg17
g95
saa(lp6682
(dp6683
g3
S'Box_Stacks-i1000-550-33.hdf5'
p6684
sS'acary (time)'
p6685
F0.18245300000126008
sS'p_ratio acary (time)'
p6686
g7
(g11
S'\x00\x00\x00\x00\x00\x00\xf0?'
p6687
tp6688
Rp6689
sg17
g18
sa(dp6690
g3
g6684
sS'acary (time)'
p6691
F0.2271790000013425
sS'p_ratio acary (time)'
p6692
g7
(g11
S'\x96\xc5=\xe2\x14\xec\xf3?'
p6693
tp6694
Rp6695
sg17
g25
sa(dp6696
g3
g6684
sS'acary (time)'
p6697
F0.2144320000006701
sS'p_ratio acary (time)'
p6698
g7
(g11
S'O\xbc\x1b\x93\xea\xcd\xf2?'
p6699
tp6700
Rp6701
sg17
g32
sa(dp6702
g3
g6684
sS'acary (time)'
p6703
F0.40647700000045006
sS'p_ratio acary (time)'
p6704
g7
(g11
S'\xca7sc\xa0\xd2\x01@'
p6705
tp6706
Rp6707
sg17
g39
sa(dp6708
g3
g6684
sS'acary (time)'
p6709
F105.3459299999995
sS'p_ratio acary (time)'
p6710
g7
(g11
S'.\xad%\xe6\x17\x0b\x82@'
p6711
tp6712
Rp6713
sg17
g46
sa(dp6714
g3
g6684
sS'acary (time)'
p6715
F0.4588709999989078
sS'p_ratio acary (time)'
p6716
g7
(g11
S'f\x16*8\xbd\x1e\x04@'
p6717
tp6718
Rp6719
sg17
g53
sa(dp6720
g3
g6684
sS'acary (time)'
p6721
F88.28736099999878
sS'p_ratio acary (time)'
p6722
g7
(g11
S'l\x07dtA>~@'
p6723
tp6724
Rp6725
sg17
g60
sa(dp6726
g3
g6684
sS'acary (time)'
p6727
F86.52573699999994
sS'p_ratio acary (time)'
p6728
g7
(g11
S'Q\xbc\x96\xab\xc5\xa3}@'
p6729
tp6730
Rp6731
sg17
g67
sa(dp6732
g3
g6684
sS'acary (time)'
p6733
F86.99359900000127
sS'p_ratio acary (time)'
p6734
g7
(g11
S'\xd8\xbc8\xfe\xcc\xcc}@'
p6735
tp6736
Rp6737
sg17
g74
sa(dp6738
g3
g6684
sS'acary (time)'
p6739
F0.46307399999932386
sS'p_ratio acary (time)'
p6740
g7
(g11
S'R`\x15\xc1\xeaM\x04@'
p6741
tp6742
Rp6743
sg17
g81
sa(dp6744
g3
g6684
sS'acary (time)'
p6745
F0.3197059999984049
sS'p_ratio acary (time)'
p6746
g7
(g11
S'\xc2\x92h\xfdF\t\xfc?'
p6747
tp6748
Rp6749
sg17
g88
sa(dp6750
g3
g6684
sS'acary (time)'
p6751
F1.5005829999972775
sS'p_ratio acary (time)'
p6752
g7
(g11
S'\x94w\x9dq\xf0r @'
p6753
tp6754
Rp6755
sg17
g95
saa(lp6756
(dp6757
g3
S'Box_Stacks-i1000-550-34.hdf5'
p6758
sS'acary (time)'
p6759
F0.1832509999985632
sS'p_ratio acary (time)'
p6760
g7
(g11
S'\x00\x00\x00\x00\x00\x00\xf0?'
p6761
tp6762
Rp6763
sg17
g18
sa(dp6764
g3
g6758
sS'acary (time)'
p6765
F0.2274939999988419
sS'p_ratio acary (time)'
p6766
g7
(g11
S'\xd08\xc1\xc5\xe9\xdc\xf3?'
p6767
tp6768
Rp6769
sg17
g25
sa(dp6770
g3
g6758
sS'acary (time)'
p6771
F0.21350299999903655
sS'p_ratio acary (time)'
p6772
g7
(g11
S'\xe3\x9e\xf270\xa4\xf2?'
p6773
tp6774
Rp6775
sg17
g32
sa(dp6776
g3
g6758
sS'acary (time)'
p6777
F0.4164459999992687
sS'p_ratio acary (time)'
p6778
g7
(g11
S'\xfaG\\\xa9+.\x02@'
p6779
tp6780
Rp6781
sg17
g39
sa(dp6782
g3
g6758
sS'acary (time)'
p6783
F105.42336499999874
sS'p_ratio acary (time)'
p6784
g7
(g11
S'\x88Qy\xf2[\xfa\x81@'
p6785
tp6786
Rp6787
sg17
g46
sa(dp6788
g3
g6758
sS'acary (time)'
p6789
F0.45766999999978
sS'p_ratio acary (time)'
p6790
g7
(g11
S'U\x90G\x13\xe3\xfa\x03@'
p6791
tp6792
Rp6793
sg17
g53
sa(dp6794
g3
g6758
sS'acary (time)'
p6795
F87.93895799999882
sS'p_ratio acary (time)'
p6796
g7
(g11
S'Rt\x80\xf1\x1e\xfe}@'
p6797
tp6798
Rp6799
sg17
g60
sa(dp6800
g3
g6758
sS'acary (time)'
p6801
F86.36937100000068
sS'p_ratio acary (time)'
p6802
g7
(g11
S'\x98\x0c\xad\xc2\x13u}@'
p6803
tp6804
Rp6805
sg17
g67
sa(dp6806
g3
g6758
sS'acary (time)'
p6807
F87.83150899999964
sS'p_ratio acary (time)'
p6808
g7
(g11
S'V\xbc>B\xbd\xf4}@'
p6809
tp6810
Rp6811
sg17
g74
sa(dp6812
g3
g6758
sS'acary (time)'
p6813
F0.4499419999992824
sS'p_ratio acary (time)'
p6814
g7
(g11
S'\x03\xd0\x0e\xfa\x84\xa4\x03@'
p6815
tp6816
Rp6817
sg17
g81
sa(dp6818
g3
g6758
sS'acary (time)'
p6819
F0.32163800000125775
sS'p_ratio acary (time)'
p6820
g7
(g11
S'\x0ex\xa0\xd14\x15\xfc?'
p6821
tp6822
Rp6823
sg17
g88
sa(dp6824
g3
g6758
sS'acary (time)'
p6825
F1.4980439999999362
sS'p_ratio acary (time)'
p6826
g7
(g11
S'{\xdf\xd2\x0c\x82Y @'
p6827
tp6828
Rp6829
sg17
g95
saa(lp6830
(dp6831
g3
S'Box_Stacks-i1000-550-35.hdf5'
p6832
sS'acary (time)'
p6833
F0.18251500000042142
sS'p_ratio acary (time)'
p6834
g7
(g11
S'\x00\x00\x00\x00\x00\x00\xf0?'
p6835
tp6836
Rp6837
sg17
g18
sa(dp6838
g3
g6832
sS'acary (time)'
p6839
F0.21627299999818206
sS'p_ratio acary (time)'
p6840
g7
(g11
S'\xd6\xfa\x96\xc3\x98\xf5\xf2?'
p6841
tp6842
Rp6843
sg17
g25
sa(dp6844
g3
g6832
sS'acary (time)'
p6845
F0.1951119999976072
sS'p_ratio acary (time)'
p6846
g7
(g11
S'\xf9-\xa3\xa6\xb3\x1a\xf1?'
p6847
tp6848
Rp6849
sg17
g32
sa(dp6850
g3
g6832
sS'acary (time)'
p6851
F0.4167510000006587
sS'p_ratio acary (time)'
p6852
g7
(g11
S'\x1f.\xb5q\\D\x02@'
p6853
tp6854
Rp6855
sg17
g39
sa(dp6856
g3
g6832
sS'acary (time)'
p6857
F105.85944600000221
sS'p_ratio acary (time)'
p6858
g7
(g11
S'\x80\xad\xf0^\x08 \x82@'
p6859
tp6860
Rp6861
sg17
g46
sa(dp6862
g3
g6832
sS'acary (time)'
p6863
F0.4497650000012072
sS'p_ratio acary (time)'
p6864
g7
(g11
S'\xc99h\xa1\xcf\xb6\x03@'
p6865
tp6866
Rp6867
sg17
g53
sa(dp6868
g3
g6832
sS'acary (time)'
p6869
F88.02963699999964
sS'p_ratio acary (time)'
p6870
g7
(g11
S'N\xf6\xceS\x08%~@'
p6871
tp6872
Rp6873
sg17
g60
sa(dp6874
g3
g6832
sS'acary (time)'
p6875
F86.72132699999929
sS'p_ratio acary (time)'
p6876
g7
(g11
S'Z\x8b\xfc>W\xb2}@'
p6877
tp6878
Rp6879
sg17
g67
sa(dp6880
g3
g6832
sS'acary (time)'
p6881
F87.02007500000036
sS'p_ratio acary (time)'
p6882
g7
(g11
S';"\xf9\xbe\x87\xcc}@'
p6883
tp6884
Rp6885
sg17
g74
sa(dp6886
g3
g6832
sS'acary (time)'
p6887
F0.45020799999838346
sS'p_ratio acary (time)'
p6888
g7
(g11
S'\x14\xda_.\xc8\xbb\x03@'
p6889
tp6890
Rp6891
sg17
g81
sa(dp6892
g3
g6832
sS'acary (time)'
p6893
F0.3199050000002899
sS'p_ratio acary (time)'
p6894
g7
(g11
S'\xd8\xa4\x81\x1eN\x0b\xfc?'
p6895
tp6896
Rp6897
sg17
g88
sa(dp6898
g3
g6832
sS'acary (time)'
p6899
F1.500130000000354
sS'p_ratio acary (time)'
p6900
g7
(g11
S'\xee\xb5\x14\xee<p @'
p6901
tp6902
Rp6903
sg17
g95
saa(lp6904
(dp6905
g3
S'Box_Stacks-i1000-551-15.hdf5'
p6906
sS'acary (time)'
p6907
F0.33953699999983655
sS'p_ratio acary (time)'
p6908
g7
(g11
S'"\xb9\xf5\xbd+}\xfa?'
p6909
tp6910
Rp6911
sg17
g18
sa(dp6912
g3
g6906
sS'acary (time)'
p6913
F0.2050889999991341
sS'p_ratio acary (time)'
p6914
g7
(g11
S'\x00\x00\x00\x00\x00\x00\xf0?'
p6915
tp6916
Rp6917
sg17
g25
sa(dp6918
g3
g6906
sS'acary (time)'
p6919
F0.22410999999920023
sS'p_ratio acary (time)'
p6920
g7
(g11
S'\xde;tI\xe2{\xf1?'
p6921
tp6922
Rp6923
sg17
g32
sa(dp6924
g3
g6906
sS'acary (time)'
p6925
F0.42800200000056066
sS'p_ratio acary (time)'
p6926
g7
(g11
S'\x99\xf2;$\xfd\xb1\x00@'
p6927
tp6928
Rp6929
sg17
g39
sa(dp6930
g3
g6906
sS'acary (time)'
p6931
F98.79445099999793
sS'p_ratio acary (time)'
p6932
g7
(g11
S'\xe0\xf0\x0b\xb5p\x1b~@'
p6933
tp6934
Rp6935
sg17
g46
sa(dp6936
g3
g6906
sS'acary (time)'
p6937
F0.4317749999972875
sS'p_ratio acary (time)'
p6938
g7
(g11
S'\x0e\x95(i\xaa\xd7\x00@'
p6939
tp6940
Rp6941
sg17
g53
sa(dp6942
g3
g6906
sS'acary (time)'
p6943
F1.0791539999991073
sS'p_ratio acary (time)'
p6944
g7
(g11
S'\xcad\x13\xa5*\x0c\x15@'
p6945
tp6946
Rp6947
sg17
g60
sa(dp6948
g3
g6906
sS'acary (time)'
p6949
F86.58661099999881
sS'p_ratio acary (time)'
p6950
g7
(g11
S'z\xfe\x99\xf5\x0bcz@'
p6951
tp6952
Rp6953
sg17
g67
sa(dp6954
g3
g6906
sS'acary (time)'
p6955
F86.80044300000009
sS'p_ratio acary (time)'
p6956
g7
(g11
S'\x03\xb1\xae\x92\xbasz@'
p6957
tp6958
Rp6959
sg17
g74
sa(dp6960
g3
g6906
sS'acary (time)'
p6961
F1.035422999997536
sS'p_ratio acary (time)'
p6962
g7
(g11
S'r\x08\xb7\xd7\xd11\x14@'
p6963
tp6964
Rp6965
sg17
g81
sa(dp6966
g3
g6906
sS'acary (time)'
p6967
F0.3659479999987525
sS'p_ratio acary (time)'
p6968
g7
(g11
S'\xee\xeb\xed\x82\xa5\x8c\xfc?'
p6969
tp6970
Rp6971
sg17
g88
sa(dp6972
g3
g6906
sS'acary (time)'
p6973
F1.9961519999997108
sS'p_ratio acary (time)'
p6974
g7
(g11
S'\xbcq\xac\x0bYw#@'
p6975
tp6976
Rp6977
sg17
g95
saa(lp6978
(dp6979
g3
S'Box_Stacks-i1000-551-19.hdf5'
p6980
sS'acary (time)'
p6981
F0.27487699999983306
sS'p_ratio acary (time)'
p6982
g7
(g11
S'\x1f\xa0\x04\xa5\x8b\x90\xf7?'
p6983
tp6984
Rp6985
sg17
g18
sa(dp6986
g3
g6980
sS'acary (time)'
p6987
F0.20934200000192504
sS'p_ratio acary (time)'
p6988
g7
(g11
S'\xf9\x9f\x10\xb1J\xf2\xf1?'
p6989
tp6990
Rp6991
sg17
g25
sa(dp6992
g3
g6980
sS'acary (time)'
p6993
F0.18663699999888195
sS'p_ratio acary (time)'
p6994
g7
(g11
S'\x00\x00\x00\x00\x00\x00\xf0?'
p6995
tp6996
Rp6997
sg17
g32
sa(dp6998
g3
g6980
sS'acary (time)'
p6999
F0.3594970000012836
sS'p_ratio acary (time)'
p7000
g7
(g11
S'0\xa0\x1d,\xa5\xd1\xfe?'
p7001
tp7002
Rp7003
sg17
g39
sa(dp7004
g3
g6980
sS'acary (time)'
p7005
F101.51496899999984
sS'p_ratio acary (time)'
p7006
g7
(g11
S"'\xdf\xb6DU\xff\x80@"
p7007
tp7008
Rp7009
sg17
g46
sa(dp7010
g3
g6980
sS'acary (time)'
p7011
F0.39481399999931455
sS'p_ratio acary (time)'
p7012
g7
(g11
S'\x9fM\xf4\xb4\\\xec\x00@'
p7013
tp7014
Rp7015
sg17
g53
sa(dp7016
g3
g6980
sS'acary (time)'
p7017
F1.8547360000011395
sS'p_ratio acary (time)'
p7018
g7
(g11
S'\x8e_\x9c\xa3\x15\xe0#@'
p7019
tp7020
Rp7021
sg17
g60
sa(dp7022
g3
g6980
sS'acary (time)'
p7023
F86.51113799999803
sS'p_ratio acary (time)'
p7024
g7
(g11
S'{Y\xe3Hk\xf8|@'
p7025
tp7026
Rp7027
sg17
g67
sa(dp7028
g3
g6980
sS'acary (time)'
p7029
F87.19202799999766
sS'p_ratio acary (time)'
p7030
g7
(g11
S'\xf6}\xe3T\xca2}@'
p7031
tp7032
Rp7033
sg17
g74
sa(dp7034
g3
g6980
sS'acary (time)'
p7035
F121.96401700000206
sS'p_ratio acary (time)'
p7036
g7
(g11
S'\x97W53\xdck\x84@'
p7037
tp7038
Rp7039
sg17
g81
sa(dp7040
g3
g6980
sS'acary (time)'
p7041
F0.2995040000023437
sS'p_ratio acary (time)'
p7042
g7
(g11
S'n\xef\xea\xa3\x04\xad\xf9?'
p7043
tp7044
Rp7045
sg17
g88
sa(dp7046
g3
g6980
sS'acary (time)'
p7047
F1.3563649999996414
sS'p_ratio acary (time)'
p7048
g7
(g11
S'\x17}bF\xd0\x11\x1d@'
p7049
tp7050
Rp7051
sg17
g95
saa(lp7052
(dp7053
g3
S'Box_Stacks-i1000-551-20.hdf5'
p7054
sS'acary (time)'
p7055
F0.3929009999992559
sS'p_ratio acary (time)'
p7056
g7
(g11
S'Dzpn\x98\x80\xfc?'
p7057
tp7058
Rp7059
sg17
g18
sa(dp7060
g3
g7054
sS'acary (time)'
p7061
F0.2205580000008922
sS'p_ratio acary (time)'
p7062
g7
(g11
S'\x00\x00\x00\x00\x00\x00\xf0?'
p7063
tp7064
Rp7065
sg17
g25
sa(dp7066
g3
g7054
sS'acary (time)'
p7067
F0.28314299999692594
sS'p_ratio acary (time)'
p7068
g7
(g11
S'2+\x1b^E\x8a\xf4?'
p7069
tp7070
Rp7071
sg17
g32
sa(dp7072
g3
g7054
sS'acary (time)'
p7073
F0.3685139999979583
sS'p_ratio acary (time)'
p7074
g7
(g11
S'\x8e\x0ej\xd9\xb3\xbb\xfa?'
p7075
tp7076
Rp7077
sg17
g39
sa(dp7078
g3
g7054
sS'acary (time)'
p7079
F100.21108199999799
sS'p_ratio acary (time)'
p7080
g7
(g11
S'\xaa,\xc0\xe6\xa3e|@'
p7081
tp7082
Rp7083
sg17
g46
sa(dp7084
g3
g7054
sS'acary (time)'
p7085
F0.38538100000005215
sS'p_ratio acary (time)'
p7086
g7
(g11
S'A\xb6L\xe0\xf0\xf4\xfb?'
p7087
tp7088
Rp7089
sg17
g53
sa(dp7090
g3
g7054
sS'acary (time)'
p7091
F1.923852000003535
sS'p_ratio acary (time)'
p7092
g7
(g11
S'i\xfe<:\x00r!@'
p7093
tp7094
Rp7095
sg17
g60
sa(dp7096
g3
g7054
sS'acary (time)'
p7097
F86.85034300000189
sS'p_ratio acary (time)'
p7098
g7
(g11
S'\xa3\xf9\x7f\x90h\x9cx@'
p7099
tp7100
Rp7101
sg17
g67
sa(dp7102
g3
g7054
sS'acary (time)'
p7103
F87.203636000002
sS'p_ratio acary (time)'
p7104
g7
(g11
S'>\xad\xba\x98\t\xb6x@'
p7105
tp7106
Rp7107
sg17
g74
sa(dp7108
g3
g7054
sS'acary (time)'
p7109
F118.12516099999993
sS'p_ratio acary (time)'
p7110
g7
(g11
S'\xec\x89N\xd6\x97\xbc\x80@'
p7111
tp7112
Rp7113
sg17
g81
sa(dp7114
g3
g7054
sS'acary (time)'
p7115
F0.3237090000002354
sS'p_ratio acary (time)'
p7116
g7
(g11
S'\x11\xda\xf3\x16\xa0{\xf7?'
p7117
tp7118
Rp7119
sg17
g88
sa(dp7120
g3
g7054
sS'acary (time)'
p7121
F1.7509189999982482
sS'p_ratio acary (time)'
p7122
g7
(g11
S'\x0c\xc0j\x1a\x1d\xc1\x1f@'
p7123
tp7124
Rp7125
sg17
g95
saa(lp7126
(dp7127
g3
S'Box_Stacks-i1000-551-28.hdf5'
p7128
sS'acary (time)'
p7129
F0.18190400000094087
sS'p_ratio acary (time)'
p7130
g7
(g11
S'\x00\x00\x00\x00\x00\x00\xf0?'
p7131
tp7132
Rp7133
sg17
g18
sa(dp7134
g3
g7128
sS'acary (time)'
p7135
F0.2159319999991567
sS'p_ratio acary (time)'
p7136
g7
(g11
S'\xe6;\xd1\x9b8\xfe\xf2?'
p7137
tp7138
Rp7139
sg17
g25
sa(dp7140
g3
g7128
sS'acary (time)'
p7141
F0.21468100000129198
sS'p_ratio acary (time)'
p7142
g7
(g11
S'\xba+\x06I\r\xe2\xf2?'
p7143
tp7144
Rp7145
sg17
g32
sa(dp7146
g3
g7128
sS'acary (time)'
p7147
F0.4057890000003681
sS'p_ratio acary (time)'
p7148
g7
(g11
S'\xa2i\xe8\xa0\xa6\xd8\x01@'
p7149
tp7150
Rp7151
sg17
g39
sa(dp7152
g3
g7128
sS'acary (time)'
p7153
F105.46326100000078
sS'p_ratio acary (time)'
p7154
g7
(g11
S'\xfd\xaf\xc7\xba1\x1e\x82@'
p7155
tp7156
Rp7157
sg17
g46
sa(dp7158
g3
g7128
sS'acary (time)'
p7159
F0.49726300000111223
sS'p_ratio acary (time)'
p7160
g7
(g11
S'\xbb\xfd5&\x87\xde\x05@'
p7161
tp7162
Rp7163
sg17
g53
sa(dp7164
g3
g7128
sS'acary (time)'
p7165
F39.96853000000192
sS'p_ratio acary (time)'
p7166
g7
(g11
S'\xfe\xa0*\x80$wk@'
p7167
tp7168
Rp7169
sg17
g60
sa(dp7170
g3
g7128
sS'acary (time)'
p7171
F86.68349899999885
sS'p_ratio acary (time)'
p7172
g7
(g11
S'\xd2\xefp\x93\x8c\xc8}@'
p7173
tp7174
Rp7175
sg17
g67
sa(dp7176
g3
g7128
sS'acary (time)'
p7177
F87.3153710000006
sS'p_ratio acary (time)'
p7178
g7
(g11
S'\x93\xd35\xac \x00~@'
p7179
tp7180
Rp7181
sg17
g74
sa(dp7182
g3
g7128
sS'acary (time)'
p7183
F0.48996700000134297
sS'p_ratio acary (time)'
p7184
g7
(g11
S'\xae\x85)rb\x8c\x05@'
p7185
tp7186
Rp7187
sg17
g81
sa(dp7188
g3
g7128
sS'acary (time)'
p7189
F0.37586300000111805
sS'p_ratio acary (time)'
p7190
g7
(g11
S'\x01\xd4\x934\xb9\x87\x00@'
p7191
tp7192
Rp7193
sg17
g88
sa(dp7194
g3
g7128
sS'acary (time)'
p7195
F0.8912259999997332
sS'p_ratio acary (time)'
p7196
g7
(g11
S'\xe4\xf2\x01M\x04\x99\x13@'
p7197
tp7198
Rp7199
sg17
g95
saa(lp7200
(dp7201
g3
S'Box_Stacks-i1000-551-29.hdf5'
p7202
sS'acary (time)'
p7203
F0.18229900000005728
sS'p_ratio acary (time)'
p7204
g7
(g11
S'\x00\x00\x00\x00\x00\x00\xf0?'
p7205
tp7206
Rp7207
sg17
g18
sa(dp7208
g3
g7202
sS'acary (time)'
p7209
F0.2279579999994894
sS'p_ratio acary (time)'
p7210
g7
(g11
S')\xe64\x9a\xe4\x01\xf4?'
p7211
tp7212
Rp7213
sg17
g25
sa(dp7214
g3
g7202
sS'acary (time)'
p7215
F0.21546200000011595
sS'p_ratio acary (time)'
p7216
g7
(g11
S'P\xd3\xf8% \xe9\xf2?'
p7217
tp7218
Rp7219
sg17
g32
sa(dp7220
g3
g7202
sS'acary (time)'
p7221
F0.416495000001305
sS'p_ratio acary (time)'
p7222
g7
(g11
S'\xe6\x9a\xa8\xa7\x06G\x02@'
p7223
tp7224
Rp7225
sg17
g39
sa(dp7226
g3
g7202
sS'acary (time)'
p7227
F105.3150710000009
sS'p_ratio acary (time)'
p7228
g7
(g11
S'/\xe9G%\xa4\r\x82@'
p7229
tp7230
Rp7231
sg17
g46
sa(dp7232
g3
g7202
sS'acary (time)'
p7233
F0.5281679999970947
sS'p_ratio acary (time)'
p7234
g7
(g11
S'R\x11\x94\xcc\x97-\x07@'
p7235
tp7236
Rp7237
sg17
g53
sa(dp7238
g3
g7202
sS'acary (time)'
p7239
F40.43371200000183
sS'p_ratio acary (time)'
p7240
g7
(g11
S'\x08*~U\x90\xb9k@'
p7241
tp7242
Rp7243
sg17
g60
sa(dp7244
g3
g7202
sS'acary (time)'
p7245
F86.74978600000031
sS'p_ratio acary (time)'
p7246
g7
(g11
S'\x06\xefz\xaa\xd8\xbd}@'
p7247
tp7248
Rp7249
sg17
g67
sa(dp7250
g3
g7202
sS'acary (time)'
p7251
F86.0404750000016
sS'p_ratio acary (time)'
p7252
g7
(g11
S'\x12\xe8$t\x97\x7f}@'
p7253
tp7254
Rp7255
sg17
g74
sa(dp7256
g3
g7202
sS'acary (time)'
p7257
F0.4758980000005977
sS'p_ratio acary (time)'
p7258
g7
(g11
S'"\x99}g`\xe2\x04@'
p7259
tp7260
Rp7261
sg17
g81
sa(dp7262
g3
g7202
sS'acary (time)'
p7263
F0.38086699999985285
sS'p_ratio acary (time)'
p7264
g7
(g11
S'/\xfc6K\xc5\xb6\x00@'
p7265
tp7266
Rp7267
sg17
g88
sa(dp7268
g3
g7202
sS'acary (time)'
p7269
F1.4643810000015947
sS'p_ratio acary (time)'
p7270
g7
(g11
S"'\xb5\x0b\x0f\xd2\x10 @"
p7271
tp7272
Rp7273
sg17
g95
saa(lp7274
(dp7275
g3
S'Box_Stacks-i1000-556-16.hdf5'
p7276
sS'acary (time)'
p7277
F0.3910280000018247
sS'p_ratio acary (time)'
p7278
g7
(g11
S'\xdc\xc1)~\xb0"\xfa?'
p7279
tp7280
Rp7281
sg17
g18
sa(dp7282
g3
g7276
sS'acary (time)'
p7283
F0.23938499999712803
sS'p_ratio acary (time)'
p7284
g7
(g11
S'\x00\x00\x00\x00\x00\x00\xf0?'
p7285
tp7286
Rp7287
sg17
g25
sa(dp7288
g3
g7276
sS'acary (time)'
p7289
F0.25080700000034994
sS'p_ratio acary (time)'
p7290
g7
(g11
S'tt\x88\xafo\xc3\xf0?'
p7291
tp7292
Rp7293
sg17
g32
sa(dp7294
g3
g7276
sS'acary (time)'
p7295
F0.4630440000000817
sS'p_ratio acary (time)'
p7296
g7
(g11
S'\xb2\x03\x8c\x8a\xeb\xf2\xfe?'
p7297
tp7298
Rp7299
sg17
g39
sa(dp7300
g3
g7276
sS'acary (time)'
p7301
F100.23665099999926
sS'p_ratio acary (time)'
p7302
g7
(g11
S't\xfc\x90t\x9c+z@'
p7303
tp7304
Rp7305
sg17
g46
sa(dp7306
g3
g7276
sS'acary (time)'
p7307
F0.44119799999680254
sS'p_ratio acary (time)'
p7308
g7
(g11
S'\xf9"P\xb3\x1f}\xfd?'
p7309
tp7310
Rp7311
sg17
g53
sa(dp7312
g3
g7276
sS'acary (time)'
p7313
F1.8083829999995942
sS'p_ratio acary (time)'
p7314
g7
(g11
S'\x14\xc3\xba\x04\x977\x1e@'
p7315
tp7316
Rp7317
sg17
g60
sa(dp7318
g3
g7276
sS'acary (time)'
p7319
F87.05512399999861
sS'p_ratio acary (time)'
p7320
g7
(g11
S'\x1f\xf2U\xc6\x95\xbav@'
p7321
tp7322
Rp7323
sg17
g67
sa(dp7324
g3
g7276
sS'acary (time)'
p7325
F86.82148099999904
sS'p_ratio acary (time)'
p7326
g7
(g11
S'\xcc\xb2\xf7\x05\xf8\xaav@'
p7327
tp7328
Rp7329
sg17
g74
sa(dp7330
g3
g7276
sS'acary (time)'
p7331
F0.6937829999988026
sS'p_ratio acary (time)'
p7332
g7
(g11
S'\xfa\xa2\x9b\xc5}/\x07@'
p7333
tp7334
Rp7335
sg17
g81
sa(dp7336
g3
g7276
sS'acary (time)'
p7337
F0.47813200000018696
sS'p_ratio acary (time)'
p7338
g7
(g11
S'\x9b\xc5\xcf_\x15\xf5\xff?'
p7339
tp7340
Rp7341
sg17
g88
sa(dp7342
g3
g7276
sS'acary (time)'
p7343
F1.5041940000010072
sS'p_ratio acary (time)'
p7344
g7
(g11
S'\x987\xdd\xeba"\x19@'
p7345
tp7346
Rp7347
sg17
g95
saa(lp7348
(dp7349
g3
S'Box_Stacks-i1000-557-13.hdf5'
p7350
sS'acary (time)'
p7351
F0.41020900000148686
sS'p_ratio acary (time)'
p7352
g7
(g11
S'\xb3\xe5\xcd<)\xf9\xfb?'
p7353
tp7354
Rp7355
sg17
g18
sa(dp7356
g3
g7350
sS'acary (time)'
p7357
F0.23462900000231457
sS'p_ratio acary (time)'
p7358
g7
(g11
S'\x00\x00\x00\x00\x00\x00\xf0?'
p7359
tp7360
Rp7361
sg17
g25
sa(dp7362
g3
g7350
sS'acary (time)'
p7363
F0.2664890000014566
sS'p_ratio acary (time)'
p7364
g7
(g11
S'\x05\x17{\xeb0,\xf2?'
p7365
tp7366
Rp7367
sg17
g32
sa(dp7368
g3
g7350
sS'acary (time)'
p7369
F0.3155059999990044
sS'p_ratio acary (time)'
p7370
g7
(g11
S'\x82\xef\xa9\xdc\xe5\x83\xf5?'
p7371
tp7372
Rp7373
sg17
g39
sa(dp7374
g3
g7350
sS'acary (time)'
p7375
F98.94786999999997
sS'p_ratio acary (time)'
p7376
g7
(g11
S'\xb9VK[\x87[z@'
p7377
tp7378
Rp7379
sg17
g46
sa(dp7380
g3
g7350
sS'acary (time)'
p7381
F0.3978160000006028
sS'p_ratio acary (time)'
p7382
g7
(g11
S"\xd6'\xc0\xea\xcf \xfb?"
p7383
tp7384
Rp7385
sg17
g53
sa(dp7386
g3
g7350
sS'acary (time)'
p7387
F1.3280129999984638
sS'p_ratio acary (time)'
p7388
g7
(g11
S'2\xddwh\xe5\xa3\x16@'
p7389
tp7390
Rp7391
sg17
g60
sa(dp7392
g3
g7350
sS'acary (time)'
p7393
F87.47394200000053
sS'p_ratio acary (time)'
p7394
g7
(g11
S'{.\xf7\x01\x17Mw@'
p7395
tp7396
Rp7397
sg17
g67
sa(dp7398
g3
g7350
sS'acary (time)'
p7399
F86.62331300000005
sS'p_ratio acary (time)'
p7400
g7
(g11
S' \xd0\x15H\x15\x13w@'
p7401
tp7402
Rp7403
sg17
g74
sa(dp7404
g3
g7350
sS'acary (time)'
p7405
F0.5897019999974873
sS'p_ratio acary (time)'
p7406
g7
(g11
S'Sc\x93\xfeP\x1b\x04@'
p7407
tp7408
Rp7409
sg17
g81
sa(dp7410
g3
g7350
sS'acary (time)'
p7411
F0.30820500000118045
sS'p_ratio acary (time)'
p7412
g7
(g11
S'\x85e\x0e\x1aq\x04\xf5?'
p7413
tp7414
Rp7415
sg17
g88
sa(dp7416
g3
g7350
sS'acary (time)'
p7417
F0.47951499999908265
sS'p_ratio acary (time)'
p7418
g7
(g11
S'\xe24\x88\xae\x87Y\x00@'
p7419
tp7420
Rp7421
sg17
g95
saa(lp7422
(dp7423
g3
S'Box_Stacks-i1000-558-18.hdf5'
p7424
sS'acary (time)'
p7425
F0.3453769999978249
sS'p_ratio acary (time)'
p7426
g7
(g11
S'\xae\x8d$\x05\xce=\xfb?'
p7427
tp7428
Rp7429
sg17
g18
sa(dp7430
g3
g7424
sS'acary (time)'
p7431
F0.20285399999920628
sS'p_ratio acary (time)'
p7432
g7
(g11
S'\x00\x00\x00\x00\x00\x00\xf0?'
p7433
tp7434
Rp7435
sg17
g25
sa(dp7436
g3
g7424
sS'acary (time)'
p7437
F0.25641600000017206
sS'p_ratio acary (time)'
p7438
g7
(g11
S'h\xc2\x9b:\x849\xf4?'
p7439
tp7440
Rp7441
sg17
g32
sa(dp7442
g3
g7424
sS'acary (time)'
p7443
F0.3923660000000382
sS'p_ratio acary (time)'
p7444
g7
(g11
S'?v\x1a\xa5\x99\xf2\xfe?'
p7445
tp7446
Rp7447
sg17
g39
sa(dp7448
g3
g7424
sS'acary (time)'
p7449
F101.85627700000259
sS'p_ratio acary (time)'
p7450
g7
(g11
S'?\xe7\xe9\xe6\xdba\x7f@'
p7451
tp7452
Rp7453
sg17
g46
sa(dp7454
g3
g7424
sS'acary (time)'
p7455
F0.42458999999871594
sS'p_ratio acary (time)'
p7456
g7
(g11
S'\x8c\xb8|\xa1\xa1\xbe\x00@'
p7457
tp7458
Rp7459
sg17
g53
sa(dp7460
g3
g7424
sS'acary (time)'
p7461
F2.475989999999001
sS'p_ratio acary (time)'
p7462
g7
(g11
S'\x10\xfc\x9f([i(@'
p7463
tp7464
Rp7465
sg17
g60
sa(dp7466
g3
g7424
sS'acary (time)'
p7467
F87.5984329999992
sS'p_ratio acary (time)'
p7468
g7
(g11
S'\xc8/R{G\xfdz@'
p7469
tp7470
Rp7471
sg17
g67
sa(dp7472
g3
g7424
sS'acary (time)'
p7473
F88.31872199999998
sS'p_ratio acary (time)'
p7474
g7
(g11
S'?\x1e9u\x176{@'
p7475
tp7476
Rp7477
sg17
g74
sa(dp7478
g3
g7424
sS'acary (time)'
p7479
F0.5477699999973993
sS'p_ratio acary (time)'
p7480
g7
(g11
S'\xf6GU\x87?\x9a\x05@'
p7481
tp7482
Rp7483
sg17
g81
sa(dp7484
g3
g7424
sS'acary (time)'
p7485
F0.43544699999984005
sS'p_ratio acary (time)'
p7486
g7
(g11
S'\xfb\xc0K.>,\x01@'
p7487
tp7488
Rp7489
sg17
g88
sa(dp7490
g3
g7424
sS'acary (time)'
p7491
F1.5705069999967236
sS'p_ratio acary (time)'
p7492
g7
(g11
S'\x1a\x02\xfb}\xdd\xf7\x1e@'
p7493
tp7494
Rp7495
sg17
g95
saa(lp7496
(dp7497
g3
S'Box_Stacks-i1000-560-17.hdf5'
p7498
sS'acary (time)'
p7499
F0.486295999999129
sS'p_ratio acary (time)'
p7500
g7
(g11
S'\xcb\xc7\x93\xfdA\x1e\x00@'
p7501
tp7502
Rp7503
sg17
g18
sa(dp7504
g3
g7498
sS'acary (time)'
p7505
F0.2413650000016787
sS'p_ratio acary (time)'
p7506
g7
(g11
S'\x00\x00\x00\x00\x00\x00\xf0?'
p7507
tp7508
Rp7509
sg17
g25
sa(dp7510
g3
g7498
sS'acary (time)'
p7511
F0.28183700000226963
sS'p_ratio acary (time)'
p7512
g7
(g11
S"\x80'\xbb\xdc\xd0\xae\xf2?"
p7513
tp7514
Rp7515
sg17
g32
sa(dp7516
g3
g7498
sS'acary (time)'
p7517
F0.41264500000033877
sS'p_ratio acary (time)'
p7518
g7
(g11
S'!\x05\x14\xa9\xa5Z\xfb?'
p7519
tp7520
Rp7521
sg17
g39
sa(dp7522
g3
g7498
sS'acary (time)'
p7523
F100.29787799999758
sS'p_ratio acary (time)'
p7524
g7
(g11
S'\xbe3\xb0\xed\xb5\xf8y@'
p7525
tp7526
Rp7527
sg17
g46
sa(dp7528
g3
g7498
sS'acary (time)'
p7529
F0.41998400000011316
sS'p_ratio acary (time)'
p7530
g7
(g11
S'=X\x9f\xe70\xd7\xfb?'
p7531
tp7532
Rp7533
sg17
g53
sa(dp7534
g3
g7498
sS'acary (time)'
p7535
F2.1325789999973495
sS'p_ratio acary (time)'
p7536
g7
(g11
S'\x87\rP\xdd\xc5\xab!@'
p7537
tp7538
Rp7539
sg17
g60
sa(dp7540
g3
g7498
sS'acary (time)'
p7541
F87.7159759999995
sS'p_ratio acary (time)'
p7542
g7
(g11
S'\x9bSr-\xa9\xb6v@'
p7543
tp7544
Rp7545
sg17
g67
sa(dp7546
g3
g7498
sS'acary (time)'
p7547
F88.20823100000052
sS'p_ratio acary (time)'
p7548
g7
(g11
S'\t0u\xd1J\xd7v@'
p7549
tp7550
Rp7551
sg17
g74
sa(dp7552
g3
g7498
sS'acary (time)'
p7553
F1.0039470000010624
sS'p_ratio acary (time)'
p7554
g7
(g11
S'\x0c\x9a\xecSH\xa3\x10@'
p7555
tp7556
Rp7557
sg17
g81
sa(dp7558
g3
g7498
sS'acary (time)'
p7559
F0.343869000000268
sS'p_ratio acary (time)'
p7560
g7
(g11
S'\x92G\xf2\x15\x82\xcb\xf6?'
p7561
tp7562
Rp7563
sg17
g88
sa(dp7564
g3
g7498
sS'acary (time)'
p7565
F1.0046490000022459
sS'p_ratio acary (time)'
p7566
g7
(g11
S'\xc6!?\xc3B\xa6\x10@'
p7567
tp7568
Rp7569
sg17
g95
saa.