(lp0
(lp1
(dp2
S'problem'
p3
S'Box_Stacks-i0024-549-101.hdf5'
p4
sS'acary (time)'
p5
F0.17568399999999995
sS'solver'
p6
S'cp_N'
p7
sa(dp8
g3
g4
sS'acary (time)'
p9
F0.24710699999999997
sg6
S'cp_R'
p10
sa(dp11
g3
g4
sS'acary (time)'
p12
F0.25407599999999997
sg6
S'cp_RR'
p13
sa(dp14
g3
g4
sS'acary (time)'
p15
F0.48997099999999993
sg6
S'vp_N_He'
p16
sa(dp17
g3
g4
sS'acary (time)'
p18
F106.79497599999999
sg6
S'vp_R_He'
p19
sa(dp20
g3
g4
sS'acary (time)'
p21
F0.43315699999999424
sg6
S'vp_RR_He'
p22
sa(dp23
g3
g4
sS'acary (time)'
p24
F1.5304370000000063
sg6
S'vp_N_Spectral'
p25
sa(dp26
g3
g4
sS'acary (time)'
p27
F88.513073
sg6
S'vp_R_Spectral'
p28
sa(dp29
g3
g4
sS'acary (time)'
p30
F87.38285000000002
sg6
S'vp_RR_Spectral'
p31
sa(dp32
g3
g4
sS'acary (time)'
p33
F0.34841199999999617
sg6
S'vp_N_Wohlberg'
p34
sa(dp35
g3
g4
sS'acary (time)'
p36
F0.20163400000001275
sg6
S'vp_R_Wohlberg'
p37
sa(dp38
g3
g4
sS'acary (time)'
p39
F1.111838999999975
sg6
S'vp_RR_Wohlberg'
p40
saa(lp41
(dp42
g3
S'Box_Stacks-i0026-549-100.hdf5'
p43
sS'acary (time)'
p44
F0.17185799999998608
sg6
g7
sa(dp45
g3
g43
sS'acary (time)'
p46
F0.24231000000003178
sg6
g10
sa(dp47
g3
g43
sS'acary (time)'
p48
F0.2531979999999976
sg6
g13
sa(dp49
g3
g43
sS'acary (time)'
p50
F0.48516999999998234
sg6
g16
sa(dp51
g3
g43
sS'acary (time)'
p52
F106.73430400000001
sg6
g19
sa(dp53
g3
g43
sS'acary (time)'
p54
F0.4333790000000022
sg6
g22
sa(dp55
g3
g43
sS'acary (time)'
p56
F1.5284039999999663
sg6
g25
sa(dp57
g3
g43
sS'acary (time)'
p58
F87.89212200000003
sg6
g28
sa(dp59
g3
g43
sS'acary (time)'
p60
F87.01562299999995
sg6
g31
sa(dp61
g3
g43
sS'acary (time)'
p62
F0.346014000000082
sg6
g34
sa(dp63
g3
g43
sS'acary (time)'
p64
F0.2017720000000054
sg6
g37
sa(dp65
g3
g43
sS'acary (time)'
p66
F1.1127230000000736
sg6
g40
saa(lp67
(dp68
g3
S'Box_Stacks-i0035-31-0.hdf5'
p69
sS'acary (time)'
p70
F5.5963780000000725
sg6
g7
sa(dp71
g3
g69
sS'acary (time)'
p72
F5.796164999999974
sg6
g10
sa(dp73
g3
g69
sS'acary (time)'
p74
F5.837706000000026
sg6
g13
sa(dp75
g3
g69
sS'acary (time)'
p76
F0.051834999999982756
sg6
g16
sa(dp77
g3
g69
sS'acary (time)'
p78
F0.052724000000011984
sg6
g19
sa(dp79
g3
g69
sS'acary (time)'
p80
F0.05053700000007666
sg6
g22
sa(dp81
g3
g69
sS'acary (time)'
p82
F9.129000000000019
sg6
g25
sa(dp83
g3
g69
sS'acary (time)'
p84
F9.763450000000034
sg6
g28
sa(dp85
g3
g69
sS'acary (time)'
p86
F8.14146699999992
sg6
g31
sa(dp87
g3
g69
sS'acary (time)'
p88
F5.767744000000107
sg6
g34
sa(dp89
g3
g69
sS'acary (time)'
p90
F5.971231999999986
sg6
g37
sa(dp91
g3
g69
sS'acary (time)'
p92
F6.032389999999964
sg6
g40
saa(lp93
(dp94
g3
S'Box_Stacks-i0055-549-99.hdf5'
p95
sS'acary (time)'
p96
F0.17226300000004358
sg6
g7
sa(dp97
g3
g95
sS'acary (time)'
p98
F0.24205799999992905
sg6
g10
sa(dp99
g3
g95
sS'acary (time)'
p100
F0.2538289999999961
sg6
g13
sa(dp101
g3
g95
sS'acary (time)'
p102
F0.48624500000005355
sg6
g16
sa(dp103
g3
g95
sS'acary (time)'
p104
F107.70404899999994
sg6
g19
sa(dp105
g3
g95
sS'acary (time)'
p106
F0.436888999999951
sg6
g22
sa(dp107
g3
g95
sS'acary (time)'
p108
F1.5427779999999984
sg6
g25
sa(dp109
g3
g95
sS'acary (time)'
p110
F88.29828899999995
sg6
g28
sa(dp111
g3
g95
sS'acary (time)'
p112
F87.83768699999996
sg6
g31
sa(dp113
g3
g95
sS'acary (time)'
p114
F0.3483290000000352
sg6
g34
sa(dp115
g3
g95
sS'acary (time)'
p116
F0.20623000000000502
sg6
g37
sa(dp117
g3
g95
sS'acary (time)'
p118
F1.111817999999971
sg6
g40
saa(lp119
(dp120
g3
S'Box_Stacks-i0121-69-1.hdf5'
p121
sS'acary (time)'
p122
F10.082728999999972
sg6
g7
sa(dp123
g3
g121
sS'acary (time)'
p124
F10.273071999999956
sg6
g10
sa(dp125
g3
g121
sS'acary (time)'
p126
F10.248020999999994
sg6
g13
sa(dp127
g3
g121
sS'acary (time)'
p128
F0.12549999999998818
sg6
g16
sa(dp129
g3
g121
sS'acary (time)'
p130
F10.362528999999995
sg6
g19
sa(dp131
g3
g121
sS'acary (time)'
p132
F0.05589400000008027
sg6
g22
sa(dp133
g3
g121
sS'acary (time)'
p134
F14.448965000000044
sg6
g25
sa(dp135
g3
g121
sS'acary (time)'
p136
F14.183357
sg6
g28
sa(dp137
g3
g121
sS'acary (time)'
p138
F14.432444000000032
sg6
g31
sa(dp139
g3
g121
sS'acary (time)'
p140
F10.191156999999976
sg6
g34
sa(dp141
g3
g121
sS'acary (time)'
p142
F10.506276999999955
sg6
g37
sa(dp143
g3
g121
sS'acary (time)'
p144
F10.364364000000023
sg6
g40
saa(lp145
(dp146
g3
S'Box_Stacks-i0122-73-2.hdf5'
p147
sS'acary (time)'
p148
F10.50330299999996
sg6
g7
sa(dp149
g3
g147
sS'acary (time)'
p150
F10.71170600000005
sg6
g10
sa(dp151
g3
g147
sS'acary (time)'
p152
F10.684856000000082
sg6
g13
sa(dp153
g3
g147
sS'acary (time)'
p154
F10.548352000000023
sg6
g16
sa(dp155
g3
g147
sS'acary (time)'
p156
F10.779948999999988
sg6
g19
sa(dp157
g3
g147
sS'acary (time)'
p158
F10.843912000000046
sg6
g22
sa(dp159
g3
g147
sS'acary (time)'
p160
F15.024077000000034
sg6
g25
sa(dp161
g3
g147
sS'acary (time)'
p162
F14.603498000000172
sg6
g28
sa(dp163
g3
g147
sS'acary (time)'
p164
F15.013607999999977
sg6
g31
sa(dp165
g3
g147
sS'acary (time)'
p166
F0.034615000000030705
sg6
g34
sa(dp167
g3
g147
sS'acary (time)'
p168
F10.949213999999984
sg6
g37
sa(dp169
g3
g147
sS'acary (time)'
p170
F10.971326999999974
sg6
g40
saa(lp171
(dp172
g3
S'Box_Stacks-i0207-114-3.hdf5'
p173
sS'acary (time)'
p174
F15.294411000000082
sg6
g7
sa(dp175
g3
g173
sS'acary (time)'
p176
F15.522045000000162
sg6
g10
sa(dp177
g3
g173
sS'acary (time)'
p178
F15.480359000000135
sg6
g13
sa(dp179
g3
g173
sS'acary (time)'
p180
F15.449020999999902
sg6
g16
sa(dp181
g3
g173
sS'acary (time)'
p182
F15.674236000000064
sg6
g19
sa(dp183
g3
g173
sS'acary (time)'
p184
F15.604522000000088
sg6
g22
sa(dp185
g3
g173
sS'acary (time)'
p186
F20.100624000000153
sg6
g25
sa(dp187
g3
g173
sS'acary (time)'
p188
F19.664437000000135
sg6
g28
sa(dp189
g3
g173
sS'acary (time)'
p190
F19.954563000000007
sg6
g31
sa(dp191
g3
g173
sS'acary (time)'
p192
F0.0423200000000179
sg6
g34
sa(dp193
g3
g173
sS'acary (time)'
p194
F15.837309999999889
sg6
g37
sa(dp195
g3
g173
sS'acary (time)'
p196
F15.760190000000193
sg6
g40
saa(lp197
(dp198
g3
S'Box_Stacks-i0570-549-98.hdf5'
p199
sS'acary (time)'
p200
F0.17153799999982766
sg6
g7
sa(dp201
g3
g199
sS'acary (time)'
p202
F0.24183100000004742
sg6
g10
sa(dp203
g3
g199
sS'acary (time)'
p204
F0.25413800000001174
sg6
g13
sa(dp205
g3
g199
sS'acary (time)'
p206
F0.49774299999990035
sg6
g16
sa(dp207
g3
g199
sS'acary (time)'
p208
F106.68315000000007
sg6
g19
sa(dp209
g3
g199
sS'acary (time)'
p210
F0.44710699999995995
sg6
g22
sa(dp211
g3
g199
sS'acary (time)'
p212
F1.541977000000088
sg6
g25
sa(dp213
g3
g199
sS'acary (time)'
p214
F87.80360300000007
sg6
g28
sa(dp215
g3
g199
sS'acary (time)'
p216
F86.86902699999996
sg6
g31
sa(dp217
g3
g199
sS'acary (time)'
p218
F0.36213299999985793
sg6
g34
sa(dp219
g3
g199
sS'acary (time)'
p220
F0.2024309999999332
sg6
g37
sa(dp221
g3
g199
sS'acary (time)'
p222
F1.1145199999998567
sg6
g40
saa(lp223
(dp224
g3
S'Box_Stacks-i0658-548-43.hdf5'
p225
sS'acary (time)'
p226
F0.17225799999982883
sg6
g7
sa(dp227
g3
g225
sS'acary (time)'
p228
F0.2747349999999642
sg6
g10
sa(dp229
g3
g225
sS'acary (time)'
p230
F0.2533009999999649
sg6
g13
sa(dp231
g3
g225
sS'acary (time)'
p232
F0.4940079999998943
sg6
g16
sa(dp233
g3
g225
sS'acary (time)'
p234
F106.71724500000005
sg6
g19
sa(dp235
g3
g225
sS'acary (time)'
p236
F0.4344790000000103
sg6
g22
sa(dp237
g3
g225
sS'acary (time)'
p238
F1.5022080000001097
sg6
g25
sa(dp239
g3
g225
sS'acary (time)'
p240
F87.60251600000015
sg6
g28
sa(dp241
g3
g225
sS'acary (time)'
p242
F87.6028960000001
sg6
g31
sa(dp243
g3
g225
sS'acary (time)'
p244
F0.3455669999998463
sg6
g34
sa(dp245
g3
g225
sS'acary (time)'
p246
F0.20140300000002753
sg6
g37
sa(dp247
g3
g225
sS'acary (time)'
p248
F1.1094140000000152
sg6
g40
saa(lp249
(dp250
g3
S'Box_Stacks-i0751-548-85.hdf5'
p251
sS'acary (time)'
p252
F0.17199299999992945
sg6
g7
sa(dp253
g3
g251
sS'acary (time)'
p254
F0.2743869999999333
sg6
g10
sa(dp255
g3
g251
sS'acary (time)'
p256
F0.25328700000000026
sg6
g13
sa(dp257
g3
g251
sS'acary (time)'
p258
F0.49454500000001644
sg6
g16
sa(dp259
g3
g251
sS'acary (time)'
p260
F105.809168
sg6
g19
sa(dp261
g3
g251
sS'acary (time)'
p262
F0.4343279999998231
sg6
g22
sa(dp263
g3
g251
sS'acary (time)'
p264
F1.4977269999999407
sg6
g25
sa(dp265
g3
g251
sS'acary (time)'
p266
F87.49704500000007
sg6
g28
sa(dp267
g3
g251
sS'acary (time)'
p268
F86.16862700000001
sg6
g31
sa(dp269
g3
g251
sS'acary (time)'
p270
F0.34488999999985026
sg6
g34
sa(dp271
g3
g251
sS'acary (time)'
p272
F0.20138400000041656
sg6
g37
sa(dp273
g3
g251
sS'acary (time)'
p274
F1.1082390000001396
sg6
g40
saa(lp275
(dp276
g3
S'Box_Stacks-i0788-549-97.hdf5'
p277
sS'acary (time)'
p278
F0.17313800000010815
sg6
g7
sa(dp279
g3
g277
sS'acary (time)'
p280
F0.24242499999991196
sg6
g10
sa(dp281
g3
g277
sS'acary (time)'
p282
F0.2549420000000282
sg6
g13
sa(dp283
g3
g277
sS'acary (time)'
p284
F0.48721199999999953
sg6
g16
sa(dp285
g3
g277
sS'acary (time)'
p286
F106.68356300000005
sg6
g19
sa(dp287
g3
g277
sS'acary (time)'
p288
F0.43399900000031266
sg6
g22
sa(dp289
g3
g277
sS'acary (time)'
p290
F1.5373309999999947
sg6
g25
sa(dp291
g3
g277
sS'acary (time)'
p292
F87.16336799999999
sg6
g28
sa(dp293
g3
g277
sS'acary (time)'
p294
F87.82314399999996
sg6
g31
sa(dp295
g3
g277
sS'acary (time)'
p296
F0.3483289999999215
sg6
g34
sa(dp297
g3
g277
sS'acary (time)'
p298
F0.20284200000014607
sg6
g37
sa(dp299
g3
g277
sS'acary (time)'
p300
F1.1122000000000298
sg6
g40
saa(lp301
(dp302
g3
S'Box_Stacks-i0790-549-93.hdf5'
p303
sS'acary (time)'
p304
F0.17180999999982305
sg6
g7
sa(dp305
g3
g303
sS'acary (time)'
p306
F0.24056300000029296
sg6
g10
sa(dp307
g3
g303
sS'acary (time)'
p308
F0.2529600000002574
sg6
g13
sa(dp309
g3
g303
sS'acary (time)'
p310
F0.48286800000005314
sg6
g16
sa(dp311
g3
g303
sS'acary (time)'
p312
F106.86085200000025
sg6
g19
sa(dp313
g3
g303
sS'acary (time)'
p314
F0.4317849999997634
sg6
g22
sa(dp315
g3
g303
sS'acary (time)'
p316
F1.523573999999826
sg6
g25
sa(dp317
g3
g303
sS'acary (time)'
p318
F87.43024299999979
sg6
g28
sa(dp319
g3
g303
sS'acary (time)'
p320
F88.33187099999986
sg6
g31
sa(dp321
g3
g303
sS'acary (time)'
p322
F0.3459339999999429
sg6
g34
sa(dp323
g3
g303
sS'acary (time)'
p324
F0.20146799999974974
sg6
g37
sa(dp325
g3
g303
sS'acary (time)'
p326
F1.107028000000355
sg6
g40
saa(lp327
(dp328
g3
S'Box_Stacks-i1000-137-4.hdf5'
p329
sS'acary (time)'
p330
F18.0576759999999
sg6
g7
sa(dp331
g3
g329
sS'acary (time)'
p332
F18.30316300000004
sg6
g10
sa(dp333
g3
g329
sS'acary (time)'
p334
F18.336585999999897
sg6
g13
sa(dp335
g3
g329
sS'acary (time)'
p336
F18.135395000000244
sg6
g16
sa(dp337
g3
g329
sS'acary (time)'
p338
F18.410045999999966
sg6
g19
sa(dp339
g3
g329
sS'acary (time)'
p340
F18.367743000000246
sg6
g22
sa(dp341
g3
g329
sS'acary (time)'
p342
F24.358005999999932
sg6
g25
sa(dp343
g3
g329
sS'acary (time)'
p344
F23.779105000000072
sg6
g28
sa(dp345
g3
g329
sS'acary (time)'
p346
F24.083794000000125
sg6
g31
sa(dp347
g3
g329
sS'acary (time)'
p348
F0.046991000000161876
sg6
g34
sa(dp349
g3
g329
sS'acary (time)'
p350
F19.52969400000029
sg6
g37
sa(dp351
g3
g329
sS'acary (time)'
p352
F19.539904000000206
sg6
g40
saa(lp353
(dp354
g3
S'Box_Stacks-i1000-352-6.hdf5'
p355
sS'acary (time)'
p356
F0.114484000000175
sg6
g7
sa(dp357
g3
g355
sS'acary (time)'
p358
F0.187467000000197
sg6
g10
sa(dp359
g3
g355
sS'acary (time)'
p360
F0.13514900000018315
sg6
g13
sa(dp361
g3
g355
sS'acary (time)'
p362
F0.19915399999990768
sg6
g16
sa(dp363
g3
g355
sS'acary (time)'
p364
F0.18516700000009223
sg6
g19
sa(dp365
g3
g355
sS'acary (time)'
p366
F0.13564399999995658
sg6
g22
sa(dp367
g3
g355
sS'acary (time)'
p368
Fnan
sg6
g25
sa(dp369
g3
g355
sS'acary (time)'
p370
F58.48102999999992
sg6
g28
sa(dp371
g3
g355
sS'acary (time)'
p372
F59.001354999999876
sg6
g31
sa(dp373
g3
g355
sS'acary (time)'
p374
F0.13407900000038353
sg6
g34
sa(dp375
g3
g355
sS'acary (time)'
p376
F0.1157879999996112
sg6
g37
sa(dp377
g3
g355
sS'acary (time)'
p378
F0.4580959999998413
sg6
g40
saa(lp379
(dp380
g3
S'Box_Stacks-i1000-364-5.hdf5'
p381
sS'acary (time)'
p382
F0.11310200000025361
sg6
g7
sa(dp383
g3
g381
sS'acary (time)'
p384
F0.17799599999989368
sg6
g10
sa(dp385
g3
g381
sS'acary (time)'
p386
F0.13033899999982168
sg6
g13
sa(dp387
g3
g381
sS'acary (time)'
p388
F0.13876299999992625
sg6
g16
sa(dp389
g3
g381
sS'acary (time)'
p390
F0.17856299999994008
sg6
g19
sa(dp391
g3
g381
sS'acary (time)'
p392
F0.1305809999998928
sg6
g22
sa(dp393
g3
g381
sS'acary (time)'
p394
F59.00159100000019
sg6
g25
sa(dp395
g3
g381
sS'acary (time)'
p396
F57.88733400000001
sg6
g28
sa(dp397
g3
g381
sS'acary (time)'
p398
F58.43148199999996
sg6
g31
sa(dp399
g3
g381
sS'acary (time)'
p400
F0.22492400000010093
sg6
g34
sa(dp401
g3
g381
sS'acary (time)'
p402
F0.139252999999826
sg6
g37
sa(dp403
g3
g381
sS'acary (time)'
p404
F72.56902300000002
sg6
g40
saa(lp405
(dp406
g3
S'Box_Stacks-i1000-444-8.hdf5'
p407
sS'acary (time)'
p408
F0.15633699999989403
sg6
g7
sa(dp409
g3
g407
sS'acary (time)'
p410
F0.13651500000014494
sg6
g10
sa(dp411
g3
g407
sS'acary (time)'
p412
F0.1428139999998166
sg6
g13
sa(dp413
g3
g407
sS'acary (time)'
p414
F0.24255799999991723
sg6
g16
sa(dp415
g3
g407
sS'acary (time)'
p416
F78.24418700000024
sg6
g19
sa(dp417
g3
g407
sS'acary (time)'
p418
F0.24255700000003344
sg6
g22
sa(dp419
g3
g407
sS'acary (time)'
p420
F72.45971099999997
sg6
g25
sa(dp421
g3
g407
sS'acary (time)'
p422
F70.99224200000026
sg6
g28
sa(dp423
g3
g407
sS'acary (time)'
p424
F72.49606300000005
sg6
g31
sa(dp425
g3
g407
sS'acary (time)'
p426
F0.3039949999997589
sg6
g34
sa(dp427
g3
g407
sS'acary (time)'
p428
F0.3688210000000254
sg6
g37
sa(dp429
g3
g407
sS'acary (time)'
p430
F0.24298399999997855
sg6
g40
saa(lp431
(dp432
g3
S'Box_Stacks-i1000-466-9.hdf5'
p433
sS'acary (time)'
p434
F0.1794399999998859
sg6
g7
sa(dp435
g3
g433
sS'acary (time)'
p436
F0.14564900000004855
sg6
g10
sa(dp437
g3
g433
sS'acary (time)'
p438
F0.14451599999983955
sg6
g13
sa(dp439
g3
g433
sS'acary (time)'
p440
F0.2718119999999544
sg6
g16
sa(dp441
g3
g433
sS'acary (time)'
p442
F80.24932500000023
sg6
g19
sa(dp443
g3
g433
sS'acary (time)'
p444
F0.3084889999995539
sg6
g22
sa(dp445
g3
g433
sS'acary (time)'
p446
F0.9416770000002543
sg6
g25
sa(dp447
g3
g433
sS'acary (time)'
p448
F74.06797799999958
sg6
g28
sa(dp449
g3
g433
sS'acary (time)'
p450
Fnan
sg6
g31
sa(dp451
g3
g433
sS'acary (time)'
p452
F0.30970799999977316
sg6
g34
sa(dp453
g3
g433
sS'acary (time)'
p454
F0.22082799999998315
sg6
g37
sa(dp455
g3
g433
sS'acary (time)'
p456
F0.6176110000001245
sg6
g40
saa(lp457
(dp458
g3
S'Box_Stacks-i1000-471-7.hdf5'
p459
sS'acary (time)'
p460
F0.16092500000013388
sg6
g7
sa(dp461
g3
g459
sS'acary (time)'
p462
F0.21377699999993638
sg6
g10
sa(dp463
g3
g459
sS'acary (time)'
p464
F0.17588299999988521
sg6
g13
sa(dp465
g3
g459
sS'acary (time)'
p466
F0.2753280000001723
sg6
g16
sa(dp467
g3
g459
sS'acary (time)'
p468
F77.19322499999998
sg6
g19
sa(dp469
g3
g459
sS'acary (time)'
p470
F0.23110200000019177
sg6
g22
sa(dp471
g3
g459
sS'acary (time)'
p472
F65.28445299999976
sg6
g25
sa(dp473
g3
g459
sS'acary (time)'
p474
F75.78089799999998
sg6
g28
sa(dp475
g3
g459
sS'acary (time)'
p476
F75.9971099999998
sg6
g31
sa(dp477
g3
g459
sS'acary (time)'
p478
F0.48292700000001787
sg6
g34
sa(dp479
g3
g459
sS'acary (time)'
p480
F0.19990900000084366
sg6
g37
sa(dp481
g3
g459
sS'acary (time)'
p482
F0.8157719999999244
sg6
g40
saa(lp483
(dp484
g3
S'Box_Stacks-i1000-482-10.hdf5'
p485
sS'acary (time)'
p486
F0.15218300000015006
sg6
g7
sa(dp487
g3
g485
sS'acary (time)'
p488
F0.1397500000002765
sg6
g10
sa(dp489
g3
g485
sS'acary (time)'
p490
F0.12914499999988038
sg6
g13
sa(dp491
g3
g485
sS'acary (time)'
p492
F0.24318500000026688
sg6
g16
sa(dp493
g3
g485
sS'acary (time)'
p494
F0.34364300000015646
sg6
g19
sa(dp495
g3
g485
sS'acary (time)'
p496
F0.21578599999975268
sg6
g22
sa(dp497
g3
g485
sS'acary (time)'
p498
F1.4037639999996827
sg6
g25
sa(dp499
g3
g485
sS'acary (time)'
p500
F76.85496500000045
sg6
g28
sa(dp501
g3
g485
sS'acary (time)'
p502
F77.71052300000065
sg6
g31
sa(dp503
g3
g485
sS'acary (time)'
p504
F0.23575999999957276
sg6
g34
sa(dp505
g3
g485
sS'acary (time)'
p506
F0.35466900000028545
sg6
g37
sa(dp507
g3
g485
sS'acary (time)'
p508
F0.26448900000013964
sg6
g40
saa(lp509
(dp510
g3
S'Box_Stacks-i1000-516-11.hdf5'
p511
sS'acary (time)'
p512
F0.21785199999976612
sg6
g7
sa(dp513
g3
g511
sS'acary (time)'
p514
F0.1577690000003713
sg6
g10
sa(dp515
g3
g511
sS'acary (time)'
p516
F0.16547799999989365
sg6
g13
sa(dp517
g3
g511
sS'acary (time)'
p518
F0.2637400000003254
sg6
g16
sa(dp519
g3
g511
sS'acary (time)'
p520
F88.45602099999996
sg6
g19
sa(dp521
g3
g511
sS'acary (time)'
p522
F0.29542099999980564
sg6
g22
sa(dp523
g3
g511
sS'acary (time)'
p524
F0.9462469999998575
sg6
g25
sa(dp525
g3
g511
sS'acary (time)'
p526
F83.52500599999985
sg6
g28
sa(dp527
g3
g511
sS'acary (time)'
p528
F80.06670200000008
sg6
g31
sa(dp529
g3
g511
sS'acary (time)'
p530
F106.18528900000001
sg6
g34
sa(dp531
g3
g511
sS'acary (time)'
p532
F0.34229599999980564
sg6
g37
sa(dp533
g3
g511
sS'acary (time)'
p534
F0.2707380000001649
sg6
g40
saa(lp535
(dp536
g3
S'Box_Stacks-i1000-533-12.hdf5'
p537
sS'acary (time)'
p538
F0.47150800000054005
sg6
g7
sa(dp539
g3
g537
sS'acary (time)'
p540
F0.20987700000023324
sg6
g10
sa(dp541
g3
g537
sS'acary (time)'
p542
F0.3151830000006157
sg6
g13
sa(dp543
g3
g537
sS'acary (time)'
p544
F0.28219499999977415
sg6
g16
sa(dp545
g3
g537
sS'acary (time)'
p546
F91.69348099999934
sg6
g19
sa(dp547
g3
g537
sS'acary (time)'
p548
F0.37509700000009616
sg6
g22
sa(dp549
g3
g537
sS'acary (time)'
p550
F1.221969999999601
sg6
g25
sa(dp551
g3
g537
sS'acary (time)'
p552
F84.82583299999988
sg6
g28
sa(dp553
g3
g537
sS'acary (time)'
p554
F84.79019799999969
sg6
g31
sa(dp555
g3
g537
sS'acary (time)'
p556
F0.582922999999937
sg6
g34
sa(dp557
g3
g537
sS'acary (time)'
p558
F0.2892549999996845
sg6
g37
sa(dp559
g3
g537
sS'acary (time)'
p560
F0.4293550000002142
sg6
g40
saa(lp561
(dp562
g3
S'Box_Stacks-i1000-547-14.hdf5'
p563
sS'acary (time)'
p564
F0.2963129999998273
sg6
g7
sa(dp565
g3
g563
sS'acary (time)'
p566
F0.19499799999994138
sg6
g10
sa(dp567
g3
g563
sS'acary (time)'
p568
F0.20433700000012323
sg6
g13
sa(dp569
g3
g563
sS'acary (time)'
p570
F0.3146040000001449
sg6
g16
sa(dp571
g3
g563
sS'acary (time)'
p572
F97.55945299999985
sg6
g19
sa(dp573
g3
g563
sS'acary (time)'
p574
F0.41972100000020873
sg6
g22
sa(dp575
g3
g563
sS'acary (time)'
p576
F1.1010910000004515
sg6
g25
sa(dp577
g3
g563
sS'acary (time)'
p578
F86.33648799999992
sg6
g28
sa(dp579
g3
g563
sS'acary (time)'
p580
F86.89676599999984
sg6
g31
sa(dp581
g3
g563
sS'acary (time)'
p582
F108.74936499999967
sg6
g34
sa(dp583
g3
g563
sS'acary (time)'
p584
F0.31480699999974604
sg6
g37
sa(dp585
g3
g563
sS'acary (time)'
p586
F0.5620170000001963
sg6
g40
saa(lp587
(dp588
g3
S'Box_Stacks-i1000-547-21.hdf5'
p589
sS'acary (time)'
p590
F0.17983499999991182
sg6
g7
sa(dp591
g3
g589
sS'acary (time)'
p592
F0.1812580000005255
sg6
g10
sa(dp593
g3
g589
sS'acary (time)'
p594
F0.20079600000008213
sg6
g13
sa(dp595
g3
g589
sS'acary (time)'
p596
F0.41828499999974156
sg6
g16
sa(dp597
g3
g589
sS'acary (time)'
p598
F103.35680699999921
sg6
g19
sa(dp599
g3
g589
sS'acary (time)'
p600
F0.4419579999994312
sg6
g22
sa(dp601
g3
g589
sS'acary (time)'
p602
F2.1901419999994687
sg6
g25
sa(dp603
g3
g589
sS'acary (time)'
p604
F86.46049499999936
sg6
g28
sa(dp605
g3
g589
sS'acary (time)'
p606
F87.03436699999929
sg6
g31
sa(dp607
g3
g589
sS'acary (time)'
p608
F0.3494299999993018
sg6
g34
sa(dp609
g3
g589
sS'acary (time)'
p610
F0.29794200000014825
sg6
g37
sa(dp611
g3
g589
sS'acary (time)'
p612
F2.126456999999391
sg6
g40
saa(lp613
(dp614
g3
S'Box_Stacks-i1000-548-22.hdf5'
p615
sS'acary (time)'
p616
F0.2112889999998515
sg6
g7
sa(dp617
g3
g615
sS'acary (time)'
p618
F0.16792199999963486
sg6
g10
sa(dp619
g3
g615
sS'acary (time)'
p620
F0.17660800000066956
sg6
g13
sa(dp621
g3
g615
sS'acary (time)'
p622
F0.4188300000005256
sg6
g16
sa(dp623
g3
g615
sS'acary (time)'
p624
F101.3973219999998
sg6
g19
sa(dp625
g3
g615
sS'acary (time)'
p626
F0.4430499999998574
sg6
g22
sa(dp627
g3
g615
sS'acary (time)'
p628
F2.205192000000352
sg6
g25
sa(dp629
g3
g615
sS'acary (time)'
p630
F86.54475299999922
sg6
g28
sa(dp631
g3
g615
sS'acary (time)'
p632
F85.61040099999991
sg6
g31
sa(dp633
g3
g615
sS'acary (time)'
p634
F0.41218899999967107
sg6
g34
sa(dp635
g3
g615
sS'acary (time)'
p636
F0.37528699999984383
sg6
g37
sa(dp637
g3
g615
sS'acary (time)'
p638
F1.6511340000006385
sg6
g40
saa(lp639
(dp640
g3
S'Box_Stacks-i1000-548-25.hdf5'
p641
sS'acary (time)'
p642
F0.1816980000003241
sg6
g7
sa(dp643
g3
g641
sS'acary (time)'
p644
F0.1928250000000844
sg6
g10
sa(dp645
g3
g641
sS'acary (time)'
p646
F0.2147610000001805
sg6
g13
sa(dp647
g3
g641
sS'acary (time)'
p648
F0.4106520000004821
sg6
g16
sa(dp649
g3
g641
sS'acary (time)'
p650
F104.51359300000058
sg6
g19
sa(dp651
g3
g641
sS'acary (time)'
p652
F0.4580980000000636
sg6
g22
sa(dp653
g3
g641
sS'acary (time)'
p654
F33.03920500000004
sg6
g25
sa(dp655
g3
g641
sS'acary (time)'
p656
F87.01220199999989
sg6
g28
sa(dp657
g3
g641
sS'acary (time)'
p658
F86.97236100000009
sg6
g31
sa(dp659
g3
g641
sS'acary (time)'
p660
F0.3656719999999041
sg6
g34
sa(dp661
g3
g641
sS'acary (time)'
p662
F0.33080299999983254
sg6
g37
sa(dp663
g3
g641
sS'acary (time)'
p664
F0.8625220000003537
sg6
g40
saa(lp665
(dp666
g3
S'Box_Stacks-i1000-548-26.hdf5'
p667
sS'acary (time)'
p668
F0.18086199999925157
sg6
g7
sa(dp669
g3
g667
sS'acary (time)'
p670
F0.19432899999992514
sg6
g10
sa(dp671
g3
g667
sS'acary (time)'
p672
F0.21483899999930145
sg6
g13
sa(dp673
g3
g667
sS'acary (time)'
p674
F0.3920769999995173
sg6
g16
sa(dp675
g3
g667
sS'acary (time)'
p676
F105.0313640000004
sg6
g19
sa(dp677
g3
g667
sS'acary (time)'
p678
F0.4670169999999416
sg6
g22
sa(dp679
g3
g667
sS'acary (time)'
p680
F90.05665599999975
sg6
g25
sa(dp681
g3
g667
sS'acary (time)'
p682
F86.6424850000003
sg6
g28
sa(dp683
g3
g667
sS'acary (time)'
p684
F85.55076400000053
sg6
g31
sa(dp685
g3
g667
sS'acary (time)'
p686
F0.3629190000001472
sg6
g34
sa(dp687
g3
g667
sS'acary (time)'
p688
F0.36916200000086974
sg6
g37
sa(dp689
g3
g667
sS'acary (time)'
p690
F0.8813840000002529
sg6
g40
saa(lp691
(dp692
g3
S'Box_Stacks-i1000-548-39.hdf5'
p693
sS'acary (time)'
p694
F0.17146199999933742
sg6
g7
sa(dp695
g3
g693
sS'acary (time)'
p696
F0.2729509999999209
sg6
g10
sa(dp697
g3
g693
sS'acary (time)'
p698
F0.2522580000004382
sg6
g13
sa(dp699
g3
g693
sS'acary (time)'
p700
F0.49161000000003696
sg6
g16
sa(dp701
g3
g693
sS'acary (time)'
p702
F106.10994099999971
sg6
g19
sa(dp703
g3
g693
sS'acary (time)'
p704
F0.4302850000003673
sg6
g22
sa(dp705
g3
g693
sS'acary (time)'
p706
F1.4987040000005436
sg6
g25
sa(dp707
g3
g693
sS'acary (time)'
p708
F86.99659199999951
sg6
g28
sa(dp709
g3
g693
sS'acary (time)'
p710
F85.80532099999982
sg6
g31
sa(dp711
g3
g693
sS'acary (time)'
p712
F0.34209700000064913
sg6
g34
sa(dp713
g3
g693
sS'acary (time)'
p714
F0.19922999999926105
sg6
g37
sa(dp715
g3
g693
sS'acary (time)'
p716
F1.095274000000245
sg6
g40
saa(lp717
(dp718
g3
S'Box_Stacks-i1000-548-40.hdf5'
p719
sS'acary (time)'
p720
F0.1703319999996893
sg6
g7
sa(dp721
g3
g719
sS'acary (time)'
p722
F0.26978500000041095
sg6
g10
sa(dp723
g3
g719
sS'acary (time)'
p724
F0.2497400000002017
sg6
g13
sa(dp725
g3
g719
sS'acary (time)'
p726
F0.48725800000011077
sg6
g16
sa(dp727
g3
g719
sS'acary (time)'
p728
F105.40676799999983
sg6
g19
sa(dp729
g3
g719
sS'acary (time)'
p730
F0.4267439999994167
sg6
g22
sa(dp731
g3
g719
sS'acary (time)'
p732
F1.489224999999351
sg6
g25
sa(dp733
g3
g719
sS'acary (time)'
p734
F86.36187299999983
sg6
g28
sa(dp735
g3
g719
sS'acary (time)'
p736
F85.9192779999994
sg6
g31
sa(dp737
g3
g719
sS'acary (time)'
p738
F0.34121700000014243
sg6
g34
sa(dp739
g3
g719
sS'acary (time)'
p740
F0.19948099999965052
sg6
g37
sa(dp741
g3
g719
sS'acary (time)'
p742
F1.0965259999993577
sg6
g40
saa(lp743
(dp744
g3
S'Box_Stacks-i1000-548-41.hdf5'
p745
sS'acary (time)'
p746
F0.17026299999997718
sg6
g7
sa(dp747
g3
g745
sS'acary (time)'
p748
F0.27028900000004796
sg6
g10
sa(dp749
g3
g745
sS'acary (time)'
p750
F0.24850299999980052
sg6
g13
sa(dp751
g3
g745
sS'acary (time)'
p752
F0.4861299999993207
sg6
g16
sa(dp753
g3
g745
sS'acary (time)'
p754
F105.03108100000009
sg6
g19
sa(dp755
g3
g745
sS'acary (time)'
p756
F0.42644600000039645
sg6
g22
sa(dp757
g3
g745
sS'acary (time)'
p758
F1.4860790000002453
sg6
g25
sa(dp759
g3
g745
sS'acary (time)'
p760
F86.6751919999997
sg6
g28
sa(dp761
g3
g745
sS'acary (time)'
p762
F86.39606099999946
sg6
g31
sa(dp763
g3
g745
sS'acary (time)'
p764
F0.34281000000009954
sg6
g34
sa(dp765
g3
g745
sS'acary (time)'
p766
F0.20304200000009587
sg6
g37
sa(dp767
g3
g745
sS'acary (time)'
p768
F1.0992489999998725
sg6
g40
saa(lp769
(dp770
g3
S'Box_Stacks-i1000-548-42.hdf5'
p771
sS'acary (time)'
p772
F0.1698820000001433
sg6
g7
sa(dp773
g3
g771
sS'acary (time)'
p774
F0.27056700000048295
sg6
g10
sa(dp775
g3
g771
sS'acary (time)'
p776
F0.24944200000027195
sg6
g13
sa(dp777
g3
g771
sS'acary (time)'
p778
F0.48811399999976857
sg6
g16
sa(dp779
g3
g771
sS'acary (time)'
p780
F105.41201300000012
sg6
g19
sa(dp781
g3
g771
sS'acary (time)'
p782
F0.4265320000004067
sg6
g22
sa(dp783
g3
g771
sS'acary (time)'
p784
F1.4835409999996045
sg6
g25
sa(dp785
g3
g771
sS'acary (time)'
p786
F86.58247100000062
sg6
g28
sa(dp787
g3
g771
sS'acary (time)'
p788
F86.02743999999984
sg6
g31
sa(dp789
g3
g771
sS'acary (time)'
p790
F0.3422200000004523
sg6
g34
sa(dp791
g3
g771
sS'acary (time)'
p792
F0.1993240000001606
sg6
g37
sa(dp793
g3
g771
sS'acary (time)'
p794
F1.0956340000002456
sg6
g40
saa(lp795
(dp796
g3
S'Box_Stacks-i1000-548-44.hdf5'
p797
sS'acary (time)'
p798
F0.17060100000071543
sg6
g7
sa(dp799
g3
g797
sS'acary (time)'
p800
F0.2705710000000181
sg6
g10
sa(dp801
g3
g797
sS'acary (time)'
p802
F0.24917400000049383
sg6
g13
sa(dp803
g3
g797
sS'acary (time)'
p804
F0.4871180000000095
sg6
g16
sa(dp805
g3
g797
sS'acary (time)'
p806
F104.90247799999997
sg6
g19
sa(dp807
g3
g797
sS'acary (time)'
p808
F0.42645100000027014
sg6
g22
sa(dp809
g3
g797
sS'acary (time)'
p810
F1.4859749999995984
sg6
g25
sa(dp811
g3
g797
sS'acary (time)'
p812
F86.4646929999999
sg6
g28
sa(dp813
g3
g797
sS'acary (time)'
p814
F86.69903400000021
sg6
g31
sa(dp815
g3
g797
sS'acary (time)'
p816
F0.3418069999997897
sg6
g34
sa(dp817
g3
g797
sS'acary (time)'
p818
F0.19967699999961042
sg6
g37
sa(dp819
g3
g797
sS'acary (time)'
p820
F1.09643799999958
sg6
g40
saa(lp821
(dp822
g3
S'Box_Stacks-i1000-548-45.hdf5'
p823
sS'acary (time)'
p824
F0.17082399999981135
sg6
g7
sa(dp825
g3
g823
sS'acary (time)'
p826
F0.2705500000001848
sg6
g10
sa(dp827
g3
g823
sS'acary (time)'
p828
F0.24994100000003527
sg6
g13
sa(dp829
g3
g823
sS'acary (time)'
p830
F0.4871549999998024
sg6
g16
sa(dp831
g3
g823
sS'acary (time)'
p832
F105.20447599999989
sg6
g19
sa(dp833
g3
g823
sS'acary (time)'
p834
F0.43013500000051863
sg6
g22
sa(dp835
g3
g823
sS'acary (time)'
p836
F1.484907000000021
sg6
g25
sa(dp837
g3
g823
sS'acary (time)'
p838
F86.54897099999926
sg6
g28
sa(dp839
g3
g823
sS'acary (time)'
p840
F86.83340800000042
sg6
g31
sa(dp841
g3
g823
sS'acary (time)'
p842
F0.34180300000116404
sg6
g34
sa(dp843
g3
g823
sS'acary (time)'
p844
F0.1986030000007304
sg6
g37
sa(dp845
g3
g823
sS'acary (time)'
p846
F1.0967139999993378
sg6
g40
saa(lp847
(dp848
g3
S'Box_Stacks-i1000-548-46.hdf5'
p849
sS'acary (time)'
p850
F0.17030200000044715
sg6
g7
sa(dp851
g3
g849
sS'acary (time)'
p852
F0.2707009999994625
sg6
g10
sa(dp853
g3
g849
sS'acary (time)'
p854
F0.24999100000059116
sg6
g13
sa(dp855
g3
g849
sS'acary (time)'
p856
F0.48909400000047754
sg6
g16
sa(dp857
g3
g849
sS'acary (time)'
p858
F105.25700499999948
sg6
g19
sa(dp859
g3
g849
sS'acary (time)'
p860
F0.427004000001034
sg6
g22
sa(dp861
g3
g849
sS'acary (time)'
p862
F1.482600999999704
sg6
g25
sa(dp863
g3
g849
sS'acary (time)'
p864
F86.41819300000134
sg6
g28
sa(dp865
g3
g849
sS'acary (time)'
p866
F85.58822299999883
sg6
g31
sa(dp867
g3
g849
sS'acary (time)'
p868
F0.3439330000001064
sg6
g34
sa(dp869
g3
g849
sS'acary (time)'
p870
F0.19955599999957485
sg6
g37
sa(dp871
g3
g849
sS'acary (time)'
p872
F1.094853000000512
sg6
g40
saa(lp873
(dp874
g3
S'Box_Stacks-i1000-548-47.hdf5'
p875
sS'acary (time)'
p876
F0.1706319999993866
sg6
g7
sa(dp877
g3
g875
sS'acary (time)'
p878
F0.27016900000126043
sg6
g10
sa(dp879
g3
g875
sS'acary (time)'
p880
F0.24980800000048475
sg6
g13
sa(dp881
g3
g875
sS'acary (time)'
p882
F0.48855399999956717
sg6
g16
sa(dp883
g3
g875
sS'acary (time)'
p884
F105.34541800000079
sg6
g19
sa(dp885
g3
g875
sS'acary (time)'
p886
F0.4272819999987405
sg6
g22
sa(dp887
g3
g875
sS'acary (time)'
p888
F1.486667999999554
sg6
g25
sa(dp889
g3
g875
sS'acary (time)'
p890
F86.21408900000097
sg6
g28
sa(dp891
g3
g875
sS'acary (time)'
p892
F86.5945670000001
sg6
g31
sa(dp893
g3
g875
sS'acary (time)'
p894
F0.3427429999992455
sg6
g34
sa(dp895
g3
g875
sS'acary (time)'
p896
F0.1990139999998064
sg6
g37
sa(dp897
g3
g875
sS'acary (time)'
p898
F1.0960180000001856
sg6
g40
saa(lp899
(dp900
g3
S'Box_Stacks-i1000-548-48.hdf5'
p901
sS'acary (time)'
p902
F0.17004300000007788
sg6
g7
sa(dp903
g3
g901
sS'acary (time)'
p904
F0.2702389999994921
sg6
g10
sa(dp905
g3
g901
sS'acary (time)'
p906
F0.24993200000062643
sg6
g13
sa(dp907
g3
g901
sS'acary (time)'
p908
F0.48952099999951315
sg6
g16
sa(dp909
g3
g901
sS'acary (time)'
p910
F105.31646700000056
sg6
g19
sa(dp911
g3
g901
sS'acary (time)'
p912
F0.4276350000000093
sg6
g22
sa(dp913
g3
g901
sS'acary (time)'
p914
F1.4880109999994602
sg6
g25
sa(dp915
g3
g901
sS'acary (time)'
p916
F86.41692700000021
sg6
g28
sa(dp917
g3
g901
sS'acary (time)'
p918
F87.23734700000023
sg6
g31
sa(dp919
g3
g901
sS'acary (time)'
p920
F0.3458200000004581
sg6
g34
sa(dp921
g3
g901
sS'acary (time)'
p922
F0.19940999999926134
sg6
g37
sa(dp923
g3
g901
sS'acary (time)'
p924
F1.0956519999999728
sg6
g40
saa(lp925
(dp926
g3
S'Box_Stacks-i1000-548-49.hdf5'
p927
sS'acary (time)'
p928
F0.17029600000023493
sg6
g7
sa(dp929
g3
g927
sS'acary (time)'
p930
F0.2709370000011404
sg6
g10
sa(dp931
g3
g927
sS'acary (time)'
p932
F0.2504580000004353
sg6
g13
sa(dp933
g3
g927
sS'acary (time)'
p934
F0.48970700000063516
sg6
g16
sa(dp935
g3
g927
sS'acary (time)'
p936
F105.22440000000097
sg6
g19
sa(dp937
g3
g927
sS'acary (time)'
p938
F0.42702099999951315
sg6
g22
sa(dp939
g3
g927
sS'acary (time)'
p940
F1.483979000000545
sg6
g25
sa(dp941
g3
g927
sS'acary (time)'
p942
F86.33014299999923
sg6
g28
sa(dp943
g3
g927
sS'acary (time)'
p944
F86.86442999999963
sg6
g31
sa(dp945
g3
g927
sS'acary (time)'
p946
F0.34557000000131666
sg6
g34
sa(dp947
g3
g927
sS'acary (time)'
p948
F0.19973400000162655
sg6
g37
sa(dp949
g3
g927
sS'acary (time)'
p950
F1.0941340000008495
sg6
g40
saa(lp951
(dp952
g3
S'Box_Stacks-i1000-548-50.hdf5'
p953
sS'acary (time)'
p954
F0.17072600000028615
sg6
g7
sa(dp955
g3
g953
sS'acary (time)'
p956
F0.2716549999986455
sg6
g10
sa(dp957
g3
g953
sS'acary (time)'
p958
F0.25241600000117614
sg6
g13
sa(dp959
g3
g953
sS'acary (time)'
p960
F0.4878840000001219
sg6
g16
sa(dp961
g3
g953
sS'acary (time)'
p962
F104.96799000000101
sg6
g19
sa(dp963
g3
g953
sS'acary (time)'
p964
F0.42718299999978626
sg6
g22
sa(dp965
g3
g953
sS'acary (time)'
p966
F1.4871430000002874
sg6
g25
sa(dp967
g3
g953
sS'acary (time)'
p968
F86.52058600000055
sg6
g28
sa(dp969
g3
g953
sS'acary (time)'
p970
F87.35943600000064
sg6
g31
sa(dp971
g3
g953
sS'acary (time)'
p972
F0.3418439999986731
sg6
g34
sa(dp973
g3
g953
sS'acary (time)'
p974
F0.1993769999990036
sg6
g37
sa(dp975
g3
g953
sS'acary (time)'
p976
F1.095937000000049
sg6
g40
saa(lp977
(dp978
g3
S'Box_Stacks-i1000-548-51.hdf5'
p979
sS'acary (time)'
p980
F0.16989900000044145
sg6
g7
sa(dp981
g3
g979
sS'acary (time)'
p982
F0.27031800000077055
sg6
g10
sa(dp983
g3
g979
sS'acary (time)'
p984
F0.2495020000005752
sg6
g13
sa(dp985
g3
g979
sS'acary (time)'
p986
F0.48834100000021863
sg6
g16
sa(dp987
g3
g979
sS'acary (time)'
p988
F104.29855299999872
sg6
g19
sa(dp989
g3
g979
sS'acary (time)'
p990
F0.42539600000054634
sg6
g22
sa(dp991
g3
g979
sS'acary (time)'
p992
F1.4849539999995613
sg6
g25
sa(dp993
g3
g979
sS'acary (time)'
p994
F86.87152099999912
sg6
g28
sa(dp995
g3
g979
sS'acary (time)'
p996
F86.55135800000062
sg6
g31
sa(dp997
g3
g979
sS'acary (time)'
p998
F0.3417799999988347
sg6
g34
sa(dp999
g3
g979
sS'acary (time)'
p1000
F0.20004900000094494
sg6
g37
sa(dp1001
g3
g979
sS'acary (time)'
p1002
F1.0951309999982186
sg6
g40
saa(lp1003
(dp1004
g3
S'Box_Stacks-i1000-548-52.hdf5'
p1005
sS'acary (time)'
p1006
F0.17006099999889557
sg6
g7
sa(dp1007
g3
g1005
sS'acary (time)'
p1008
F0.2689849999987928
sg6
g10
sa(dp1009
g3
g1005
sS'acary (time)'
p1010
F0.2499580000003334
sg6
g13
sa(dp1011
g3
g1005
sS'acary (time)'
p1012
F0.48695600000064587
sg6
g16
sa(dp1013
g3
g1005
sS'acary (time)'
p1014
F104.18315199999961
sg6
g19
sa(dp1015
g3
g1005
sS'acary (time)'
p1016
F0.42603799999960756
sg6
g22
sa(dp1017
g3
g1005
sS'acary (time)'
p1018
F1.486034000001382
sg6
g25
sa(dp1019
g3
g1005
sS'acary (time)'
p1020
F86.54858299999978
sg6
g28
sa(dp1021
g3
g1005
sS'acary (time)'
p1022
F87.03955300000052
sg6
g31
sa(dp1023
g3
g1005
sS'acary (time)'
p1024
F0.3421650000000227
sg6
g34
sa(dp1025
g3
g1005
sS'acary (time)'
p1026
F0.20027099999970233
sg6
g37
sa(dp1027
g3
g1005
sS'acary (time)'
p1028
F1.0941160000002128
sg6
g40
saa(lp1029
(dp1030
g3
S'Box_Stacks-i1000-548-53.hdf5'
p1031
sS'acary (time)'
p1032
F0.17020200000115437
sg6
g7
sa(dp1033
g3
g1031
sS'acary (time)'
p1034
F0.2709930000000895
sg6
g10
sa(dp1035
g3
g1031
sS'acary (time)'
p1036
F0.24999899999966146
sg6
g13
sa(dp1037
g3
g1031
sS'acary (time)'
p1038
F0.4884990000009566
sg6
g16
sa(dp1039
g3
g1031
sS'acary (time)'
p1040
F104.45849400000043
sg6
g19
sa(dp1041
g3
g1031
sS'acary (time)'
p1042
F0.42569300000104704
sg6
g22
sa(dp1043
g3
g1031
sS'acary (time)'
p1044
F1.4879390000005515
sg6
g25
sa(dp1045
g3
g1031
sS'acary (time)'
p1046
F86.44646699999976
sg6
g28
sa(dp1047
g3
g1031
sS'acary (time)'
p1048
F87.01222000000053
sg6
g31
sa(dp1049
g3
g1031
sS'acary (time)'
p1050
F0.3420909999986179
sg6
g34
sa(dp1051
g3
g1031
sS'acary (time)'
p1052
F0.19916799999919022
sg6
g37
sa(dp1053
g3
g1031
sS'acary (time)'
p1054
F1.094799000000421
sg6
g40
saa(lp1055
(dp1056
g3
S'Box_Stacks-i1000-548-54.hdf5'
p1057
sS'acary (time)'
p1058
F0.1700490000002901
sg6
g7
sa(dp1059
g3
g1057
sS'acary (time)'
p1060
F0.2711959999996907
sg6
g10
sa(dp1061
g3
g1057
sS'acary (time)'
p1062
F0.24940999999853375
sg6
g13
sa(dp1063
g3
g1057
sS'acary (time)'
p1064
F0.48764699999992445
sg6
g16
sa(dp1065
g3
g1057
sS'acary (time)'
p1066
F104.45931000000019
sg6
g19
sa(dp1067
g3
g1057
sS'acary (time)'
p1068
F0.4259060000003956
sg6
g22
sa(dp1069
g3
g1057
sS'acary (time)'
p1070
F1.483181000001423
sg6
g25
sa(dp1071
g3
g1057
sS'acary (time)'
p1072
F86.70046300000104
sg6
g28
sa(dp1073
g3
g1057
sS'acary (time)'
p1074
F86.62285200000042
sg6
g31
sa(dp1075
g3
g1057
sS'acary (time)'
p1076
F0.34175299999878916
sg6
g34
sa(dp1077
g3
g1057
sS'acary (time)'
p1078
F0.19943599999896833
sg6
g37
sa(dp1079
g3
g1057
sS'acary (time)'
p1080
F1.0949880000007397
sg6
g40
saa(lp1081
(dp1082
g3
S'Box_Stacks-i1000-548-55.hdf5'
p1083
sS'acary (time)'
p1084
F0.1697169999988546
sg6
g7
sa(dp1085
g3
g1083
sS'acary (time)'
p1086
F0.2703799999999319
sg6
g10
sa(dp1087
g3
g1083
sS'acary (time)'
p1088
F0.2498089999990043
sg6
g13
sa(dp1089
g3
g1083
sS'acary (time)'
p1090
F0.48795699999936915
sg6
g16
sa(dp1091
g3
g1083
sS'acary (time)'
p1092
F104.29061700000057
sg6
g19
sa(dp1093
g3
g1083
sS'acary (time)'
p1094
F0.426831000000675
sg6
g22
sa(dp1095
g3
g1083
sS'acary (time)'
p1096
F1.4867360000007466
sg6
g25
sa(dp1097
g3
g1083
sS'acary (time)'
p1098
F86.71678299999985
sg6
g28
sa(dp1099
g3
g1083
sS'acary (time)'
p1100
F85.71848800000043
sg6
g31
sa(dp1101
g3
g1083
sS'acary (time)'
p1102
F0.3411999999989348
sg6
g34
sa(dp1103
g3
g1083
sS'acary (time)'
p1104
F0.19914299999982177
sg6
g37
sa(dp1105
g3
g1083
sS'acary (time)'
p1106
F1.0948609999995824
sg6
g40
saa(lp1107
(dp1108
g3
S'Box_Stacks-i1000-548-56.hdf5'
p1109
sS'acary (time)'
p1110
F0.1696379999993951
sg6
g7
sa(dp1111
g3
g1109
sS'acary (time)'
p1112
F0.27036600000064936
sg6
g10
sa(dp1113
g3
g1109
sS'acary (time)'
p1114
F0.24906100000043807
sg6
g13
sa(dp1115
g3
g1109
sS'acary (time)'
p1116
F0.4874120000004041
sg6
g16
sa(dp1117
g3
g1109
sS'acary (time)'
p1118
F104.41371499999877
sg6
g19
sa(dp1119
g3
g1109
sS'acary (time)'
p1120
F0.42685399999936635
sg6
g22
sa(dp1121
g3
g1109
sS'acary (time)'
p1122
F1.4816719999998895
sg6
g25
sa(dp1123
g3
g1109
sS'acary (time)'
p1124
F86.25015399999938
sg6
g28
sa(dp1125
g3
g1109
sS'acary (time)'
p1126
F86.28473200000008
sg6
g31
sa(dp1127
g3
g1109
sS'acary (time)'
p1128
F0.3420640000003914
sg6
g34
sa(dp1129
g3
g1109
sS'acary (time)'
p1130
F0.19906500000070082
sg6
g37
sa(dp1131
g3
g1109
sS'acary (time)'
p1132
F1.0951549999990675
sg6
g40
saa(lp1133
(dp1134
g3
S'Box_Stacks-i1000-548-57.hdf5'
p1135
sS'acary (time)'
p1136
F0.16967900000054215
sg6
g7
sa(dp1137
g3
g1135
sS'acary (time)'
p1138
F0.27099900000030175
sg6
g10
sa(dp1139
g3
g1135
sS'acary (time)'
p1140
F0.24922799999876588
sg6
g13
sa(dp1141
g3
g1135
sS'acary (time)'
p1142
F0.48836499999924854
sg6
g16
sa(dp1143
g3
g1135
sS'acary (time)'
p1144
F104.44895600000018
sg6
g19
sa(dp1145
g3
g1135
sS'acary (time)'
p1146
F0.42833799999971234
sg6
g22
sa(dp1147
g3
g1135
sS'acary (time)'
p1148
F1.484827000000223
sg6
g25
sa(dp1149
g3
g1135
sS'acary (time)'
p1150
F86.56423199999881
sg6
g28
sa(dp1151
g3
g1135
sS'acary (time)'
p1152
F86.69701900000109
sg6
g31
sa(dp1153
g3
g1135
sS'acary (time)'
p1154
F0.3434770000003482
sg6
g34
sa(dp1155
g3
g1135
sS'acary (time)'
p1156
F0.19909499999994296
sg6
g37
sa(dp1157
g3
g1135
sS'acary (time)'
p1158
F1.0946769999991375
sg6
g40
saa(lp1159
(dp1160
g3
S'Box_Stacks-i1000-548-58.hdf5'
p1161
sS'acary (time)'
p1162
F0.16973200000029465
sg6
g7
sa(dp1163
g3
g1161
sS'acary (time)'
p1164
F0.27013000000079046
sg6
g10
sa(dp1165
g3
g1161
sS'acary (time)'
p1166
F0.24993600000016158
sg6
g13
sa(dp1167
g3
g1161
sS'acary (time)'
p1168
F0.4883430000008957
sg6
g16
sa(dp1169
g3
g1161
sS'acary (time)'
p1170
F104.263699000001
sg6
g19
sa(dp1171
g3
g1161
sS'acary (time)'
p1172
F0.4264530000000377
sg6
g22
sa(dp1173
g3
g1161
sS'acary (time)'
p1174
F1.489359000001059
sg6
g25
sa(dp1175
g3
g1161
sS'acary (time)'
p1176
F86.24466699999903
sg6
g28
sa(dp1177
g3
g1161
sS'acary (time)'
p1178
F86.13924299999962
sg6
g31
sa(dp1179
g3
g1161
sS'acary (time)'
p1180
F0.3419499999999971
sg6
g34
sa(dp1181
g3
g1161
sS'acary (time)'
p1182
F0.19910800000070594
sg6
g37
sa(dp1183
g3
g1161
sS'acary (time)'
p1184
F1.0951770000010583
sg6
g40
saa(lp1185
(dp1186
g3
S'Box_Stacks-i1000-548-59.hdf5'
p1187
sS'acary (time)'
p1188
F0.16966800000045623
sg6
g7
sa(dp1189
g3
g1187
sS'acary (time)'
p1190
F0.27071600000090257
sg6
g10
sa(dp1191
g3
g1187
sS'acary (time)'
p1192
F0.24999600000046485
sg6
g13
sa(dp1193
g3
g1187
sS'acary (time)'
p1194
F0.48856100000011793
sg6
g16
sa(dp1195
g3
g1187
sS'acary (time)'
p1196
F104.54026300000078
sg6
g19
sa(dp1197
g3
g1187
sS'acary (time)'
p1198
F0.4257159999997384
sg6
g22
sa(dp1199
g3
g1187
sS'acary (time)'
p1200
F1.4846959999995306
sg6
g25
sa(dp1201
g3
g1187
sS'acary (time)'
p1202
F86.56860099999903
sg6
g28
sa(dp1203
g3
g1187
sS'acary (time)'
p1204
F85.84669199999917
sg6
g31
sa(dp1205
g3
g1187
sS'acary (time)'
p1206
F0.34183999999913794
sg6
g34
sa(dp1207
g3
g1187
sS'acary (time)'
p1208
F0.1993480000001
sg6
g37
sa(dp1209
g3
g1187
sS'acary (time)'
p1210
F1.0960610000001907
sg6
g40
saa(lp1211
(dp1212
g3
S'Box_Stacks-i1000-548-60.hdf5'
p1213
sS'acary (time)'
p1214
F0.17043800000101328
sg6
g7
sa(dp1215
g3
g1213
sS'acary (time)'
p1216
F0.2707909999990079
sg6
g10
sa(dp1217
g3
g1213
sS'acary (time)'
p1218
F0.24927000000025146
sg6
g13
sa(dp1219
g3
g1213
sS'acary (time)'
p1220
F0.48591599999963364
sg6
g16
sa(dp1221
g3
g1213
sS'acary (time)'
p1222
F104.52031399999942
sg6
g19
sa(dp1223
g3
g1213
sS'acary (time)'
p1224
F0.4292199999999866
sg6
g22
sa(dp1225
g3
g1213
sS'acary (time)'
p1226
F1.4829719999997906
sg6
g25
sa(dp1227
g3
g1213
sS'acary (time)'
p1228
F86.48905000000013
sg6
g28
sa(dp1229
g3
g1213
sS'acary (time)'
p1230
F86.23632200000065
sg6
g31
sa(dp1231
g3
g1213
sS'acary (time)'
p1232
F0.34219600000142236
sg6
g34
sa(dp1233
g3
g1213
sS'acary (time)'
p1234
F0.1994909999993979
sg6
g37
sa(dp1235
g3
g1213
sS'acary (time)'
p1236
F1.095338000000993
sg6
g40
saa(lp1237
(dp1238
g3
S'Box_Stacks-i1000-548-61.hdf5'
p1239
sS'acary (time)'
p1240
F0.16987599999993108
sg6
g7
sa(dp1241
g3
g1239
sS'acary (time)'
p1242
F0.27143900000010035
sg6
g10
sa(dp1243
g3
g1239
sS'acary (time)'
p1244
F0.2502710000007937
sg6
g13
sa(dp1245
g3
g1239
sS'acary (time)'
p1246
F0.48869899999954214
sg6
g16
sa(dp1247
g3
g1239
sS'acary (time)'
p1248
F104.4937829999999
sg6
g19
sa(dp1249
g3
g1239
sS'acary (time)'
p1250
F0.4264500000008411
sg6
g22
sa(dp1251
g3
g1239
sS'acary (time)'
p1252
F1.4864859999997861
sg6
g25
sa(dp1253
g3
g1239
sS'acary (time)'
p1254
F86.45921799999996
sg6
g28
sa(dp1255
g3
g1239
sS'acary (time)'
p1256
F85.98131499999909
sg6
g31
sa(dp1257
g3
g1239
sS'acary (time)'
p1258
F0.34127600000101666
sg6
g34
sa(dp1259
g3
g1239
sS'acary (time)'
p1260
F0.19913699999960954
sg6
g37
sa(dp1261
g3
g1239
sS'acary (time)'
p1262
F1.0961349999997765
sg6
g40
saa(lp1263
(dp1264
g3
S'Box_Stacks-i1000-548-62.hdf5'
p1265
sS'acary (time)'
p1266
F0.1701599999996688
sg6
g7
sa(dp1267
g3
g1265
sS'acary (time)'
p1268
F0.2704649999996036
sg6
g10
sa(dp1269
g3
g1265
sS'acary (time)'
p1270
F0.24903400000039255
sg6
g13
sa(dp1271
g3
g1265
sS'acary (time)'
p1272
F0.48740100000031816
sg6
g16
sa(dp1273
g3
g1265
sS'acary (time)'
p1274
F104.60919299999841
sg6
g19
sa(dp1275
g3
g1265
sS'acary (time)'
p1276
F0.4315810000007332
sg6
g22
sa(dp1277
g3
g1265
sS'acary (time)'
p1278
F1.4864370000013878
sg6
g25
sa(dp1279
g3
g1265
sS'acary (time)'
p1280
F86.07451200000105
sg6
g28
sa(dp1281
g3
g1265
sS'acary (time)'
p1282
F86.32235300000139
sg6
g31
sa(dp1283
g3
g1265
sS'acary (time)'
p1284
F0.3419420000009268
sg6
g34
sa(dp1285
g3
g1265
sS'acary (time)'
p1286
F0.19882000000143307
sg6
g37
sa(dp1287
g3
g1265
sS'acary (time)'
p1288
F1.0962879999988218
sg6
g40
saa(lp1289
(dp1290
g3
S'Box_Stacks-i1000-548-63.hdf5'
p1291
sS'acary (time)'
p1292
F0.16979900000114867
sg6
g7
sa(dp1293
g3
g1291
sS'acary (time)'
p1294
F0.2713260000000446
sg6
g10
sa(dp1295
g3
g1291
sS'acary (time)'
p1296
F0.24981899999875168
sg6
g13
sa(dp1297
g3
g1291
sS'acary (time)'
p1298
F0.48880800000006275
sg6
g16
sa(dp1299
g3
g1291
sS'acary (time)'
p1300
F104.53396000000066
sg6
g19
sa(dp1301
g3
g1291
sS'acary (time)'
p1302
F0.4272710000004736
sg6
g22
sa(dp1303
g3
g1291
sS'acary (time)'
p1304
F1.4843130000008387
sg6
g25
sa(dp1305
g3
g1291
sS'acary (time)'
p1306
F86.4408489999987
sg6
g28
sa(dp1307
g3
g1291
sS'acary (time)'
p1308
F86.63955999999962
sg6
g31
sa(dp1309
g3
g1291
sS'acary (time)'
p1310
F0.34202600000025996
sg6
g34
sa(dp1311
g3
g1291
sS'acary (time)'
p1312
F0.1993899999997666
sg6
g37
sa(dp1313
g3
g1291
sS'acary (time)'
p1314
F1.0963119999996707
sg6
g40
saa(lp1315
(dp1316
g3
S'Box_Stacks-i1000-548-64.hdf5'
p1317
sS'acary (time)'
p1318
F0.17009200000029523
sg6
g7
sa(dp1319
g3
g1317
sS'acary (time)'
p1320
F0.2701919999999518
sg6
g10
sa(dp1321
g3
g1317
sS'acary (time)'
p1322
F0.2499179999995249
sg6
g13
sa(dp1323
g3
g1317
sS'acary (time)'
p1324
F0.4878420000004553
sg6
g16
sa(dp1325
g3
g1317
sS'acary (time)'
p1326
F104.75775299999987
sg6
g19
sa(dp1327
g3
g1317
sS'acary (time)'
p1328
F0.42769700000098965
sg6
g22
sa(dp1329
g3
g1317
sS'acary (time)'
p1330
F1.4893929999998363
sg6
g25
sa(dp1331
g3
g1317
sS'acary (time)'
p1332
F86.85228299999835
sg6
g28
sa(dp1333
g3
g1317
sS'acary (time)'
p1334
F86.0823820000005
sg6
g31
sa(dp1335
g3
g1317
sS'acary (time)'
p1336
F0.3433920000006765
sg6
g34
sa(dp1337
g3
g1317
sS'acary (time)'
p1338
F0.2002040000006673
sg6
g37
sa(dp1339
g3
g1317
sS'acary (time)'
p1340
F1.0958100000007107
sg6
g40
saa(lp1341
(dp1342
g3
S'Box_Stacks-i1000-548-65.hdf5'
p1343
sS'acary (time)'
p1344
F0.1706479999993462
sg6
g7
sa(dp1345
g3
g1343
sS'acary (time)'
p1346
F0.2710000000006403
sg6
g10
sa(dp1347
g3
g1343
sS'acary (time)'
p1348
F0.25097099999948114
sg6
g13
sa(dp1349
g3
g1343
sS'acary (time)'
p1350
F0.4903729999987263
sg6
g16
sa(dp1351
g3
g1343
sS'acary (time)'
p1352
F104.25877000000037
sg6
g19
sa(dp1353
g3
g1343
sS'acary (time)'
p1354
F0.42607499999940046
sg6
g22
sa(dp1355
g3
g1343
sS'acary (time)'
p1356
F1.4899370000002818
sg6
g25
sa(dp1357
g3
g1343
sS'acary (time)'
p1358
F86.40933200000109
sg6
g28
sa(dp1359
g3
g1343
sS'acary (time)'
p1360
F85.99963200000093
sg6
g31
sa(dp1361
g3
g1343
sS'acary (time)'
p1362
F0.3416589999997086
sg6
g34
sa(dp1363
g3
g1343
sS'acary (time)'
p1364
F0.2002520000005461
sg6
g37
sa(dp1365
g3
g1343
sS'acary (time)'
p1366
F1.0963690000007773
sg6
g40
saa(lp1367
(dp1368
g3
S'Box_Stacks-i1000-548-66.hdf5'
p1369
sS'acary (time)'
p1370
F0.16995200000019395
sg6
g7
sa(dp1371
g3
g1369
sS'acary (time)'
p1372
F0.2755319999996573
sg6
g10
sa(dp1373
g3
g1369
sS'acary (time)'
p1374
F0.2493880000001809
sg6
g13
sa(dp1375
g3
g1369
sS'acary (time)'
p1376
F0.48857500000121945
sg6
g16
sa(dp1377
g3
g1369
sS'acary (time)'
p1378
F104.490534999999
sg6
g19
sa(dp1379
g3
g1369
sS'acary (time)'
p1380
F0.4263460000001942
sg6
g22
sa(dp1381
g3
g1369
sS'acary (time)'
p1382
F1.4880009999997128
sg6
g25
sa(dp1383
g3
g1369
sS'acary (time)'
p1384
F86.36821600000076
sg6
g28
sa(dp1385
g3
g1369
sS'acary (time)'
p1386
F86.19952100000046
sg6
g31
sa(dp1387
g3
g1369
sS'acary (time)'
p1388
F0.3432489999995596
sg6
g34
sa(dp1389
g3
g1369
sS'acary (time)'
p1390
F0.20022999999855529
sg6
g37
sa(dp1391
g3
g1369
sS'acary (time)'
p1392
F1.0965230000001611
sg6
g40
saa(lp1393
(dp1394
g3
S'Box_Stacks-i1000-548-67.hdf5'
p1395
sS'acary (time)'
p1396
F0.16994599999998172
sg6
g7
sa(dp1397
g3
g1395
sS'acary (time)'
p1398
F0.27074499999980617
sg6
g10
sa(dp1399
g3
g1395
sS'acary (time)'
p1400
F0.25072200000067824
sg6
g13
sa(dp1401
g3
g1395
sS'acary (time)'
p1402
F0.48973800000021583
sg6
g16
sa(dp1403
g3
g1395
sS'acary (time)'
p1404
F104.62029699999948
sg6
g19
sa(dp1405
g3
g1395
sS'acary (time)'
p1406
F0.42740600000070117
sg6
g22
sa(dp1407
g3
g1395
sS'acary (time)'
p1408
F1.4889679999996588
sg6
g25
sa(dp1409
g3
g1395
sS'acary (time)'
p1410
F86.5227270000014
sg6
g28
sa(dp1411
g3
g1395
sS'acary (time)'
p1412
F87.68970000000081
sg6
g31
sa(dp1413
g3
g1395
sS'acary (time)'
p1414
F0.3453430000008666
sg6
g34
sa(dp1415
g3
g1395
sS'acary (time)'
p1416
F0.20067800000106217
sg6
g37
sa(dp1417
g3
g1395
sS'acary (time)'
p1418
F1.0945620000002236
sg6
g40
saa(lp1419
(dp1420
g3
S'Box_Stacks-i1000-548-68.hdf5'
p1421
sS'acary (time)'
p1422
F0.17054099999950267
sg6
g7
sa(dp1423
g3
g1421
sS'acary (time)'
p1424
F0.27009799999905226
sg6
g10
sa(dp1425
g3
g1421
sS'acary (time)'
p1426
F0.24912199999926088
sg6
g13
sa(dp1427
g3
g1421
sS'acary (time)'
p1428
F0.4860979999994015
sg6
g16
sa(dp1429
g3
g1421
sS'acary (time)'
p1430
F104.59104000000116
sg6
g19
sa(dp1431
g3
g1421
sS'acary (time)'
p1432
F0.42796499999894877
sg6
g22
sa(dp1433
g3
g1421
sS'acary (time)'
p1434
F1.4869400000006863
sg6
g25
sa(dp1435
g3
g1421
sS'acary (time)'
p1436
F86.55005100000017
sg6
g28
sa(dp1437
g3
g1421
sS'acary (time)'
p1438
F85.68546500000048
sg6
g31
sa(dp1439
g3
g1421
sS'acary (time)'
p1440
F0.34186899999986053
sg6
g34
sa(dp1441
g3
g1421
sS'acary (time)'
p1442
F0.198936999999205
sg6
g37
sa(dp1443
g3
g1421
sS'acary (time)'
p1444
F1.0946920000005775
sg6
g40
saa(lp1445
(dp1446
g3
S'Box_Stacks-i1000-548-69.hdf5'
p1447
sS'acary (time)'
p1448
F0.17021900000145251
sg6
g7
sa(dp1449
g3
g1447
sS'acary (time)'
p1450
F0.270580999998856
sg6
g10
sa(dp1451
g3
g1447
sS'acary (time)'
p1452
F0.24966500000118685
sg6
g13
sa(dp1453
g3
g1447
sS'acary (time)'
p1454
F0.4882590000015625
sg6
g16
sa(dp1455
g3
g1447
sS'acary (time)'
p1456
F104.53651700000046
sg6
g19
sa(dp1457
g3
g1447
sS'acary (time)'
p1458
F0.42770800000107556
sg6
g22
sa(dp1459
g3
g1447
sS'acary (time)'
p1460
F1.4843089999994845
sg6
g25
sa(dp1461
g3
g1447
sS'acary (time)'
p1462
F86.32398099999955
sg6
g28
sa(dp1463
g3
g1447
sS'acary (time)'
p1464
F85.95723700000053
sg6
g31
sa(dp1465
g3
g1447
sS'acary (time)'
p1466
F0.3413890000010724
sg6
g34
sa(dp1467
g3
g1447
sS'acary (time)'
p1468
F0.20000500000060129
sg6
g37
sa(dp1469
g3
g1447
sS'acary (time)'
p1470
F1.1027979999998934
sg6
g40
saa(lp1471
(dp1472
g3
S'Box_Stacks-i1000-548-70.hdf5'
p1473
sS'acary (time)'
p1474
F0.1704859999990731
sg6
g7
sa(dp1475
g3
g1473
sS'acary (time)'
p1476
F0.2712210000008781
sg6
g10
sa(dp1477
g3
g1473
sS'acary (time)'
p1478
F0.2509300000001531
sg6
g13
sa(dp1479
g3
g1473
sS'acary (time)'
p1480
F0.48961899999994785
sg6
g16
sa(dp1481
g3
g1473
sS'acary (time)'
p1482
F104.20804099999987
sg6
g19
sa(dp1483
g3
g1473
sS'acary (time)'
p1484
F0.4257529999995313
sg6
g22
sa(dp1485
g3
g1473
sS'acary (time)'
p1486
F1.4911100000008446
sg6
g25
sa(dp1487
g3
g1473
sS'acary (time)'
p1488
F86.88402200000019
sg6
g28
sa(dp1489
g3
g1473
sS'acary (time)'
p1490
F86.31988300000012
sg6
g31
sa(dp1491
g3
g1473
sS'acary (time)'
p1492
F0.345182000000932
sg6
g34
sa(dp1493
g3
g1473
sS'acary (time)'
p1494
F0.19984299999850919
sg6
g37
sa(dp1495
g3
g1473
sS'acary (time)'
p1496
F1.0944630000012694
sg6
g40
saa(lp1497
(dp1498
g3
S'Box_Stacks-i1000-548-71.hdf5'
p1499
sS'acary (time)'
p1500
F0.17048500000055355
sg6
g7
sa(dp1501
g3
g1499
sS'acary (time)'
p1502
F0.2705819999991945
sg6
g10
sa(dp1503
g3
g1499
sS'acary (time)'
p1504
F0.24978299999929732
sg6
g13
sa(dp1505
g3
g1499
sS'acary (time)'
p1506
F0.48748499999965134
sg6
g16
sa(dp1507
g3
g1499
sS'acary (time)'
p1508
F104.56458600000042
sg6
g19
sa(dp1509
g3
g1499
sS'acary (time)'
p1510
F0.4266929999994318
sg6
g22
sa(dp1511
g3
g1499
sS'acary (time)'
p1512
F1.470196999998734
sg6
g25
sa(dp1513
g3
g1499
sS'acary (time)'
p1514
F86.48479800000132
sg6
g28
sa(dp1515
g3
g1499
sS'acary (time)'
p1516
F85.85053700000026
sg6
g31
sa(dp1517
g3
g1499
sS'acary (time)'
p1518
F0.3421070000003965
sg6
g34
sa(dp1519
g3
g1499
sS'acary (time)'
p1520
F0.19876699999986158
sg6
g37
sa(dp1521
g3
g1499
sS'acary (time)'
p1522
F1.0949999999993452
sg6
g40
saa(lp1523
(dp1524
g3
S'Box_Stacks-i1000-548-72.hdf5'
p1525
sS'acary (time)'
p1526
F0.170099000000846
sg6
g7
sa(dp1527
g3
g1525
sS'acary (time)'
p1528
F0.2707360000003973
sg6
g10
sa(dp1529
g3
g1525
sS'acary (time)'
p1530
F0.25052600000162784
sg6
g13
sa(dp1531
g3
g1525
sS'acary (time)'
p1532
F0.48907300000064424
sg6
g16
sa(dp1533
g3
g1525
sS'acary (time)'
p1534
F104.40114799999901
sg6
g19
sa(dp1535
g3
g1525
sS'acary (time)'
p1536
F0.42693099999996775
sg6
g22
sa(dp1537
g3
g1525
sS'acary (time)'
p1538
F1.4807000000000698
sg6
g25
sa(dp1539
g3
g1525
sS'acary (time)'
p1540
F86.34246300000086
sg6
g28
sa(dp1541
g3
g1525
sS'acary (time)'
p1542
F86.008276999999
sg6
g31
sa(dp1543
g3
g1525
sS'acary (time)'
p1544
F0.3414360000006127
sg6
g34
sa(dp1545
g3
g1525
sS'acary (time)'
p1546
F0.19965200000115146
sg6
g37
sa(dp1547
g3
g1525
sS'acary (time)'
p1548
F1.0970889999989595
sg6
g40
saa(lp1549
(dp1550
g3
S'Box_Stacks-i1000-548-73.hdf5'
p1551
sS'acary (time)'
p1552
F0.1703639999996085
sg6
g7
sa(dp1553
g3
g1551
sS'acary (time)'
p1554
F0.27079000000048836
sg6
g10
sa(dp1555
g3
g1551
sS'acary (time)'
p1556
F0.24917699999969045
sg6
g13
sa(dp1557
g3
g1551
sS'acary (time)'
p1558
F0.4881069999992178
sg6
g16
sa(dp1559
g3
g1551
sS'acary (time)'
p1560
F104.3377189999992
sg6
g19
sa(dp1561
g3
g1551
sS'acary (time)'
p1562
F0.42636400000083086
sg6
g22
sa(dp1563
g3
g1551
sS'acary (time)'
p1564
F1.4781899999998132
sg6
g25
sa(dp1565
g3
g1551
sS'acary (time)'
p1566
F86.50063599999885
sg6
g28
sa(dp1567
g3
g1551
sS'acary (time)'
p1568
F86.42581699999937
sg6
g31
sa(dp1569
g3
g1551
sS'acary (time)'
p1570
F0.34179299999959767
sg6
g34
sa(dp1571
g3
g1551
sS'acary (time)'
p1572
F0.19992799999999988
sg6
g37
sa(dp1573
g3
g1551
sS'acary (time)'
p1574
F1.095937000000049
sg6
g40
saa(lp1575
(dp1576
g3
S'Box_Stacks-i1000-548-74.hdf5'
p1577
sS'acary (time)'
p1578
F0.17074400000092282
sg6
g7
sa(dp1579
g3
g1577
sS'acary (time)'
p1580
F0.27104399999916495
sg6
g10
sa(dp1581
g3
g1577
sS'acary (time)'
p1582
F0.25034799999957613
sg6
g13
sa(dp1583
g3
g1577
sS'acary (time)'
p1584
F0.4876989999993384
sg6
g16
sa(dp1585
g3
g1577
sS'acary (time)'
p1586
F104.50235600000087
sg6
g19
sa(dp1587
g3
g1577
sS'acary (time)'
p1588
F0.42887900000096124
sg6
g22
sa(dp1589
g3
g1577
sS'acary (time)'
p1590
F1.4747619999998278
sg6
g25
sa(dp1591
g3
g1577
sS'acary (time)'
p1592
F86.53067499999997
sg6
g28
sa(dp1593
g3
g1577
sS'acary (time)'
p1594
F85.39193199999863
sg6
g31
sa(dp1595
g3
g1577
sS'acary (time)'
p1596
F0.34187499999825377
sg6
g34
sa(dp1597
g3
g1577
sS'acary (time)'
p1598
F0.2003359999980603
sg6
g37
sa(dp1599
g3
g1577
sS'acary (time)'
p1600
F1.096588000000338
sg6
g40
saa(lp1601
(dp1602
g3
S'Box_Stacks-i1000-548-75.hdf5'
p1603
sS'acary (time)'
p1604
F0.1703479999996489
sg6
g7
sa(dp1605
g3
g1603
sS'acary (time)'
p1606
F0.26995800000076997
sg6
g10
sa(dp1607
g3
g1603
sS'acary (time)'
p1608
F0.24981400000251597
sg6
g13
sa(dp1609
g3
g1603
sS'acary (time)'
p1610
F0.4888470000005327
sg6
g16
sa(dp1611
g3
g1603
sS'acary (time)'
p1612
F104.26167299999724
sg6
g19
sa(dp1613
g3
g1603
sS'acary (time)'
p1614
F0.42659199999980046
sg6
g22
sa(dp1615
g3
g1603
sS'acary (time)'
p1616
F1.4782500000001164
sg6
g25
sa(dp1617
g3
g1603
sS'acary (time)'
p1618
F86.23989699999947
sg6
g28
sa(dp1619
g3
g1603
sS'acary (time)'
p1620
F85.55318799999804
sg6
g31
sa(dp1621
g3
g1603
sS'acary (time)'
p1622
F0.34183499999926426
sg6
g34
sa(dp1623
g3
g1603
sS'acary (time)'
p1624
F0.19934999999895808
sg6
g37
sa(dp1625
g3
g1603
sS'acary (time)'
p1626
F1.095195000001695
sg6
g40
saa(lp1627
(dp1628
g3
S'Box_Stacks-i1000-548-76.hdf5'
p1629
sS'acary (time)'
p1630
F0.17032599999947706
sg6
g7
sa(dp1631
g3
g1629
sS'acary (time)'
p1632
F0.270885999998427
sg6
g10
sa(dp1633
g3
g1629
sS'acary (time)'
p1634
F0.24965799999699811
sg6
g13
sa(dp1635
g3
g1629
sS'acary (time)'
p1636
F0.4872270000014396
sg6
g16
sa(dp1637
g3
g1629
sS'acary (time)'
p1638
F104.70183299999917
sg6
g19
sa(dp1639
g3
g1629
sS'acary (time)'
p1640
F0.4315829999977723
sg6
g22
sa(dp1641
g3
g1629
sS'acary (time)'
p1642
F1.4727360000033514
sg6
g25
sa(dp1643
g3
g1629
sS'acary (time)'
p1644
F86.22647700000016
sg6
g28
sa(dp1645
g3
g1629
sS'acary (time)'
p1646
F86.41253000000142
sg6
g31
sa(dp1647
g3
g1629
sS'acary (time)'
p1648
F0.3423240000010992
sg6
g34
sa(dp1649
g3
g1629
sS'acary (time)'
p1650
F0.20044099999722675
sg6
g37
sa(dp1651
g3
g1629
sS'acary (time)'
p1652
F1.0937659999981406
sg6
g40
saa(lp1653
(dp1654
g3
S'Box_Stacks-i1000-548-77.hdf5'
p1655
sS'acary (time)'
p1656
F0.17016299999886542
sg6
g7
sa(dp1657
g3
g1655
sS'acary (time)'
p1658
F0.27125599999999395
sg6
g10
sa(dp1659
g3
g1655
sS'acary (time)'
p1660
F0.25115500000174507
sg6
g13
sa(dp1661
g3
g1655
sS'acary (time)'
p1662
F0.4895959999994375
sg6
g16
sa(dp1663
g3
g1655
sS'acary (time)'
p1664
F104.22818099999859
sg6
g19
sa(dp1665
g3
g1655
sS'acary (time)'
p1666
F0.42596899999989546
sg6
g22
sa(dp1667
g3
g1655
sS'acary (time)'
p1668
F1.4792450000022654
sg6
g25
sa(dp1669
g3
g1655
sS'acary (time)'
p1670
F86.27581799999825
sg6
g28
sa(dp1671
g3
g1655
sS'acary (time)'
p1672
F85.76970300000175
sg6
g31
sa(dp1673
g3
g1655
sS'acary (time)'
p1674
F0.3418629999978293
sg6
g34
sa(dp1675
g3
g1655
sS'acary (time)'
p1676
F0.200514000000112
sg6
g37
sa(dp1677
g3
g1655
sS'acary (time)'
p1678
F1.0949120000004768
sg6
g40
saa(lp1679
(dp1680
g3
S'Box_Stacks-i1000-548-78.hdf5'
p1681
sS'acary (time)'
p1682
F0.17050199999721372
sg6
g7
sa(dp1683
g3
g1681
sS'acary (time)'
p1684
F0.2711860000017623
sg6
g10
sa(dp1685
g3
g1681
sS'acary (time)'
p1686
F0.2490780000007362
sg6
g13
sa(dp1687
g3
g1681
sS'acary (time)'
p1688
F0.48877899999934016
sg6
g16
sa(dp1689
g3
g1681
sS'acary (time)'
p1690
F104.27249200000006
sg6
g19
sa(dp1691
g3
g1681
sS'acary (time)'
p1692
F0.4258829999998852
sg6
g22
sa(dp1693
g3
g1681
sS'acary (time)'
p1694
F1.477696999998443
sg6
g25
sa(dp1695
g3
g1681
sS'acary (time)'
p1696
F86.3057489999992
sg6
g28
sa(dp1697
g3
g1681
sS'acary (time)'
p1698
F86.20524700000169
sg6
g31
sa(dp1699
g3
g1681
sS'acary (time)'
p1700
F0.34204400000089663
sg6
g34
sa(dp1701
g3
g1681
sS'acary (time)'
p1702
F0.20042499999908614
sg6
g37
sa(dp1703
g3
g1681
sS'acary (time)'
p1704
F1.0942289999984496
sg6
g40
saa(lp1705
(dp1706
g3
S'Box_Stacks-i1000-548-79.hdf5'
p1707
sS'acary (time)'
p1708
F0.1702030000014929
sg6
g7
sa(dp1709
g3
g1707
sS'acary (time)'
p1710
F0.2705209999985527
sg6
g10
sa(dp1711
g3
g1707
sS'acary (time)'
p1712
F0.24999700000262237
sg6
g13
sa(dp1713
g3
g1707
sS'acary (time)'
p1714
F0.48885299999892595
sg6
g16
sa(dp1715
g3
g1707
sS'acary (time)'
p1716
F104.25268000000142
sg6
g19
sa(dp1717
g3
g1707
sS'acary (time)'
p1718
F0.42547299999932875
sg6
g22
sa(dp1719
g3
g1707
sS'acary (time)'
p1720
F1.4779550000021118
sg6
g25
sa(dp1721
g3
g1707
sS'acary (time)'
p1722
F86.35994500000015
sg6
g28
sa(dp1723
g3
g1707
sS'acary (time)'
p1724
F85.59794400000101
sg6
g31
sa(dp1725
g3
g1707
sS'acary (time)'
p1726
F0.34185299999808194
sg6
g34
sa(dp1727
g3
g1707
sS'acary (time)'
p1728
F0.19941599999947357
sg6
g37
sa(dp1729
g3
g1707
sS'acary (time)'
p1730
F1.0958129999999073
sg6
g40
saa(lp1731
(dp1732
g3
S'Box_Stacks-i1000-548-80.hdf5'
p1733
sS'acary (time)'
p1734
F0.1706400000002759
sg6
g7
sa(dp1735
g3
g1733
sS'acary (time)'
p1736
F0.2709420000028331
sg6
g10
sa(dp1737
g3
g1733
sS'acary (time)'
p1738
F0.24929699999847799
sg6
g13
sa(dp1739
g3
g1733
sS'acary (time)'
p1740
F0.48812700000053155
sg6
g16
sa(dp1741
g3
g1733
sS'acary (time)'
p1742
F104.39359600000171
sg6
g19
sa(dp1743
g3
g1733
sS'acary (time)'
p1744
F0.43151900000157184
sg6
g22
sa(dp1745
g3
g1733
sS'acary (time)'
p1746
F1.47586500000034
sg6
g25
sa(dp1747
g3
g1733
sS'acary (time)'
p1748
F86.477304
sg6
g28
sa(dp1749
g3
g1733
sS'acary (time)'
p1750
F86.0361699999994
sg6
g31
sa(dp1751
g3
g1733
sS'acary (time)'
p1752
F0.3422549999995681
sg6
g34
sa(dp1753
g3
g1733
sS'acary (time)'
p1754
F0.19971399999849382
sg6
g37
sa(dp1755
g3
g1733
sS'acary (time)'
p1756
F1.0939829999988433
sg6
g40
saa(lp1757
(dp1758
g3
S'Box_Stacks-i1000-548-81.hdf5'
p1759
sS'acary (time)'
p1760
F0.17036599999846658
sg6
g7
sa(dp1761
g3
g1759
sS'acary (time)'
p1762
F0.2711319999980333
sg6
g10
sa(dp1763
g3
g1759
sS'acary (time)'
p1764
F0.2535829999978887
sg6
g13
sa(dp1765
g3
g1759
sS'acary (time)'
p1766
F0.4870359999986249
sg6
g16
sa(dp1767
g3
g1759
sS'acary (time)'
p1768
F104.13329200000226
sg6
g19
sa(dp1769
g3
g1759
sS'acary (time)'
p1770
F0.42746600000100443
sg6
g22
sa(dp1771
g3
g1759
sS'acary (time)'
p1772
F1.4793349999999919
sg6
g25
sa(dp1773
g3
g1759
sS'acary (time)'
p1774
F86.33310400000119
sg6
g28
sa(dp1775
g3
g1759
sS'acary (time)'
p1776
F85.87090499999977
sg6
g31
sa(dp1777
g3
g1759
sS'acary (time)'
p1778
F0.34156300000177
sg6
g34
sa(dp1779
g3
g1759
sS'acary (time)'
p1780
F0.199983999998949
sg6
g37
sa(dp1781
g3
g1759
sS'acary (time)'
p1782
F1.095726999999897
sg6
g40
saa(lp1783
(dp1784
g3
S'Box_Stacks-i1000-548-82.hdf5'
p1785
sS'acary (time)'
p1786
F0.17003000000113389
sg6
g7
sa(dp1787
g3
g1785
sS'acary (time)'
p1788
F0.27113099999769474
sg6
g10
sa(dp1789
g3
g1785
sS'acary (time)'
p1790
F0.24955299999783165
sg6
g13
sa(dp1791
g3
g1785
sS'acary (time)'
p1792
F0.4877390000001469
sg6
g16
sa(dp1793
g3
g1785
sS'acary (time)'
p1794
F104.35598800000298
sg6
g19
sa(dp1795
g3
g1785
sS'acary (time)'
p1796
F0.42694399999891175
sg6
g22
sa(dp1797
g3
g1785
sS'acary (time)'
p1798
F1.47463400000197
sg6
g25
sa(dp1799
g3
g1785
sS'acary (time)'
p1800
F86.347901000001
sg6
g28
sa(dp1801
g3
g1785
sS'acary (time)'
p1802
F86.21442799999932
sg6
g31
sa(dp1803
g3
g1785
sS'acary (time)'
p1804
F0.3420640000003914
sg6
g34
sa(dp1805
g3
g1785
sS'acary (time)'
p1806
F0.1996610000023793
sg6
g37
sa(dp1807
g3
g1785
sS'acary (time)'
p1808
F1.0954789999996137
sg6
g40
saa(lp1809
(dp1810
g3
S'Box_Stacks-i1000-548-83.hdf5'
p1811
sS'acary (time)'
p1812
F0.17044999999779975
sg6
g7
sa(dp1813
g3
g1811
sS'acary (time)'
p1814
F0.27039700000023004
sg6
g10
sa(dp1815
g3
g1811
sS'acary (time)'
p1816
F0.24950199999875622
sg6
g13
sa(dp1817
g3
g1811
sS'acary (time)'
p1818
F0.48679099999935715
sg6
g16
sa(dp1819
g3
g1811
sS'acary (time)'
p1820
F104.67496499999834
sg6
g19
sa(dp1821
g3
g1811
sS'acary (time)'
p1822
F0.4258910000025935
sg6
g22
sa(dp1823
g3
g1811
sS'acary (time)'
p1824
F1.47703299999921
sg6
g25
sa(dp1825
g3
g1811
sS'acary (time)'
p1826
F86.86515199999849
sg6
g28
sa(dp1827
g3
g1811
sS'acary (time)'
p1828
F85.84468100000231
sg6
g31
sa(dp1829
g3
g1811
sS'acary (time)'
p1830
F0.34504500000184635
sg6
g34
sa(dp1831
g3
g1811
sS'acary (time)'
p1832
F0.1986910000014177
sg6
g37
sa(dp1833
g3
g1811
sS'acary (time)'
p1834
F1.0971219999992172
sg6
g40
saa(lp1835
(dp1836
g3
S'Box_Stacks-i1000-548-84.hdf5'
p1837
sS'acary (time)'
p1838
F0.170086000001902
sg6
g7
sa(dp1839
g3
g1837
sS'acary (time)'
p1840
F0.27096700000038254
sg6
g10
sa(dp1841
g3
g1837
sS'acary (time)'
p1842
F0.2498330000016722
sg6
g13
sa(dp1843
g3
g1837
sS'acary (time)'
p1844
F0.48683100000198465
sg6
g16
sa(dp1845
g3
g1837
sS'acary (time)'
p1846
F104.53351900000052
sg6
g19
sa(dp1847
g3
g1837
sS'acary (time)'
p1848
F0.4259749999982887
sg6
g22
sa(dp1849
g3
g1837
sS'acary (time)'
p1850
F1.4745490000022983
sg6
g25
sa(dp1851
g3
g1837
sS'acary (time)'
p1852
F86.34540800000104
sg6
g28
sa(dp1853
g3
g1837
sS'acary (time)'
p1854
F86.34159500000169
sg6
g31
sa(dp1855
g3
g1837
sS'acary (time)'
p1856
F0.34170500000254833
sg6
g34
sa(dp1857
g3
g1837
sS'acary (time)'
p1858
F0.19956599999932223
sg6
g37
sa(dp1859
g3
g1837
sS'acary (time)'
p1860
F1.0957070000004023
sg6
g40
saa(lp1861
(dp1862
g3
S'Box_Stacks-i1000-548-86.hdf5'
p1863
sS'acary (time)'
p1864
F0.17043300000295858
sg6
g7
sa(dp1865
g3
g1863
sS'acary (time)'
p1866
F0.27035999999861815
sg6
g10
sa(dp1867
g3
g1863
sS'acary (time)'
p1868
F0.24932999999873573
sg6
g13
sa(dp1869
g3
g1863
sS'acary (time)'
p1870
F0.486944999996922
sg6
g16
sa(dp1871
g3
g1863
sS'acary (time)'
p1872
F104.47462499999892
sg6
g19
sa(dp1873
g3
g1863
sS'acary (time)'
p1874
F0.4261609999994107
sg6
g22
sa(dp1875
g3
g1863
sS'acary (time)'
p1876
F1.4760649999989255
sg6
g25
sa(dp1877
g3
g1863
sS'acary (time)'
p1878
F86.16417600000204
sg6
g28
sa(dp1879
g3
g1863
sS'acary (time)'
p1880
F86.00187499999811
sg6
g31
sa(dp1881
g3
g1863
sS'acary (time)'
p1882
F0.3416670000005979
sg6
g34
sa(dp1883
g3
g1863
sS'acary (time)'
p1884
F0.199585999998817
sg6
g37
sa(dp1885
g3
g1863
sS'acary (time)'
p1886
F1.0952199999992445
sg6
g40
saa(lp1887
(dp1888
g3
S'Box_Stacks-i1000-548-87.hdf5'
p1889
sS'acary (time)'
p1890
F0.17062299999815878
sg6
g7
sa(dp1891
g3
g1889
sS'acary (time)'
p1892
F0.2707829999999376
sg6
g10
sa(dp1893
g3
g1889
sS'acary (time)'
p1894
F0.2505669999991369
sg6
g13
sa(dp1895
g3
g1889
sS'acary (time)'
p1896
F0.4901449999997567
sg6
g16
sa(dp1897
g3
g1889
sS'acary (time)'
p1898
F104.26321100000132
sg6
g19
sa(dp1899
g3
g1889
sS'acary (time)'
p1900
F0.4261850000002596
sg6
g22
sa(dp1901
g3
g1889
sS'acary (time)'
p1902
F1.4794809999984864
sg6
g25
sa(dp1903
g3
g1889
sS'acary (time)'
p1904
F86.30133100000239
sg6
g28
sa(dp1905
g3
g1889
sS'acary (time)'
p1906
F86.10077799999999
sg6
g31
sa(dp1907
g3
g1889
sS'acary (time)'
p1908
F0.34227200000168523
sg6
g34
sa(dp1909
g3
g1889
sS'acary (time)'
p1910
F0.19900699999925564
sg6
g37
sa(dp1911
g3
g1889
sS'acary (time)'
p1912
F1.096813000000111
sg6
g40
saa(lp1913
(dp1914
g3
S'Box_Stacks-i1000-549-23.hdf5'
p1915
sS'acary (time)'
p1916
F0.16653900000164867
sg6
g7
sa(dp1917
g3
g1915
sS'acary (time)'
p1918
F0.18877100000099745
sg6
g10
sa(dp1919
g3
g1915
sS'acary (time)'
p1920
F0.20885700000144425
sg6
g13
sa(dp1921
g3
g1915
sS'acary (time)'
p1922
F0.4374969999989844
sg6
g16
sa(dp1923
g3
g1915
sS'acary (time)'
p1924
F101.77387299999828
sg6
g19
sa(dp1925
g3
g1915
sS'acary (time)'
p1926
F0.4240070000014384
sg6
g22
sa(dp1927
g3
g1915
sS'acary (time)'
p1928
F3.853758999997808
sg6
g25
sa(dp1929
g3
g1915
sS'acary (time)'
p1930
F86.44205599999987
sg6
g28
sa(dp1931
g3
g1915
sS'acary (time)'
p1932
F1.042674000000261
sg6
g31
sa(dp1933
g3
g1915
sS'acary (time)'
p1934
F0.36631000000124914
sg6
g34
sa(dp1935
g3
g1915
sS'acary (time)'
p1936
F0.3286279999992985
sg6
g37
sa(dp1937
g3
g1915
sS'acary (time)'
p1938
F0.6954509999995935
sg6
g40
saa(lp1939
(dp1940
g3
S'Box_Stacks-i1000-549-24.hdf5'
p1941
sS'acary (time)'
p1942
F0.1803059999983816
sg6
g7
sa(dp1943
g3
g1941
sS'acary (time)'
p1944
F0.19194399999832967
sg6
g10
sa(dp1945
g3
g1941
sS'acary (time)'
p1946
F0.21160500000041793
sg6
g13
sa(dp1947
g3
g1941
sS'acary (time)'
p1948
F0.4341129999993427
sg6
g16
sa(dp1949
g3
g1941
sS'acary (time)'
p1950
F103.44995800000106
sg6
g19
sa(dp1951
g3
g1941
sS'acary (time)'
p1952
F0.4555319999999483
sg6
g22
sa(dp1953
g3
g1941
sS'acary (time)'
p1954
F38.68495999999868
sg6
g25
sa(dp1955
g3
g1941
sS'acary (time)'
p1956
F86.3388100000011
sg6
g28
sa(dp1957
g3
g1941
sS'acary (time)'
p1958
F90.26781800000026
sg6
g31
sa(dp1959
g3
g1941
sS'acary (time)'
p1960
F0.3733729999985371
sg6
g34
sa(dp1961
g3
g1941
sS'acary (time)'
p1962
F0.41645799999969313
sg6
g37
sa(dp1963
g3
g1941
sS'acary (time)'
p1964
F0.9020319999981439
sg6
g40
saa(lp1965
(dp1966
g3
S'Box_Stacks-i1000-549-36.hdf5'
p1967
sS'acary (time)'
p1968
F0.18190799999865703
sg6
g7
sa(dp1969
g3
g1967
sS'acary (time)'
p1970
F0.23875399999815272
sg6
g10
sa(dp1971
g3
g1967
sS'acary (time)'
p1972
F0.2505959999980405
sg6
g13
sa(dp1973
g3
g1967
sS'acary (time)'
p1974
F0.46808299999975134
sg6
g16
sa(dp1975
g3
g1967
sS'acary (time)'
p1976
F105.90356999999858
sg6
g19
sa(dp1977
g3
g1967
sS'acary (time)'
p1978
F0.5479400000003807
sg6
g22
sa(dp1979
g3
g1967
sS'acary (time)'
p1980
F1.5087149999999383
sg6
g25
sa(dp1981
g3
g1967
sS'acary (time)'
p1982
F86.4712780000009
sg6
g28
sa(dp1983
g3
g1967
sS'acary (time)'
p1984
F87.35135000000082
sg6
g31
sa(dp1985
g3
g1967
sS'acary (time)'
p1986
F0.36138300000311574
sg6
g34
sa(dp1987
g3
g1967
sS'acary (time)'
p1988
F0.29249799999888637
sg6
g37
sa(dp1989
g3
g1967
sS'acary (time)'
p1990
F1.0387809999992896
sg6
g40
saa(lp1991
(dp1992
g3
S'Box_Stacks-i1000-549-37.hdf5'
p1993
sS'acary (time)'
p1994
F0.18275599999833503
sg6
g7
sa(dp1995
g3
g1993
sS'acary (time)'
p1996
F0.2376430000003893
sg6
g10
sa(dp1997
g3
g1993
sS'acary (time)'
p1998
F0.2506780000003346
sg6
g13
sa(dp1999
g3
g1993
sS'acary (time)'
p2000
F0.46849099999963073
sg6
g16
sa(dp2001
g3
g1993
sS'acary (time)'
p2002
F105.88972000000285
sg6
g19
sa(dp2003
g3
g1993
sS'acary (time)'
p2004
F0.5484310000028927
sg6
g22
sa(dp2005
g3
g1993
sS'acary (time)'
p2006
F1.5094349999999395
sg6
g25
sa(dp2007
g3
g1993
sS'acary (time)'
p2008
F86.87381800000003
sg6
g28
sa(dp2009
g3
g1993
sS'acary (time)'
p2010
F86.78010599999834
sg6
g31
sa(dp2011
g3
g1993
sS'acary (time)'
p2012
F0.36125600000013947
sg6
g34
sa(dp2013
g3
g1993
sS'acary (time)'
p2014
F0.29227199999877485
sg6
g37
sa(dp2015
g3
g1993
sS'acary (time)'
p2016
F1.0381489999999758
sg6
g40
saa(lp2017
(dp2018
g3
S'Box_Stacks-i1000-549-38.hdf5'
p2019
sS'acary (time)'
p2020
F0.17013300000326126
sg6
g7
sa(dp2021
g3
g2019
sS'acary (time)'
p2022
F0.24337000000014086
sg6
g10
sa(dp2023
g3
g2019
sS'acary (time)'
p2024
F0.2503230000002077
sg6
g13
sa(dp2025
g3
g2019
sS'acary (time)'
p2026
F0.46734700000160956
sg6
g16
sa(dp2027
g3
g2019
sS'acary (time)'
p2028
F106.50321799999801
sg6
g19
sa(dp2029
g3
g2019
sS'acary (time)'
p2030
F0.5295850000002247
sg6
g22
sa(dp2031
g3
g2019
sS'acary (time)'
p2032
F1.5059860000001208
sg6
g25
sa(dp2033
g3
g2019
sS'acary (time)'
p2034
F86.38343700000041
sg6
g28
sa(dp2035
g3
g2019
sS'acary (time)'
p2036
F86.40495700000247
sg6
g31
sa(dp2037
g3
g2019
sS'acary (time)'
p2038
F0.3613470000018424
sg6
g34
sa(dp2039
g3
g2019
sS'acary (time)'
p2040
F0.29303100000106497
sg6
g37
sa(dp2041
g3
g2019
sS'acary (time)'
p2042
F1.0382320000026084
sg6
g40
saa(lp2043
(dp2044
g3
S'Box_Stacks-i1000-549-88.hdf5'
p2045
sS'acary (time)'
p2046
F0.17050899999958347
sg6
g7
sa(dp2047
g3
g2045
sS'acary (time)'
p2048
F0.27076300000044284
sg6
g10
sa(dp2049
g3
g2045
sS'acary (time)'
p2050
F0.2505569999993895
sg6
g13
sa(dp2051
g3
g2045
sS'acary (time)'
p2052
F0.4882569999972475
sg6
g16
sa(dp2053
g3
g2045
sS'acary (time)'
p2054
F105.33329500000036
sg6
g19
sa(dp2055
g3
g2045
sS'acary (time)'
p2056
F0.4276900000004389
sg6
g22
sa(dp2057
g3
g2045
sS'acary (time)'
p2058
F1.5278370000014547
sg6
g25
sa(dp2059
g3
g2045
sS'acary (time)'
p2060
F86.61175699999876
sg6
g28
sa(dp2061
g3
g2045
sS'acary (time)'
p2062
F86.39517900000283
sg6
g31
sa(dp2063
g3
g2045
sS'acary (time)'
p2064
F0.343511999999464
sg6
g34
sa(dp2065
g3
g2045
sS'acary (time)'
p2066
F0.2006260000016482
sg6
g37
sa(dp2067
g3
g2045
sS'acary (time)'
p2068
F9.320189999998547
sg6
g40
saa(lp2069
(dp2070
g3
S'Box_Stacks-i1000-549-89.hdf5'
p2071
sS'acary (time)'
p2072
F0.17062599999917438
sg6
g7
sa(dp2073
g3
g2071
sS'acary (time)'
p2074
F0.23896400000012363
sg6
g10
sa(dp2075
g3
g2071
sS'acary (time)'
p2076
F0.2505600000004051
sg6
g13
sa(dp2077
g3
g2071
sS'acary (time)'
p2078
F0.4814779999978782
sg6
g16
sa(dp2079
g3
g2071
sS'acary (time)'
p2080
F105.64447400000063
sg6
g19
sa(dp2081
g3
g2071
sS'acary (time)'
p2082
F0.4281550000014249
sg6
g22
sa(dp2083
g3
g2071
sS'acary (time)'
p2084
F1.5125860000007378
sg6
g25
sa(dp2085
g3
g2071
sS'acary (time)'
p2086
F86.31488099999842
sg6
g28
sa(dp2087
g3
g2071
sS'acary (time)'
p2088
F87.15046300000176
sg6
g31
sa(dp2089
g3
g2071
sS'acary (time)'
p2090
F0.3445819999978994
sg6
g34
sa(dp2091
g3
g2071
sS'acary (time)'
p2092
F0.20117199999731383
sg6
g37
sa(dp2093
g3
g2071
sS'acary (time)'
p2094
F1.101184999999532
sg6
g40
saa(lp2095
(dp2096
g3
S'Box_Stacks-i1000-549-90.hdf5'
p2097
sS'acary (time)'
p2098
F0.17134900000019115
sg6
g7
sa(dp2099
g3
g2097
sS'acary (time)'
p2100
F0.24029800000062096
sg6
g10
sa(dp2101
g3
g2097
sS'acary (time)'
p2102
F0.2526679999973567
sg6
g13
sa(dp2103
g3
g2097
sS'acary (time)'
p2104
F0.48295299999881536
sg6
g16
sa(dp2105
g3
g2097
sS'acary (time)'
p2106
F105.67869000000064
sg6
g19
sa(dp2107
g3
g2097
sS'acary (time)'
p2108
F0.42970400000194786
sg6
g22
sa(dp2109
g3
g2097
sS'acary (time)'
p2110
F1.5096389999998792
sg6
g25
sa(dp2111
g3
g2097
sS'acary (time)'
p2112
F86.33726799999931
sg6
g28
sa(dp2113
g3
g2097
sS'acary (time)'
p2114
F86.64704599999823
sg6
g31
sa(dp2115
g3
g2097
sS'acary (time)'
p2116
F0.3446159999984957
sg6
g34
sa(dp2117
g3
g2097
sS'acary (time)'
p2118
F0.19972000000052503
sg6
g37
sa(dp2119
g3
g2097
sS'acary (time)'
p2120
F1.1019980000019132
sg6
g40
saa(lp2121
(dp2122
g3
S'Box_Stacks-i1000-549-91.hdf5'
p2123
sS'acary (time)'
p2124
F0.17150600000240956
sg6
g7
sa(dp2125
g3
g2123
sS'acary (time)'
p2126
F0.2398620000021765
sg6
g10
sa(dp2127
g3
g2123
sS'acary (time)'
p2128
F0.25121199999921373
sg6
g13
sa(dp2129
g3
g2123
sS'acary (time)'
p2130
F0.48047300000325777
sg6
g16
sa(dp2131
g3
g2123
sS'acary (time)'
p2132
F105.41718899999978
sg6
g19
sa(dp2133
g3
g2123
sS'acary (time)'
p2134
F0.4282899999998335
sg6
g22
sa(dp2135
g3
g2123
sS'acary (time)'
p2136
F1.5111680000009073
sg6
g25
sa(dp2137
g3
g2123
sS'acary (time)'
p2138
F86.46619400000054
sg6
g28
sa(dp2139
g3
g2123
sS'acary (time)'
p2140
F86.7815589999991
sg6
g31
sa(dp2141
g3
g2123
sS'acary (time)'
p2142
F0.3441849999981059
sg6
g34
sa(dp2143
g3
g2123
sS'acary (time)'
p2144
F0.20041300000229967
sg6
g37
sa(dp2145
g3
g2123
sS'acary (time)'
p2146
F1.10183600000164
sg6
g40
saa(lp2147
(dp2148
g3
S'Box_Stacks-i1000-549-92.hdf5'
p2149
sS'acary (time)'
p2150
F0.1711509999986447
sg6
g7
sa(dp2151
g3
g2149
sS'acary (time)'
p2152
F0.24088399999891408
sg6
g10
sa(dp2153
g3
g2149
sS'acary (time)'
p2154
F0.25193099999887636
sg6
g13
sa(dp2155
g3
g2149
sS'acary (time)'
p2156
F0.48174199999994016
sg6
g16
sa(dp2157
g3
g2149
sS'acary (time)'
p2158
F105.58853299999828
sg6
g19
sa(dp2159
g3
g2149
sS'acary (time)'
p2160
F0.4292849999983446
sg6
g22
sa(dp2161
g3
g2149
sS'acary (time)'
p2162
F1.513176000000385
sg6
g25
sa(dp2163
g3
g2149
sS'acary (time)'
p2164
F86.48191000000224
sg6
g28
sa(dp2165
g3
g2149
sS'acary (time)'
p2166
F87.14271999999983
sg6
g31
sa(dp2167
g3
g2149
sS'acary (time)'
p2168
F0.344954999996844
sg6
g34
sa(dp2169
g3
g2149
sS'acary (time)'
p2170
F0.2013779999979306
sg6
g37
sa(dp2171
g3
g2149
sS'acary (time)'
p2172
F1.1033129999996163
sg6
g40
saa(lp2173
(dp2174
g3
S'Box_Stacks-i1000-549-94.hdf5'
p2175
sS'acary (time)'
p2176
F0.17112099999940256
sg6
g7
sa(dp2177
g3
g2175
sS'acary (time)'
p2178
F0.23974500000258558
sg6
g10
sa(dp2179
g3
g2175
sS'acary (time)'
p2180
F0.2506020000000717
sg6
g13
sa(dp2181
g3
g2175
sS'acary (time)'
p2182
F0.4795350000022154
sg6
g16
sa(dp2183
g3
g2175
sS'acary (time)'
p2184
F105.43597200000295
sg6
g19
sa(dp2185
g3
g2175
sS'acary (time)'
p2186
F0.4282030000031227
sg6
g22
sa(dp2187
g3
g2175
sS'acary (time)'
p2188
F1.5105659999971977
sg6
g25
sa(dp2189
g3
g2175
sS'acary (time)'
p2190
F86.48034700000062
sg6
g28
sa(dp2191
g3
g2175
sS'acary (time)'
p2192
F87.16045700000177
sg6
g31
sa(dp2193
g3
g2175
sS'acary (time)'
p2194
F0.34476400000130525
sg6
g34
sa(dp2195
g3
g2175
sS'acary (time)'
p2196
F0.20037600000068778
sg6
g37
sa(dp2197
g3
g2175
sS'acary (time)'
p2198
F1.101479000000836
sg6
g40
saa(lp2199
(dp2200
g3
S'Box_Stacks-i1000-549-95.hdf5'
p2201
sS'acary (time)'
p2202
F0.17082099999970524
sg6
g7
sa(dp2203
g3
g2201
sS'acary (time)'
p2204
F0.24038300000029267
sg6
g10
sa(dp2205
g3
g2201
sS'acary (time)'
p2206
F0.2507259999983944
sg6
g13
sa(dp2207
g3
g2201
sS'acary (time)'
p2208
F0.48129400000107125
sg6
g16
sa(dp2209
g3
g2201
sS'acary (time)'
p2210
F105.36644399999932
sg6
g19
sa(dp2211
g3
g2201
sS'acary (time)'
p2212
F0.4300629999997909
sg6
g22
sa(dp2213
g3
g2201
sS'acary (time)'
p2214
F1.5139889999991283
sg6
g25
sa(dp2215
g3
g2201
sS'acary (time)'
p2216
F86.53820600000108
sg6
g28
sa(dp2217
g3
g2201
sS'acary (time)'
p2218
F87.01065799999924
sg6
g31
sa(dp2219
g3
g2201
sS'acary (time)'
p2220
F0.3448529999986931
sg6
g34
sa(dp2221
g3
g2201
sS'acary (time)'
p2222
F0.2012109999996028
sg6
g37
sa(dp2223
g3
g2201
sS'acary (time)'
p2224
F1.1009889999986626
sg6
g40
saa(lp2225
(dp2226
g3
S'Box_Stacks-i1000-549-96.hdf5'
p2227
sS'acary (time)'
p2228
F0.17152300000088871
sg6
g7
sa(dp2229
g3
g2227
sS'acary (time)'
p2230
F0.23971399999936693
sg6
g10
sa(dp2231
g3
g2227
sS'acary (time)'
p2232
F0.25051000000166823
sg6
g13
sa(dp2233
g3
g2227
sS'acary (time)'
p2234
F0.4845839999979944
sg6
g16
sa(dp2235
g3
g2227
sS'acary (time)'
p2236
F105.72113599999648
sg6
g19
sa(dp2237
g3
g2227
sS'acary (time)'
p2238
F0.4291250000023865
sg6
g22
sa(dp2239
g3
g2227
sS'acary (time)'
p2240
F1.510880999998335
sg6
g25
sa(dp2241
g3
g2227
sS'acary (time)'
p2242
F86.90517900000123
sg6
g28
sa(dp2243
g3
g2227
sS'acary (time)'
p2244
F87.47204699999929
sg6
g31
sa(dp2245
g3
g2227
sS'acary (time)'
p2246
F0.34514000000126543
sg6
g34
sa(dp2247
g3
g2227
sS'acary (time)'
p2248
F0.20045399999798974
sg6
g37
sa(dp2249
g3
g2227
sS'acary (time)'
p2250
F1.1020790000002307
sg6
g40
saa(lp2251
(dp2252
g3
S'Box_Stacks-i1000-550-27.hdf5'
p2253
sS'acary (time)'
p2254
F0.1807669999980135
sg6
g7
sa(dp2255
g3
g2253
sS'acary (time)'
p2256
F0.2103129999995872
sg6
g10
sa(dp2257
g3
g2253
sS'acary (time)'
p2258
F0.23704300000099465
sg6
g13
sa(dp2259
g3
g2253
sS'acary (time)'
p2260
F0.44082200000048033
sg6
g16
sa(dp2261
g3
g2253
sS'acary (time)'
p2262
F104.18901499999993
sg6
g19
sa(dp2263
g3
g2253
sS'acary (time)'
p2264
F0.43398900000102003
sg6
g22
sa(dp2265
g3
g2253
sS'acary (time)'
p2266
F87.58342000000266
sg6
g25
sa(dp2267
g3
g2253
sS'acary (time)'
p2268
F86.53426699999909
sg6
g28
sa(dp2269
g3
g2253
sS'acary (time)'
p2270
F85.86826400000064
sg6
g31
sa(dp2271
g3
g2253
sS'acary (time)'
p2272
F0.5587679999989632
sg6
g34
sa(dp2273
g3
g2253
sS'acary (time)'
p2274
F0.2931480000006559
sg6
g37
sa(dp2275
g3
g2253
sS'acary (time)'
p2276
F1.9364000000023225
sg6
g40
saa(lp2277
(dp2278
g3
S'Box_Stacks-i1000-550-30.hdf5'
p2279
sS'acary (time)'
p2280
F0.18263800000204355
sg6
g7
sa(dp2281
g3
g2279
sS'acary (time)'
p2282
F0.22718900000108988
sg6
g10
sa(dp2283
g3
g2279
sS'acary (time)'
p2284
F0.2140739999995276
sg6
g13
sa(dp2285
g3
g2279
sS'acary (time)'
p2286
F0.41548300000067684
sg6
g16
sa(dp2287
g3
g2279
sS'acary (time)'
p2288
F105.15621300000203
sg6
g19
sa(dp2289
g3
g2279
sS'acary (time)'
p2290
F0.5021579999993264
sg6
g22
sa(dp2291
g3
g2279
sS'acary (time)'
p2292
F89.23255599999902
sg6
g25
sa(dp2293
g3
g2279
sS'acary (time)'
p2294
F86.754277
sg6
g28
sa(dp2295
g3
g2279
sS'acary (time)'
p2296
F86.91228300000148
sg6
g31
sa(dp2297
g3
g2279
sS'acary (time)'
p2298
F0.4758089999995718
sg6
g34
sa(dp2299
g3
g2279
sS'acary (time)'
p2300
F0.37533799999800976
sg6
g37
sa(dp2301
g3
g2279
sS'acary (time)'
p2302
F1.6500000000014552
sg6
g40
saa(lp2303
(dp2304
g3
S'Box_Stacks-i1000-550-31.hdf5'
p2305
sS'acary (time)'
p2306
F0.1833839999999327
sg6
g7
sa(dp2307
g3
g2305
sS'acary (time)'
p2308
F0.22627099999954225
sg6
g10
sa(dp2309
g3
g2305
sS'acary (time)'
p2310
F0.2142279999970924
sg6
g13
sa(dp2311
g3
g2305
sS'acary (time)'
p2312
F0.4162350000005972
sg6
g16
sa(dp2313
g3
g2305
sS'acary (time)'
p2314
F105.44802100000015
sg6
g19
sa(dp2315
g3
g2305
sS'acary (time)'
p2316
F0.4580310000019381
sg6
g22
sa(dp2317
g3
g2305
sS'acary (time)'
p2318
F89.2845219999981
sg6
g25
sa(dp2319
g3
g2305
sS'acary (time)'
p2320
F86.75038799999675
sg6
g28
sa(dp2321
g3
g2305
sS'acary (time)'
p2322
F86.95884599999772
sg6
g31
sa(dp2323
g3
g2305
sS'acary (time)'
p2324
F0.47716399999990244
sg6
g34
sa(dp2325
g3
g2305
sS'acary (time)'
p2326
F0.3884470000011788
sg6
g37
sa(dp2327
g3
g2305
sS'acary (time)'
p2328
F1.6733260000000882
sg6
g40
saa(lp2329
(dp2330
g3
S'Box_Stacks-i1000-550-32.hdf5'
p2331
sS'acary (time)'
p2332
F0.18268199999874923
sg6
g7
sa(dp2333
g3
g2331
sS'acary (time)'
p2334
F0.22677999999723397
sg6
g10
sa(dp2335
g3
g2331
sS'acary (time)'
p2336
F0.2139869999991788
sg6
g13
sa(dp2337
g3
g2331
sS'acary (time)'
p2338
F0.4162140000007639
sg6
g16
sa(dp2339
g3
g2331
sS'acary (time)'
p2340
F105.50706899999932
sg6
g19
sa(dp2341
g3
g2331
sS'acary (time)'
p2342
F0.45833700000002864
sg6
g22
sa(dp2343
g3
g2331
sS'acary (time)'
p2344
F43.93091600000116
sg6
g25
sa(dp2345
g3
g2331
sS'acary (time)'
p2346
F86.63015299999824
sg6
g28
sa(dp2347
g3
g2331
sS'acary (time)'
p2348
F86.2477089999993
sg6
g31
sa(dp2349
g3
g2331
sS'acary (time)'
p2350
F0.47695199999725446
sg6
g34
sa(dp2351
g3
g2331
sS'acary (time)'
p2352
F0.376047000001563
sg6
g37
sa(dp2353
g3
g2331
sS'acary (time)'
p2354
F1.67540100000042
sg6
g40
saa(lp2355
(dp2356
g3
S'Box_Stacks-i1000-550-33.hdf5'
p2357
sS'acary (time)'
p2358
F0.18245300000126008
sg6
g7
sa(dp2359
g3
g2357
sS'acary (time)'
p2360
F0.2271790000013425
sg6
g10
sa(dp2361
g3
g2357
sS'acary (time)'
p2362
F0.2144320000006701
sg6
g13
sa(dp2363
g3
g2357
sS'acary (time)'
p2364
F0.40647700000045006
sg6
g16
sa(dp2365
g3
g2357
sS'acary (time)'
p2366
F105.3459299999995
sg6
g19
sa(dp2367
g3
g2357
sS'acary (time)'
p2368
F0.4588709999989078
sg6
g22
sa(dp2369
g3
g2357
sS'acary (time)'
p2370
F88.28736099999878
sg6
g25
sa(dp2371
g3
g2357
sS'acary (time)'
p2372
F86.52573699999994
sg6
g28
sa(dp2373
g3
g2357
sS'acary (time)'
p2374
F86.99359900000127
sg6
g31
sa(dp2375
g3
g2357
sS'acary (time)'
p2376
F0.46307399999932386
sg6
g34
sa(dp2377
g3
g2357
sS'acary (time)'
p2378
F0.3197059999984049
sg6
g37
sa(dp2379
g3
g2357
sS'acary (time)'
p2380
F1.5005829999972775
sg6
g40
saa(lp2381
(dp2382
g3
S'Box_Stacks-i1000-550-34.hdf5'
p2383
sS'acary (time)'
p2384
F0.1832509999985632
sg6
g7
sa(dp2385
g3
g2383
sS'acary (time)'
p2386
F0.2274939999988419
sg6
g10
sa(dp2387
g3
g2383
sS'acary (time)'
p2388
F0.21350299999903655
sg6
g13
sa(dp2389
g3
g2383
sS'acary (time)'
p2390
F0.4164459999992687
sg6
g16
sa(dp2391
g3
g2383
sS'acary (time)'
p2392
F105.42336499999874
sg6
g19
sa(dp2393
g3
g2383
sS'acary (time)'
p2394
F0.45766999999978
sg6
g22
sa(dp2395
g3
g2383
sS'acary (time)'
p2396
F87.93895799999882
sg6
g25
sa(dp2397
g3
g2383
sS'acary (time)'
p2398
F86.36937100000068
sg6
g28
sa(dp2399
g3
g2383
sS'acary (time)'
p2400
F87.83150899999964
sg6
g31
sa(dp2401
g3
g2383
sS'acary (time)'
p2402
F0.4499419999992824
sg6
g34
sa(dp2403
g3
g2383
sS'acary (time)'
p2404
F0.32163800000125775
sg6
g37
sa(dp2405
g3
g2383
sS'acary (time)'
p2406
F1.4980439999999362
sg6
g40
saa(lp2407
(dp2408
g3
S'Box_Stacks-i1000-550-35.hdf5'
p2409
sS'acary (time)'
p2410
F0.18251500000042142
sg6
g7
sa(dp2411
g3
g2409
sS'acary (time)'
p2412
F0.21627299999818206
sg6
g10
sa(dp2413
g3
g2409
sS'acary (time)'
p2414
F0.1951119999976072
sg6
g13
sa(dp2415
g3
g2409
sS'acary (time)'
p2416
F0.4167510000006587
sg6
g16
sa(dp2417
g3
g2409
sS'acary (time)'
p2418
F105.85944600000221
sg6
g19
sa(dp2419
g3
g2409
sS'acary (time)'
p2420
F0.4497650000012072
sg6
g22
sa(dp2421
g3
g2409
sS'acary (time)'
p2422
F88.02963699999964
sg6
g25
sa(dp2423
g3
g2409
sS'acary (time)'
p2424
F86.72132699999929
sg6
g28
sa(dp2425
g3
g2409
sS'acary (time)'
p2426
F87.02007500000036
sg6
g31
sa(dp2427
g3
g2409
sS'acary (time)'
p2428
F0.45020799999838346
sg6
g34
sa(dp2429
g3
g2409
sS'acary (time)'
p2430
F0.3199050000002899
sg6
g37
sa(dp2431
g3
g2409
sS'acary (time)'
p2432
F1.500130000000354
sg6
g40
saa(lp2433
(dp2434
g3
S'Box_Stacks-i1000-551-15.hdf5'
p2435
sS'acary (time)'
p2436
F0.33953699999983655
sg6
g7
sa(dp2437
g3
g2435
sS'acary (time)'
p2438
F0.2050889999991341
sg6
g10
sa(dp2439
g3
g2435
sS'acary (time)'
p2440
F0.22410999999920023
sg6
g13
sa(dp2441
g3
g2435
sS'acary (time)'
p2442
F0.42800200000056066
sg6
g16
sa(dp2443
g3
g2435
sS'acary (time)'
p2444
F98.79445099999793
sg6
g19
sa(dp2445
g3
g2435
sS'acary (time)'
p2446
F0.4317749999972875
sg6
g22
sa(dp2447
g3
g2435
sS'acary (time)'
p2448
F1.0791539999991073
sg6
g25
sa(dp2449
g3
g2435
sS'acary (time)'
p2450
F86.58661099999881
sg6
g28
sa(dp2451
g3
g2435
sS'acary (time)'
p2452
F86.80044300000009
sg6
g31
sa(dp2453
g3
g2435
sS'acary (time)'
p2454
F1.035422999997536
sg6
g34
sa(dp2455
g3
g2435
sS'acary (time)'
p2456
F0.3659479999987525
sg6
g37
sa(dp2457
g3
g2435
sS'acary (time)'
p2458
F1.9961519999997108
sg6
g40
saa(lp2459
(dp2460
g3
S'Box_Stacks-i1000-551-19.hdf5'
p2461
sS'acary (time)'
p2462
F0.27487699999983306
sg6
g7
sa(dp2463
g3
g2461
sS'acary (time)'
p2464
F0.20934200000192504
sg6
g10
sa(dp2465
g3
g2461
sS'acary (time)'
p2466
F0.18663699999888195
sg6
g13
sa(dp2467
g3
g2461
sS'acary (time)'
p2468
F0.3594970000012836
sg6
g16
sa(dp2469
g3
g2461
sS'acary (time)'
p2470
F101.51496899999984
sg6
g19
sa(dp2471
g3
g2461
sS'acary (time)'
p2472
F0.39481399999931455
sg6
g22
sa(dp2473
g3
g2461
sS'acary (time)'
p2474
F1.8547360000011395
sg6
g25
sa(dp2475
g3
g2461
sS'acary (time)'
p2476
F86.51113799999803
sg6
g28
sa(dp2477
g3
g2461
sS'acary (time)'
p2478
F87.19202799999766
sg6
g31
sa(dp2479
g3
g2461
sS'acary (time)'
p2480
F121.96401700000206
sg6
g34
sa(dp2481
g3
g2461
sS'acary (time)'
p2482
F0.2995040000023437
sg6
g37
sa(dp2483
g3
g2461
sS'acary (time)'
p2484
F1.3563649999996414
sg6
g40
saa(lp2485
(dp2486
g3
S'Box_Stacks-i1000-551-20.hdf5'
p2487
sS'acary (time)'
p2488
F0.3929009999992559
sg6
g7
sa(dp2489
g3
g2487
sS'acary (time)'
p2490
F0.2205580000008922
sg6
g10
sa(dp2491
g3
g2487
sS'acary (time)'
p2492
F0.28314299999692594
sg6
g13
sa(dp2493
g3
g2487
sS'acary (time)'
p2494
F0.3685139999979583
sg6
g16
sa(dp2495
g3
g2487
sS'acary (time)'
p2496
F100.21108199999799
sg6
g19
sa(dp2497
g3
g2487
sS'acary (time)'
p2498
F0.38538100000005215
sg6
g22
sa(dp2499
g3
g2487
sS'acary (time)'
p2500
F1.923852000003535
sg6
g25
sa(dp2501
g3
g2487
sS'acary (time)'
p2502
F86.85034300000189
sg6
g28
sa(dp2503
g3
g2487
sS'acary (time)'
p2504
F87.203636000002
sg6
g31
sa(dp2505
g3
g2487
sS'acary (time)'
p2506
F118.12516099999993
sg6
g34
sa(dp2507
g3
g2487
sS'acary (time)'
p2508
F0.3237090000002354
sg6
g37
sa(dp2509
g3
g2487
sS'acary (time)'
p2510
F1.7509189999982482
sg6
g40
saa(lp2511
(dp2512
g3
S'Box_Stacks-i1000-551-28.hdf5'
p2513
sS'acary (time)'
p2514
F0.18190400000094087
sg6
g7
sa(dp2515
g3
g2513
sS'acary (time)'
p2516
F0.2159319999991567
sg6
g10
sa(dp2517
g3
g2513
sS'acary (time)'
p2518
F0.21468100000129198
sg6
g13
sa(dp2519
g3
g2513
sS'acary (time)'
p2520
F0.4057890000003681
sg6
g16
sa(dp2521
g3
g2513
sS'acary (time)'
p2522
F105.46326100000078
sg6
g19
sa(dp2523
g3
g2513
sS'acary (time)'
p2524
F0.49726300000111223
sg6
g22
sa(dp2525
g3
g2513
sS'acary (time)'
p2526
F39.96853000000192
sg6
g25
sa(dp2527
g3
g2513
sS'acary (time)'
p2528
F86.68349899999885
sg6
g28
sa(dp2529
g3
g2513
sS'acary (time)'
p2530
F87.3153710000006
sg6
g31
sa(dp2531
g3
g2513
sS'acary (time)'
p2532
F0.48996700000134297
sg6
g34
sa(dp2533
g3
g2513
sS'acary (time)'
p2534
F0.37586300000111805
sg6
g37
sa(dp2535
g3
g2513
sS'acary (time)'
p2536
F0.8912259999997332
sg6
g40
saa(lp2537
(dp2538
g3
S'Box_Stacks-i1000-551-29.hdf5'
p2539
sS'acary (time)'
p2540
F0.18229900000005728
sg6
g7
sa(dp2541
g3
g2539
sS'acary (time)'
p2542
F0.2279579999994894
sg6
g10
sa(dp2543
g3
g2539
sS'acary (time)'
p2544
F0.21546200000011595
sg6
g13
sa(dp2545
g3
g2539
sS'acary (time)'
p2546
F0.416495000001305
sg6
g16
sa(dp2547
g3
g2539
sS'acary (time)'
p2548
F105.3150710000009
sg6
g19
sa(dp2549
g3
g2539
sS'acary (time)'
p2550
F0.5281679999970947
sg6
g22
sa(dp2551
g3
g2539
sS'acary (time)'
p2552
F40.43371200000183
sg6
g25
sa(dp2553
g3
g2539
sS'acary (time)'
p2554
F86.74978600000031
sg6
g28
sa(dp2555
g3
g2539
sS'acary (time)'
p2556
F86.0404750000016
sg6
g31
sa(dp2557
g3
g2539
sS'acary (time)'
p2558
F0.4758980000005977
sg6
g34
sa(dp2559
g3
g2539
sS'acary (time)'
p2560
F0.38086699999985285
sg6
g37
sa(dp2561
g3
g2539
sS'acary (time)'
p2562
F1.4643810000015947
sg6
g40
saa(lp2563
(dp2564
g3
S'Box_Stacks-i1000-556-16.hdf5'
p2565
sS'acary (time)'
p2566
F0.3910280000018247
sg6
g7
sa(dp2567
g3
g2565
sS'acary (time)'
p2568
F0.23938499999712803
sg6
g10
sa(dp2569
g3
g2565
sS'acary (time)'
p2570
F0.25080700000034994
sg6
g13
sa(dp2571
g3
g2565
sS'acary (time)'
p2572
F0.4630440000000817
sg6
g16
sa(dp2573
g3
g2565
sS'acary (time)'
p2574
F100.23665099999926
sg6
g19
sa(dp2575
g3
g2565
sS'acary (time)'
p2576
F0.44119799999680254
sg6
g22
sa(dp2577
g3
g2565
sS'acary (time)'
p2578
F1.8083829999995942
sg6
g25
sa(dp2579
g3
g2565
sS'acary (time)'
p2580
F87.05512399999861
sg6
g28
sa(dp2581
g3
g2565
sS'acary (time)'
p2582
F86.82148099999904
sg6
g31
sa(dp2583
g3
g2565
sS'acary (time)'
p2584
F0.6937829999988026
sg6
g34
sa(dp2585
g3
g2565
sS'acary (time)'
p2586
F0.47813200000018696
sg6
g37
sa(dp2587
g3
g2565
sS'acary (time)'
p2588
F1.5041940000010072
sg6
g40
saa(lp2589
(dp2590
g3
S'Box_Stacks-i1000-557-13.hdf5'
p2591
sS'acary (time)'
p2592
F0.41020900000148686
sg6
g7
sa(dp2593
g3
g2591
sS'acary (time)'
p2594
F0.23462900000231457
sg6
g10
sa(dp2595
g3
g2591
sS'acary (time)'
p2596
F0.2664890000014566
sg6
g13
sa(dp2597
g3
g2591
sS'acary (time)'
p2598
F0.3155059999990044
sg6
g16
sa(dp2599
g3
g2591
sS'acary (time)'
p2600
F98.94786999999997
sg6
g19
sa(dp2601
g3
g2591
sS'acary (time)'
p2602
F0.3978160000006028
sg6
g22
sa(dp2603
g3
g2591
sS'acary (time)'
p2604
F1.3280129999984638
sg6
g25
sa(dp2605
g3
g2591
sS'acary (time)'
p2606
F87.47394200000053
sg6
g28
sa(dp2607
g3
g2591
sS'acary (time)'
p2608
F86.62331300000005
sg6
g31
sa(dp2609
g3
g2591
sS'acary (time)'
p2610
F0.5897019999974873
sg6
g34
sa(dp2611
g3
g2591
sS'acary (time)'
p2612
F0.30820500000118045
sg6
g37
sa(dp2613
g3
g2591
sS'acary (time)'
p2614
F0.47951499999908265
sg6
g40
saa(lp2615
(dp2616
g3
S'Box_Stacks-i1000-558-18.hdf5'
p2617
sS'acary (time)'
p2618
F0.3453769999978249
sg6
g7
sa(dp2619
g3
g2617
sS'acary (time)'
p2620
F0.20285399999920628
sg6
g10
sa(dp2621
g3
g2617
sS'acary (time)'
p2622
F0.25641600000017206
sg6
g13
sa(dp2623
g3
g2617
sS'acary (time)'
p2624
F0.3923660000000382
sg6
g16
sa(dp2625
g3
g2617
sS'acary (time)'
p2626
F101.85627700000259
sg6
g19
sa(dp2627
g3
g2617
sS'acary (time)'
p2628
F0.42458999999871594
sg6
g22
sa(dp2629
g3
g2617
sS'acary (time)'
p2630
F2.475989999999001
sg6
g25
sa(dp2631
g3
g2617
sS'acary (time)'
p2632
F87.5984329999992
sg6
g28
sa(dp2633
g3
g2617
sS'acary (time)'
p2634
F88.31872199999998
sg6
g31
sa(dp2635
g3
g2617
sS'acary (time)'
p2636
F0.5477699999973993
sg6
g34
sa(dp2637
g3
g2617
sS'acary (time)'
p2638
F0.43544699999984005
sg6
g37
sa(dp2639
g3
g2617
sS'acary (time)'
p2640
F1.5705069999967236
sg6
g40
saa(lp2641
(dp2642
g3
S'Box_Stacks-i1000-560-17.hdf5'
p2643
sS'acary (time)'
p2644
F0.486295999999129
sg6
g7
sa(dp2645
g3
g2643
sS'acary (time)'
p2646
F0.2413650000016787
sg6
g10
sa(dp2647
g3
g2643
sS'acary (time)'
p2648
F0.28183700000226963
sg6
g13
sa(dp2649
g3
g2643
sS'acary (time)'
p2650
F0.41264500000033877
sg6
g16
sa(dp2651
g3
g2643
sS'acary (time)'
p2652
F100.29787799999758
sg6
g19
sa(dp2653
g3
g2643
sS'acary (time)'
p2654
F0.41998400000011316
sg6
g22
sa(dp2655
g3
g2643
sS'acary (time)'
p2656
F2.1325789999973495
sg6
g25
sa(dp2657
g3
g2643
sS'acary (time)'
p2658
F87.7159759999995
sg6
g28
sa(dp2659
g3
g2643
sS'acary (time)'
p2660
F88.20823100000052
sg6
g31
sa(dp2661
g3
g2643
sS'acary (time)'
p2662
F1.0039470000010624
sg6
g34
sa(dp2663
g3
g2643
sS'acary (time)'
p2664
F0.343869000000268
sg6
g37
sa(dp2665
g3
g2643
sS'acary (time)'
p2666
F1.0046490000022459
sg6
g40
saa.