(lp0
(lp1
(dp2
S'dicairano (time)'
p3
F79.17424899999999
sS'solver'
p4
S'cp_N'
p5
sS'acary (time)'
p6
F74.720197
sS'ghadimi (time)'
p7
F75.803957
sS'problem'
p8
S'Box_Stacks-i0024-642-53.hdf5'
p9
sS'normal (time)'
p10
F79.728126
sa(dp11
S'dicairano (time)'
p12
F82.84418599999998
sg4
S'cp_R'
p13
sS'acary (time)'
p14
F82.59330299999999
sS'ghadimi (time)'
p15
F83.46443399999998
sg8
g9
sS'normal (time)'
p16
F83.61642900000004
sa(dp17
S'dicairano (time)'
p18
F78.60464000000002
sg4
S'cp_RR'
p19
sS'acary (time)'
p20
F76.258916
sS'ghadimi (time)'
p21
F75.99588299999994
sg8
g9
sS'normal (time)'
p22
F77.85968500000001
sa(dp23
S'dicairano (time)'
p24
F148.68571199999997
sg4
S'vp_N_He'
p25
sS'acary (time)'
p26
F148.20628599999998
sS'ghadimi (time)'
p27
F146.99426999999991
sg8
g9
sS'normal (time)'
p28
F149.0595780000001
sa(dp29
S'dicairano (time)'
p30
F152.35495100000003
sg4
S'vp_R_He'
p31
sS'acary (time)'
p32
F152.734013
sS'ghadimi (time)'
p33
F152.77789800000005
sg8
g9
sS'normal (time)'
p34
F152.39185999999972
sa(dp35
S'dicairano (time)'
p36
F148.518055
sg4
S'vp_RR_He'
p37
sS'acary (time)'
p38
F148.86069899999984
sS'ghadimi (time)'
p39
F147.32741399999986
sg8
g9
sS'normal (time)'
p40
F148.7947939999999
sa(dp41
S'dicairano (time)'
p42
F149.42716599999994
sg4
S'vp_N_Spectral'
p43
sS'acary (time)'
p44
F146.8629350000001
sS'ghadimi (time)'
p45
F148.2162519999997
sg8
g9
sS'normal (time)'
p46
F150.27664800000002
sa(dp47
S'dicairano (time)'
p48
F145.5227450000002
sg4
S'vp_R_Spectral'
p49
sS'acary (time)'
p50
F146.38317600000028
sS'ghadimi (time)'
p51
F146.38831400000026
sg8
g9
sS'normal (time)'
p52
F145.3520950000002
sa(dp53
S'dicairano (time)'
p54
F147.4826290000001
sg4
S'vp_RR_Spectral'
p55
sS'acary (time)'
p56
F147.16588899999988
sS'ghadimi (time)'
p57
F146.98325300000033
sg8
g9
sS'normal (time)'
p58
F149.8270790000006
sa(dp59
S'dicairano (time)'
p60
F149.74511799999982
sg4
S'vp_N_Wohlberg'
p61
sS'acary (time)'
p62
F148.4430999999995
sS'ghadimi (time)'
p63
F148.3572720000002
sg8
g9
sS'normal (time)'
p64
F158.29326800000035
sa(dp65
S'dicairano (time)'
p66
F153.72215199999937
sg4
S'vp_R_Wohlberg'
p67
sS'acary (time)'
p68
F154.12937800000054
sS'ghadimi (time)'
p69
F154.02852600000006
sg8
g9
sS'normal (time)'
p70
F153.95449300000018
sa(dp71
S'dicairano (time)'
p72
F149.84444900000017
sg4
S'vp_RR_Wohlberg'
p73
sS'acary (time)'
p74
F148.78158600000006
sS'ghadimi (time)'
p75
F149.00692900000013
sg8
g9
sS'normal (time)'
p76
F150.35763099999986
saa(lp77
(dp78
S'dicairano (time)'
p79
F0.5689370000000054
sg4
g5
sS'acary (time)'
p80
F0.6769349999995029
sS'p_ratio ghadimi (time)'
p81
cnumpy.core.multiarray
scalar
p82
(cnumpy
dtype
p83
(S'f8'
p84
I0
I1
tp85
Rp86
(I3
S'<'
p87
NNNI-1
I-1
I0
tp88
bS'\x15\xd0|\x8b;j\xf2?'
p89
tp90
Rp91
sS'p_ratio acary (time)'
p92
g82
(g86
S'\xfa\xa6@>\xe0\x98\xf5?'
p93
tp94
Rp95
sS'ghadimi (time)'
p96
F0.6145260000002963
sS'p_ratio dicairano (time)'
p97
g82
(g86
S'\xdc\x1d\x1e\xc1\xeb\x85\xf5?'
p98
tp99
Rp100
sg8
S'Box_Stacks-i0029-31-0.hdf5'
p101
sS'p_ratio normal (time)'
p102
g82
(g86
S'\xa1\xa3\xfb\xd9\x82\xf2\xf5?'
p103
tp104
Rp105
sS'normal (time)'
p106
F0.677068999999392
sa(dp107
S'dicairano (time)'
p108
F0.4229400000003807
sg4
g13
sS'acary (time)'
p109
F0.6156510000000708
sS'p_ratio ghadimi (time)'
p110
g82
(g86
S'\n\xc8\x86\x0f\xc83\xf2?'
p111
tp112
Rp113
sS'p_ratio acary (time)'
p114
g82
(g86
S'\x12\ro\x89V\xa4\xf3?'
p115
tp116
Rp117
sS'ghadimi (time)'
p118
F0.6074280000002545
sS'p_ratio dicairano (time)'
p119
g82
(g86
S'\x00\x00\x00\x00\x00\x00\xf0?'
p120
tp121
Rp122
sg8
g101
sS'p_ratio normal (time)'
p123
g82
(g86
S'\xd5\xd8\x86\x97\xd0\x9b\xf3?'
p124
tp125
Rp126
sS'normal (time)'
p127
F0.6049220000004425
sa(dp128
S'dicairano (time)'
p129
F0.4961380000004283
sg4
g19
sS'acary (time)'
p130
F0.501498999999967
sS'p_ratio ghadimi (time)'
p131
g82
(g86
S'\x00\x00\x00\x00\x00\x00\xf0?'
p132
tp133
Rp134
sS'p_ratio acary (time)'
p135
g82
(g86
S'\x00\x00\x00\x00\x00\x00\xf0?'
p136
tp137
Rp138
sS'ghadimi (time)'
p139
F0.5339360000007218
sS'p_ratio dicairano (time)'
p140
g82
(g86
S'\x0e\x9d\x0e}\xe4\xc4\xf2?'
p141
tp142
Rp143
sg8
g101
sS'p_ratio normal (time)'
p144
g82
(g86
S'\x00\x00\x00\x00\x00\x00\xf0?'
p145
tp146
Rp147
sS'normal (time)'
p148
F0.4935960000002524
sa(dp149
S'dicairano (time)'
p150
F0.7808149999991656
sg4
g25
sS'acary (time)'
p151
F0.8940629999997327
sS'p_ratio ghadimi (time)'
p152
g82
(g86
S'U\x8d\x9e\xaf)2\xf7?'
p153
tp154
Rp155
sS'p_ratio acary (time)'
p156
g82
(g86
S'\xa8{?\x9aE\x86\xfc?'
p157
tp158
Rp159
sS'ghadimi (time)'
p160
F0.7740720000001602
sS'p_ratio dicairano (time)'
p161
g82
(g86
S'j\xeePJ\xdf\x89\xfd?'
p162
tp163
Rp164
sg8
g101
sS'p_ratio normal (time)'
p165
g82
(g86
S'\xf6\x04\xfdV\xe3\x90\xfc?'
p166
tp167
Rp168
sS'normal (time)'
p169
F0.8812529999995604
sa(dp170
S'dicairano (time)'
p171
F0.9954049999996641
sg4
g31
sS'acary (time)'
p172
F1.2815510000000359
sS'p_ratio ghadimi (time)'
p173
g82
(g86
S'r\xd1\x12.\xbeK\x0c@'
p174
tp175
Rp176
sS'p_ratio acary (time)'
p177
g82
(g86
S'\xa8U\xac\xf0\x8aq\x04@'
p178
tp179
Rp180
sS'ghadimi (time)'
p181
F1.8885230000005322
sS'p_ratio dicairano (time)'
p182
g82
(g86
S'r\xd5TH\x0b\xd4\x02@'
p183
tp184
Rp185
sg8
g101
sS'p_ratio normal (time)'
p186
g82
(g86
S'@V#\xa1\xf1\xb8\x04@'
p187
tp188
Rp189
sS'normal (time)'
p190
F1.2785640000001877
sa(dp191
S'dicairano (time)'
p192
F0.8898239999998623
sg4
g37
sS'acary (time)'
p193
F0.9526430000005348
sS'p_ratio ghadimi (time)'
p194
g82
(g86
S'C7\x1e)0\x8e\xf5?'
p195
tp196
Rp197
sS'p_ratio acary (time)'
p198
g82
(g86
S'\x0fUN\x8f\xb9d\xfe?'
p199
tp200
Rp201
sS'ghadimi (time)'
p202
F0.7193260000003647
sS'p_ratio dicairano (time)'
p203
g82
(g86
S'\xd6\xa2f/\xca\xd4\x00@'
p204
tp205
Rp206
sg8
g101
sS'p_ratio normal (time)'
p207
g82
(g86
S'\x1c\xa4$\xb3\xd0o\xfe?'
p208
tp209
Rp210
sS'normal (time)'
p211
F0.9389670000000478
sa(dp212
S'dicairano (time)'
p213
F0.9971869999999399
sg4
g43
sS'acary (time)'
p214
F1.1162190000004557
sS'p_ratio ghadimi (time)'
p215
g82
(g86
S'\xe3$w\xfb\x1c\x1a\xfe?'
p216
tp217
Rp218
sS'p_ratio acary (time)'
p219
g82
(g86
S'\x0b\xf1N\xf6]\xce\x01@'
p220
tp221
Rp222
sS'ghadimi (time)'
p223
F1.004533999999694
sS'p_ratio dicairano (time)'
p224
g82
(g86
S'\xab\xb8kL\xac\xdc\x02@'
p225
tp226
Rp227
sg8
g101
sS'p_ratio normal (time)'
p228
g82
(g86
S'\x1e\x1c\xe6\x83\xf3\xed\x01@'
p229
tp230
Rp231
sS'normal (time)'
p232
F1.1062409999994998
sa(dp233
S'dicairano (time)'
p234
F4.6406389999992825
sg4
g49
sS'acary (time)'
p235
F6.4840839999997115
sS'p_ratio ghadimi (time)'
p236
g82
(g86
S'6\xc2ndT\xd52@'
p237
tp238
Rp239
sS'p_ratio acary (time)'
p240
g82
(g86
S'U<i\x0e\xdb\xdb)@'
p241
tp242
Rp243
sS'ghadimi (time)'
p244
F10.055787000000237
sS'p_ratio dicairano (time)'
p245
g82
(g86
S'\x1fF\xb0\xc7\xd5\xf1%@'
p246
tp247
Rp248
sg8
g101
sS'p_ratio normal (time)'
p249
g82
(g86
S'Ul\x1e_j\x1a*@'
p250
tp251
Rp252
sS'normal (time)'
p253
F6.442213999999694
sa(dp254
S'dicairano (time)'
p255
F55.39378900000065
sg4
g55
sS'acary (time)'
p256
Fnan
sS'p_ratio ghadimi (time)'
p257
g82
(g86
S'yT\xaa(\xd1\xed @'
p258
tp259
Rp260
sS'p_ratio acary (time)'
p261
g82
(g86
S'\x00\x00\x00\x00\x00\x00\xf8\x7f'
p262
tp263
Rp264
sS'ghadimi (time)'
p265
F4.5194940000001225
sS'p_ratio dicairano (time)'
p266
g82
(g86
S'\x0fi\xf5#$_`@'
p267
tp268
Rp269
sg8
g101
sS'p_ratio normal (time)'
p270
g82
(g86
S'\x00\x00\x00\x00\x00\x00\xf8\x7f'
p271
tp272
Rp273
sS'normal (time)'
p274
Fnan
sa(dp275
S'dicairano (time)'
p276
F1.3303719999994428
sg4
g61
sS'acary (time)'
p277
F1.3853279999993902
sS'p_ratio ghadimi (time)'
p278
g82
(g86
S'\x00L\x00\xabW\xd4\x03@'
p279
tp280
Rp281
sS'p_ratio acary (time)'
p282
g82
(g86
S'\x94{\x0f\xc0W\x19\x06@'
p283
tp284
Rp285
sS'ghadimi (time)'
p286
F1.323457999999846
sS'p_ratio dicairano (time)'
p287
g82
(g86
S'\x01\xb9<\x8b\r*\t@'
p288
tp289
Rp290
sg8
g101
sS'p_ratio normal (time)'
p291
g82
(g86
S'`7\xe1\xd2"\xa2\x06@'
p292
tp293
Rp294
sS'normal (time)'
p295
F1.3964659999992364
sa(dp296
S'dicairano (time)'
p297
F2.5932960000000094
sg4
g67
sS'acary (time)'
p298
F3.654834999999366
sS'p_ratio ghadimi (time)'
p299
g82
(g86
S'<\xaa\xc6~\xf6\xf4\x10@'
p300
tp301
Rp302
sS'p_ratio acary (time)'
p303
g82
(g86
S'\xfb\xc8\xe1\x93\xba&\x1d@'
p304
tp305
Rp306
sS'ghadimi (time)'
p307
F2.2634729999999763
sS'p_ratio dicairano (time)'
p308
g82
(g86
S'\xb3\xb8\xb7Y\xc0\x86\x18@'
p309
tp310
Rp311
sg8
g101
sS'p_ratio normal (time)'
p312
g82
(g86
S'\x05{b\xc7\x15\x92\x1d@'
p313
tp314
Rp315
sS'normal (time)'
p316
F3.6489879999999175
sa(dp317
S'dicairano (time)'
p318
F1.1026849999998376
sg4
g73
sS'acary (time)'
p319
F1.3333920000004582
sS'p_ratio ghadimi (time)'
p320
g82
(g86
S'\xe6\xda\x84\xd1\xf0\xa0\x00@'
p321
tp322
Rp323
sS'p_ratio acary (time)'
p324
g82
(g86
S'\xa6\x8f\xcb\xaf?E\x05@'
p325
tp326
Rp327
sS'ghadimi (time)'
p328
F1.1098309999997582
sS'p_ratio dicairano (time)'
p329
g82
(g86
S'\xb8\xb8\xbf\x81\x86\xdb\x04@'
p330
tp331
Rp332
sg8
g101
sS'p_ratio normal (time)'
p333
g82
(g86
S'7m\xfc\x84_s\x05@'
p334
tp335
Rp336
sS'normal (time)'
p337
F1.3234959999999774
saa(lp338
(dp339
S'dicairano (time)'
p340
F0.746251000000484
sg4
g5
sS'acary (time)'
p341
F0.745122000000265
sS'p_ratio ghadimi (time)'
p342
g82
(g86
S'\xc5\x93\xb3\xa4\x9b\xbd\xfd?'
p343
tp344
Rp345
sS'p_ratio acary (time)'
p346
g82
(g86
S'\x00\x00\x00\x00\x00\x00\xf0?'
p347
tp348
Rp349
sS'ghadimi (time)'
p350
F1.3180780000002414
sS'p_ratio dicairano (time)'
p351
g82
(g86
S'\xf4yZ\x12+\x13\xf0?'
p352
tp353
Rp354
sg8
S'Box_Stacks-i0045-52-1.hdf5'
p355
sS'p_ratio normal (time)'
p356
g82
(g86
S'#^\xe7D\xbd\xf7\xfd?'
p357
tp358
Rp359
sS'normal (time)'
p360
F1.3845860000001267
sa(dp361
S'dicairano (time)'
p362
F0.9005820000002132
sg4
g13
sS'acary (time)'
p363
F0.9035160000003088
sS'p_ratio ghadimi (time)'
p364
g82
(g86
S'\x00\x00\x00\x00\x00\x00\xf0?'
p365
tp366
Rp367
sS'p_ratio acary (time)'
p368
g82
(g86
S'\xd7\x8b\xaf\x9b\xb4f\xf3?'
p369
tp370
Rp371
sS'ghadimi (time)'
p372
F0.7091049999999086
sS'p_ratio dicairano (time)'
p373
g82
(g86
S'\x02\xe2IA8f\xf3?'
p374
tp375
Rp376
sg8
g355
sS'p_ratio normal (time)'
p377
g82
(g86
S'\x84\x9f\xdc\x82\xab.\xf9?'
p378
tp379
Rp380
sS'normal (time)'
p381
F1.1634869999998045
sa(dp382
S'dicairano (time)'
p383
F0.7427749999997104
sg4
g19
sS'acary (time)'
p384
F0.7892799999999625
sS'p_ratio ghadimi (time)'
p385
g82
(g86
S'+\x87\x84$\xe0\xe2\xf0?'
p386
tp387
Rp388
sS'p_ratio acary (time)'
p389
g82
(g86
S'=\x96\xf4\x86\xbd\xf2\xf0?'
p390
tp391
Rp392
sS'ghadimi (time)'
p393
F0.748381999999765
sS'p_ratio dicairano (time)'
p394
g82
(g86
S'\x00\x00\x00\x00\x00\x00\xf0?'
p395
tp396
Rp397
sg8
g355
sS'p_ratio normal (time)'
p398
g82
(g86
S'\x00\x00\x00\x00\x00\x00\xf0?'
p399
tp400
Rp401
sS'normal (time)'
p402
F0.7392410000002201
sa(dp403
S'dicairano (time)'
p404
F1.1105989999996382
sg4
g25
sS'acary (time)'
p405
F1.1282490000003236
sS'p_ratio ghadimi (time)'
p406
g82
(g86
S'\xe0\rAI\x82\xfb\xf7?'
p407
tp408
Rp409
sS'p_ratio acary (time)'
p410
g82
(g86
S'p/\x06\x0c\x15:\xf8?'
p411
tp412
Rp413
sS'ghadimi (time)'
p414
F1.0628799999994953
sS'p_ratio dicairano (time)'
p415
g82
(g86
S'\xc9\x02\x8dgY\xec\xf7?'
p416
tp417
Rp418
sg8
g355
sS'p_ratio normal (time)'
p419
g82
(g86
S'0\xefZ\xf1HF\xf9?'
p420
tp421
Rp422
sS'normal (time)'
p423
F1.1677490000001853
sa(dp424
S'dicairano (time)'
p425
F1.1685069999994084
sg4
g31
sS'acary (time)'
p426
F1.1265860000003158
sS'p_ratio ghadimi (time)'
p427
g82
(g86
S'\x89Z\xa9\xca\x1f3\xf5?'
p428
tp429
Rp430
sS'p_ratio acary (time)'
p431
g82
(g86
S'\xd0o\x8b\xc8\xf00\xf8?'
p432
tp433
Rp434
sS'ghadimi (time)'
p435
F0.9395509999994829
sS'p_ratio dicairano (time)'
p436
g82
(g86
S'\xdb\x8ak+\xae+\xf9?'
p437
tp438
Rp439
sg8
g355
sS'p_ratio normal (time)'
p440
g82
(g86
S'\xe1\xbdh13\xac\x01@'
p441
tp442
Rp443
sS'normal (time)'
p444
F1.6330440000001545
sa(dp445
S'dicairano (time)'
p446
F1.053118999999242
sg4
g37
sS'acary (time)'
p447
F1.0627469999999448
sS'p_ratio ghadimi (time)'
p448
g82
(g86
S'e\x0f\xda\x8b{\xb8\xf2?'
p449
tp450
Rp451
sS'p_ratio acary (time)'
p452
g82
(g86
S'\x15\\\x86\x16\x03\xd2\xf6?'
p453
tp454
Rp455
sS'ghadimi (time)'
p456
F0.8296810000001642
sS'p_ratio dicairano (time)'
p457
g82
(g86
S'\xca\xcd\xe7\xd8`\xaf\xf6?'
p458
tp459
Rp460
sg8
g355
sS'p_ratio normal (time)'
p461
g82
(g86
S'}\xcd\x8a!\x9d\xdb\xf6?'
p462
tp463
Rp464
sS'normal (time)'
p465
F1.0560919999998077
sa(dp466
S'dicairano (time)'
p467
Fnan
sg4
g43
sS'acary (time)'
p468
Fnan
sS'p_ratio ghadimi (time)'
p469
g82
(g86
S'8\x82y\rt\x1d\x00@'
p470
tp471
Rp472
sS'p_ratio acary (time)'
p473
g82
(g86
S'\x00\x00\x00\x00\x00\x00\xf8\x7f'
p474
tp475
Rp476
sS'ghadimi (time)'
p477
F1.428407999999763
sS'p_ratio dicairano (time)'
p478
g82
(g86
S'\x00\x00\x00\x00\x00\x00\xf8\x7f'
p479
tp480
Rp481
sg8
g355
sS'p_ratio normal (time)'
p482
g82
(g86
S'&W\x0f\xd5\xfb\xca\x10@'
p483
tp484
Rp485
sS'normal (time)'
p486
F3.1035009999995964
sa(dp487
S'dicairano (time)'
p488
F9.704083000000537
sg4
g49
sS'acary (time)'
p489
F15.409776999999849
sS'p_ratio ghadimi (time)'
p490
g82
(g86
S'\xf5\xf2/\xc8E4@@'
p491
tp492
Rp493
sS'p_ratio acary (time)'
p494
g82
(g86
S'\xe8\x9dI\x01N\xae4@'
p495
tp496
Rp497
sS'ghadimi (time)'
p498
F22.98094399999991
sS'p_ratio dicairano (time)'
p499
g82
(g86
S'\xfd]\xb2\x9d\x17!*@'
p500
tp501
Rp502
sg8
g355
sS'p_ratio normal (time)'
p503
g82
(g86
S'F`\x8a\xc6\xea\xc0+@'
p504
tp505
Rp506
sS'normal (time)'
p507
F10.258292999999867
sa(dp508
S'dicairano (time)'
p509
F58.523731999999654
sg4
g55
sS'acary (time)'
p510
F58.68413599999985
sS'p_ratio ghadimi (time)'
p511
g82
(g86
S'h\x83\xbf\xdfw\xb4T@'
p512
tp513
Rp514
sS'p_ratio acary (time)'
p515
g82
(g86
S'`\x7fE\x0f\x7f\xb0S@'
p516
tp517
Rp518
sS'ghadimi (time)'
p519
F58.727945999999974
sS'p_ratio dicairano (time)'
p520
g82
(g86
S'\x7f\x8c\xae)\x9a\xb2S@'
p521
tp522
Rp523
sg8
g355
sS'p_ratio normal (time)'
p524
g82
(g86
S'|#\x16\xce\xfc\xb9S@'
p525
tp526
Rp527
sS'normal (time)'
p528
F58.33059099999991
sa(dp529
S'dicairano (time)'
p530
F2.3646600000001854
sg4
g61
sS'acary (time)'
p531
F58.36030500000015
sS'p_ratio ghadimi (time)'
p532
g82
(g86
S'\xcb\xa2\x19\xce\xab\xee\x07@'
p533
tp534
Rp535
sS'p_ratio acary (time)'
p536
g82
(g86
S'1O>\x8d\xae\x94S@'
p537
tp538
Rp539
sS'ghadimi (time)'
p540
F2.1213150000003225
sS'p_ratio dicairano (time)'
p541
g82
(g86
S'V\x8d\xce\x1b\xe8w\t@'
p542
tp543
Rp544
sg8
g355
sS'p_ratio normal (time)'
p545
g82
(g86
S'\xf8\x94\xacU\n%\x08@'
p546
tp547
Rp548
sS'normal (time)'
p549
F2.231093000000328
sa(dp550
S'dicairano (time)'
p551
F5.99861300000066
sg4
g67
sS'acary (time)'
p552
F58.52799099999993
sS'p_ratio ghadimi (time)'
p553
g82
(g86
S'j:UE\xd0\x9eT@'
p554
tp555
Rp556
sS'p_ratio acary (time)'
p557
g82
(g86
S'\x9a4\x7f\xb0\x15\xa3S@'
p558
tp559
Rp560
sS'ghadimi (time)'
p561
F58.48801700000058
sS'p_ratio dicairano (time)'
p562
g82
(g86
S'\x9e\xb4\xb8\xc8\xe2& @'
p563
tp564
Rp565
sg8
g355
sS'p_ratio normal (time)'
p566
g82
(g86
S'\xb7\xe8W\xee\x19\x80\x17@'
p567
tp568
Rp569
sS'normal (time)'
p570
F4.3431140000002415
sa(dp571
S'dicairano (time)'
p572
F1.539158999999927
sg4
g73
sS'acary (time)'
p573
F1.656050999999934
sS'p_ratio ghadimi (time)'
p574
g82
(g86
S'\xef\xdd\xe8^2\xbc\x02@'
p575
tp576
Rp577
sS'p_ratio acary (time)'
p578
g82
(g86
S'0G\x9cJ\xba\xc7\x01@'
p579
tp580
Rp581
sS'ghadimi (time)'
p582
F1.6606480000000374
sS'p_ratio dicairano (time)'
p583
g82
(g86
S'\xa4\xd0\x8e\xee\xcf\x93\x00@'
p584
tp585
Rp586
sg8
g355
sS'p_ratio normal (time)'
p587
g82
(g86
S'\x0e\x16\xab\x03\x07y\x02@'
p588
tp589
Rp590
sS'normal (time)'
p591
F1.7069780000001629
saa(lp592
(dp593
S'dicairano (time)'
p594
F1.0138669999996637
sg4
g5
sS'acary (time)'
p595
F0.9970530000000508
sS'p_ratio ghadimi (time)'
p596
g82
(g86
S'C\x91\xc7\xa9F\x8e\xff?'
p597
tp598
Rp599
sS'p_ratio acary (time)'
p600
g82
(g86
S'\xcaz\x1bS\x99\xba\xf2?'
p601
tp602
Rp603
sS'ghadimi (time)'
p604
F1.81833000000006
sS'p_ratio dicairano (time)'
p605
g82
(g86
S'B\x7f\xd2\xe8h\xc7\xf2?'
p606
tp607
Rp608
sg8
S'Box_Stacks-i0102-63-3.hdf5'
p609
sS'p_ratio normal (time)'
p610
g82
(g86
S'#\xb8v\xdd\xb8\xf9\xfa?'
p611
tp612
Rp613
sS'normal (time)'
p614
F1.771429000000353
sa(dp615
S'dicairano (time)'
p616
F38.829258000000664
sg4
g13
sS'acary (time)'
p617
F2.9251860000003944
sS'p_ratio ghadimi (time)'
p618
g82
(g86
S'i\xea\x97\xf1\xf0\x1bE@'
p619
tp620
Rp621
sS'p_ratio acary (time)'
p622
g82
(g86
S'y\x8e-\x1dFy\x0b@'
p623
tp624
Rp625
sS'ghadimi (time)'
p626
F38.923743999999715
sS'p_ratio dicairano (time)'
p627
g82
(g86
S'\x0c\xadQB\x98yF@'
p628
tp629
Rp630
sg8
g609
sS'p_ratio normal (time)'
p631
g82
(g86
S'\xbc\x8c\x89\xdc\x85SB@'
p632
tp633
Rp634
sS'normal (time)'
p635
F38.51043899999968
sa(dp636
S'dicairano (time)'
p637
F0.8638330000003407
sg4
g19
sS'acary (time)'
p638
F0.8517769999998563
sS'p_ratio ghadimi (time)'
p639
g82
(g86
S'\x00\x00\x00\x00\x00\x00\xf0?'
p640
tp641
Rp642
sS'p_ratio acary (time)'
p643
g82
(g86
S'\x00\x00\x00\x00\x00\x00\xf0?'
p644
tp645
Rp646
sS'ghadimi (time)'
p647
F0.9219640000001164
sS'p_ratio dicairano (time)'
p648
g82
(g86
S'\x00\x00\x00\x00\x00\x00\xf0?'
p649
tp650
Rp651
sg8
g609
sS'p_ratio normal (time)'
p652
g82
(g86
S'\x00\x00\x00\x00\x00\x00\xf0?'
p653
tp654
Rp655
sS'normal (time)'
p656
F1.0506900000000314
sa(dp657
S'dicairano (time)'
p658
F1.5568249999996624
sg4
g25
sS'acary (time)'
p659
F1.5370250000005399
sS'p_ratio ghadimi (time)'
p660
g82
(g86
S'\xc5\x187R\xdb\xff\xf2?'
p661
tp662
Rp663
sS'p_ratio acary (time)'
p664
g82
(g86
S'\xba4{E3\xdf\xfc?'
p665
tp666
Rp667
sS'ghadimi (time)'
p668
F1.0947999999998501
sS'p_ratio dicairano (time)'
p669
g82
(g86
S'\xaa\xb5\x8d7\xee\xd5\xfc?'
p670
tp671
Rp672
sg8
g609
sS'p_ratio normal (time)'
p673
g82
(g86
S'e\x90\x89\x0b\x043\xfd?'
p674
tp675
Rp676
sS'normal (time)'
p677
F1.9174620000003415
sa(dp678
S'dicairano (time)'
p679
F60.47719199999938
sg4
g31
sS'acary (time)'
p680
F4.515794000000824
sS'p_ratio ghadimi (time)'
p681
g82
(g86
S'UkO\xd2\xe2lP@'
p682
tp683
Rp684
sS'p_ratio acary (time)'
p685
g82
(g86
S'PU\x16\xa6\xda4\x15@'
p686
tp687
Rp688
sS'ghadimi (time)'
p689
F60.574273999999605
sS'p_ratio dicairano (time)'
p690
g82
(g86
S'\x9fI+v\xa8\x80Q@'
p691
tp692
Rp693
sg8
g609
sS'p_ratio normal (time)'
p694
g82
(g86
S'\xf7\xe5IZ\xbc\xa4L@'
p695
tp696
Rp697
sS'normal (time)'
p698
F60.19087600000057
sa(dp699
S'dicairano (time)'
p700
F1.3255150000004505
sg4
g37
sS'acary (time)'
p701
F1.1743440000000192
sS'p_ratio ghadimi (time)'
p702
g82
(g86
S'\x80\x87\xbeI,G\xf9?'
p703
tp704
Rp705
sS'p_ratio acary (time)'
p706
g82
(g86
S'F\x1e\xd4\x8f&\x0f\xf6?'
p707
tp708
Rp709
sS'ghadimi (time)'
p710
F1.4565890000003492
sS'p_ratio dicairano (time)'
p711
g82
(g86
S'.L\xc5F#\x8d\xf8?'
p712
tp713
Rp714
sg8
g609
sS'p_ratio normal (time)'
p715
g82
(g86
S'\n\xe3!\xdbh\xb6\xf8?'
p716
tp717
Rp718
sS'normal (time)'
p719
F1.6228259999998045
sa(dp720
S'dicairano (time)'
p721
F3.74598799999967
sg4
g43
sS'acary (time)'
p722
Fnan
sS'p_ratio ghadimi (time)'
p723
g82
(g86
S'\xbb\x0b\x9e\xf5\xcb\xc4\xff?'
p724
tp725
Rp726
sS'p_ratio acary (time)'
p727
g82
(g86
S'\x00\x00\x00\x00\x00\x00\xf8\x7f'
p728
tp729
Rp730
sS'ghadimi (time)'
p731
F1.830601999999999
sS'p_ratio dicairano (time)'
p732
g82
(g86
S'\xd3\xa0m;\x8cX\x11@'
p733
tp734
Rp735
sg8
g609
sS'p_ratio normal (time)'
p736
g82
(g86
S'\x00\x00\x00\x00\x00\x00\xf8\x7f'
p737
tp738
Rp739
sS'normal (time)'
p740
Fnan
sa(dp741
S'dicairano (time)'
p742
F8.098834000000352
sg4
g49
sS'acary (time)'
p743
F6.724782000000232
sS'p_ratio ghadimi (time)'
p744
g82
(g86
S"':a\xb4\xee;.@"
p745
tp746
Rp747
sS'p_ratio acary (time)'
p748
g82
(g86
S'\xed\xb8\xf1\xac{\x94\x1f@'
p749
tp750
Rp751
sS'ghadimi (time)'
p752
F13.937380999999732
sS'p_ratio dicairano (time)'
p753
g82
(g86
S'\'^\xe5\xa2<\xc0"@'
p754
tp755
Rp756
sg8
g609
sS'p_ratio normal (time)'
p757
g82
(g86
S"V\xce\xc0\xc5\xa9u'@"
p758
tp759
Rp760
sS'normal (time)'
p761
F12.32439499999964
sa(dp762
S'dicairano (time)'
p763
F24.573239999999714
sg4
g55
sS'acary (time)'
p764
Fnan
sS'p_ratio ghadimi (time)'
p765
g82
(g86
S'\x00\x00\x00\x00\x00\x00\xf8\x7f'
p766
tp767
Rp768
sS'p_ratio acary (time)'
p769
g82
(g86
S'\x00\x00\x00\x00\x00\x00\xf8\x7f'
p770
tp771
Rp772
sS'ghadimi (time)'
p773
Fnan
sS'p_ratio dicairano (time)'
p774
g82
(g86
S'\xbf\xb32\x1a^r<@'
p775
tp776
Rp777
sg8
g609
sS'p_ratio normal (time)'
p778
g82
(g86
S'\x00\x00\x00\x00\x00\x00\xf8\x7f'
p779
tp780
Rp781
sS'normal (time)'
p782
Fnan
sa(dp783
S'dicairano (time)'
p784
F2.300111999999899
sg4
g61
sS'acary (time)'
p785
F3.5004040000003442
sS'p_ratio ghadimi (time)'
p786
g82
(g86
S'2Cm\xe3\xd9\x8dP@'
p787
tp788
Rp789
sS'p_ratio acary (time)'
p790
g82
(g86
S'\xf2$\n\xe6(p\x10@'
p791
tp792
Rp793
sS'ghadimi (time)'
p794
F61.049159000000145
sS'p_ratio dicairano (time)'
p795
g82
(g86
S'\x03\xe7J\xde+M\x05@'
p796
tp797
Rp798
sg8
g609
sS'p_ratio normal (time)'
p799
g82
(g86
S'\xc3\xf3\xf4gKi\x02@'
p800
tp801
Rp802
sS'normal (time)'
p803
F2.4180719999994835
sa(dp804
S'dicairano (time)'
p805
F30.055167999999867
sg4
g67
sS'acary (time)'
p806
F61.13472999999976
sS'p_ratio ghadimi (time)'
p807
g82
(g86
S'q@Y\xd6\x06\x8cP@'
p808
tp809
Rp810
sS'p_ratio acary (time)'
p811
g82
(g86
S'\xb7\xc7Q\x83{\xf1Q@'
p812
tp813
Rp814
sS'ghadimi (time)'
p815
F61.022877000000335
sS'p_ratio dicairano (time)'
p816
g82
(g86
S'\xd0W\xa1pzeA@'
p817
tp818
Rp819
sg8
g609
sS'p_ratio normal (time)'
p820
g82
(g86
S'\xc4\xe3\x98hi\x08A@'
p821
tp822
Rp823
sS'normal (time)'
p824
F35.79250800000045
sa(dp825
S'dicairano (time)'
p826
F2.2461789999997563
sg4
g73
sS'acary (time)'
p827
F5.294368000000759
sS'p_ratio ghadimi (time)'
p828
g82
(g86
S'\xe7\x9d\xe0>T/\x03@'
p829
tp830
Rp831
sS'p_ratio acary (time)'
p832
g82
(g86
S'\xe6\x96\x1a\x99\xd9\xdc\x18@'
p833
tp834
Rp835
sS'ghadimi (time)'
p836
F2.210971000000427
sS'p_ratio dicairano (time)'
p837
g82
(g86
S'\xd1u\xab2N\xcd\x04@'
p838
tp839
Rp840
sg8
g609
sS'p_ratio normal (time)'
p841
g82
(g86
S'\x87N\x94\xac\xf5\x05\x02@'
p842
tp843
Rp844
sS'normal (time)'
p845
F2.367110000000139
saa(lp846
(dp847
S'dicairano (time)'
p848
F77.70633799999996
sg4
g5
sS'acary (time)'
p849
F74.96111199999996
sS'ghadimi (time)'
p850
F74.40254499999992
sg8
S'Box_Stacks-i0106-642-48.hdf5'
p851
sS'normal (time)'
p852
F78.36721399999988
sa(dp853
S'dicairano (time)'
p854
F81.36324799999966
sg4
g13
sS'acary (time)'
p855
F81.007239999999
sS'ghadimi (time)'
p856
F79.43166599999859
sg8
g851
sS'normal (time)'
p857
F81.52609800000027
sa(dp858
S'dicairano (time)'
p859
F77.58656700000029
sg4
g19
sS'acary (time)'
p860
F75.08148799999981
sS'ghadimi (time)'
p861
F74.91921600000023
sg8
g851
sS'normal (time)'
p862
F78.0360639999999
sa(dp863
S'dicairano (time)'
p864
F148.71830899999986
sg4
g25
sS'acary (time)'
p865
F148.39091000000008
sS'ghadimi (time)'
p866
F147.31563599999936
sg8
g851
sS'normal (time)'
p867
F149.39945100000114
sa(dp868
S'dicairano (time)'
p869
F152.42264400000022
sg4
g31
sS'acary (time)'
p870
F152.76278400000047
sS'ghadimi (time)'
p871
F152.91262200000165
sg8
g851
sS'normal (time)'
p872
F152.8087599999999
sa(dp873
S'dicairano (time)'
p874
F148.70750100000078
sg4
g37
sS'acary (time)'
p875
F149.03944499999852
sS'ghadimi (time)'
p876
F147.62774600000012
sg8
g851
sS'normal (time)'
p877
F149.27159700000084
sa(dp878
S'dicairano (time)'
p879
F149.78410900000017
sg4
g43
sS'acary (time)'
p880
F147.03245499999866
sS'ghadimi (time)'
p881
F148.52861399999892
sg8
g851
sS'normal (time)'
p882
F150.49841000000015
sa(dp883
S'dicairano (time)'
p884
F145.6419249999999
sg4
g49
sS'acary (time)'
p885
F146.31759299999976
sS'ghadimi (time)'
p886
F146.66415600000073
sg8
g851
sS'normal (time)'
p887
F145.649813
sa(dp888
S'dicairano (time)'
p889
F147.8494410000003
sg4
g55
sS'acary (time)'
p890
F147.31724400000166
sS'ghadimi (time)'
p891
F147.3145569999997
sg8
g851
sS'normal (time)'
p892
F150.1648610000011
sa(dp893
S'dicairano (time)'
p894
F150.22905700000047
sg4
g61
sS'acary (time)'
p895
F148.93184800000017
sS'ghadimi (time)'
p896
F148.68351000000075
sg8
g851
sS'normal (time)'
p897
F150.73183299999982
sa(dp898
S'dicairano (time)'
p899
F154.04367699999966
sg4
g67
sS'acary (time)'
p900
F154.46406200000092
sS'ghadimi (time)'
p901
F154.17487299999993
sg8
g851
sS'normal (time)'
p902
F154.11456499999986
sa(dp903
S'dicairano (time)'
p904
F150.19407900000078
sg4
g73
sS'acary (time)'
p905
F149.16489400000137
sS'ghadimi (time)'
p906
F149.31997500000034
sg8
g851
sS'normal (time)'
p907
F150.58786800000053
saa(lp908
(dp909
S'dicairano (time)'
p910
F77.67882099999952
sg4
g5
sS'acary (time)'
p911
F74.95253400000001
sS'ghadimi (time)'
p912
F74.5116080000007
sg8
S'Box_Stacks-i0129-642-49.hdf5'
p913
sS'normal (time)'
p914
F78.32378400000016
sa(dp915
S'dicairano (time)'
p916
F81.76051999999981
sg4
g13
sS'acary (time)'
p917
F81.06009900000026
sS'ghadimi (time)'
p918
F79.49540100000013
sg8
g913
sS'normal (time)'
p919
F81.41572900000028
sa(dp920
S'dicairano (time)'
p921
F77.50522799999999
sg4
g19
sS'acary (time)'
p922
F75.02580499999931
sS'ghadimi (time)'
p923
F74.8320789999998
sg8
g913
sS'normal (time)'
p924
F77.98317499999939
sa(dp925
S'dicairano (time)'
p926
F148.9606789999998
sg4
g25
sS'acary (time)'
p927
F148.7718679999998
sS'ghadimi (time)'
p928
F147.5737160000008
sg8
g913
sS'normal (time)'
p929
F149.65457400000014
sa(dp930
S'dicairano (time)'
p931
F152.8483699999997
sg4
g31
sS'acary (time)'
p932
F153.05271899999934
sS'ghadimi (time)'
p933
F153.057057
sg8
g913
sS'normal (time)'
p934
F152.79944699999942
sa(dp935
S'dicairano (time)'
p936
F148.77809200000047
sg4
g37
sS'acary (time)'
p937
F149.18914899999982
sS'ghadimi (time)'
p938
F147.64158900000257
sg8
g913
sS'normal (time)'
p939
F149.29924200000096
sa(dp940
S'dicairano (time)'
p941
F150.00204200000007
sg4
g43
sS'acary (time)'
p942
F147.33145499999955
sS'ghadimi (time)'
p943
F148.4568180000024
sg8
g913
sS'normal (time)'
p944
F150.76387199999954
sa(dp945
S'dicairano (time)'
p946
F145.77985199999966
sg4
g49
sS'acary (time)'
p947
F146.59744099999807
sS'ghadimi (time)'
p948
F146.71572100000049
sg8
g913
sS'normal (time)'
p949
F145.72155600000042
sa(dp950
S'dicairano (time)'
p951
F147.89638399999967
sg4
g55
sS'acary (time)'
p952
F147.54868700000225
sS'ghadimi (time)'
p953
F147.2902780000004
sg8
g913
sS'normal (time)'
p954
F150.24525300000096
sa(dp955
S'dicairano (time)'
p956
F150.2115019999983
sg4
g61
sS'acary (time)'
p957
F148.98519699999815
sS'ghadimi (time)'
p958
F148.75563200000033
sg8
g913
sS'normal (time)'
p959
F150.5059169999986
sa(dp960
S'dicairano (time)'
p961
F154.1568249999982
sg4
g67
sS'acary (time)'
p962
F162.32100100000025
sS'ghadimi (time)'
p963
F154.08300899999813
sg8
g913
sS'normal (time)'
p964
F153.99524799999926
sa(dp965
S'dicairano (time)'
p966
F150.04340500000035
sg4
g73
sS'acary (time)'
p967
F149.11211800000092
sS'ghadimi (time)'
p968
F149.082236000002
sg8
g913
sS'normal (time)'
p969
F150.85464099999808
saa(lp970
(dp971
S'dicairano (time)'
p972
F77.97113099999842
sg4
g5
sS'acary (time)'
p973
F75.41303200000038
sS'ghadimi (time)'
p974
F74.83888000000297
sg8
S'Box_Stacks-i0141-642-51.hdf5'
p975
sS'normal (time)'
p976
F78.69976899999892
sa(dp977
S'dicairano (time)'
p978
F81.85765700000047
sg4
g13
sS'acary (time)'
p979
F81.48549899999853
sS'ghadimi (time)'
p980
F79.98830599999928
sg8
g975
sS'normal (time)'
p981
F81.86672999999792
sa(dp982
S'dicairano (time)'
p983
F77.87604099999953
sg4
g19
sS'acary (time)'
p984
F75.40554299999712
sS'ghadimi (time)'
p985
F75.19412100000045
sg8
g975
sS'normal (time)'
p986
F78.25126000000091
sa(dp987
S'dicairano (time)'
p988
F149.2887800000026
sg4
g25
sS'acary (time)'
p989
F149.04236700000183
sS'ghadimi (time)'
p990
F147.80346500000087
sg8
g975
sS'normal (time)'
p991
F149.8724489999986
sa(dp992
S'dicairano (time)'
p993
F153.1799549999996
sg4
g31
sS'acary (time)'
p994
F153.4624960000001
sS'ghadimi (time)'
p995
F153.18589799999972
sg8
g975
sS'normal (time)'
p996
F152.70650000000023
sa(dp997
S'dicairano (time)'
p998
F148.56862100000217
sg4
g37
sS'acary (time)'
p999
F148.99977500000023
sS'ghadimi (time)'
p1000
F147.58658800000194
sg8
g975
sS'normal (time)'
p1001
F149.06334499999866
sa(dp1002
S'dicairano (time)'
p1003
F149.85896700000012
sg4
g43
sS'acary (time)'
p1004
F147.15197699999771
sS'ghadimi (time)'
p1005
F148.45800200000303
sg8
g975
sS'normal (time)'
p1006
F150.45527800000127
sa(dp1007
S'dicairano (time)'
p1008
F145.50185799999963
sg4
g49
sS'acary (time)'
p1009
F146.14328199999727
sS'ghadimi (time)'
p1010
F146.37626100000125
sg8
g975
sS'normal (time)'
p1011
F145.54178899999897
sa(dp1012
S'dicairano (time)'
p1013
F147.66104700000142
sg4
g55
sS'acary (time)'
p1014
F147.1826460000011
sS'ghadimi (time)'
p1015
F147.22449899999992
sg8
g975
sS'normal (time)'
p1016
F149.88743899999827
sa(dp1017
S'dicairano (time)'
p1018
F149.96534600000086
sg4
g61
sS'acary (time)'
p1019
F148.73265299999912
sS'ghadimi (time)'
p1020
F148.45895999999993
sg8
g975
sS'normal (time)'
p1021
F150.2990979999995
sa(dp1022
S'dicairano (time)'
p1023
F153.7856950000023
sg4
g67
sS'acary (time)'
p1024
F154.27566999999908
sS'ghadimi (time)'
p1025
F154.07271599999876
sg8
g975
sS'normal (time)'
p1026
F153.98235900000145
sa(dp1027
S'dicairano (time)'
p1028
F150.07273599999826
sg4
g73
sS'acary (time)'
p1029
F149.18370100000175
sS'ghadimi (time)'
p1030
F149.32294000000184
sg8
g975
sS'normal (time)'
p1031
F150.56598099999974
saa(lp1032
(dp1033
S'dicairano (time)'
p1034
F77.76294899999994
sg4
g5
sS'acary (time)'
p1035
F75.0901159999994
sS'ghadimi (time)'
p1036
F74.59383499999967
sg8
S'Box_Stacks-i0167-642-47.hdf5'
p1037
sS'normal (time)'
p1038
F78.47480200000064
sa(dp1039
S'dicairano (time)'
p1040
F81.65082899999834
sg4
g13
sS'acary (time)'
p1041
F81.31153600000107
sS'ghadimi (time)'
p1042
F79.58635799999684
sg8
g1037
sS'normal (time)'
p1043
F81.73435299999983
sa(dp1044
S'dicairano (time)'
p1045
F77.68776199999775
sg4
g19
sS'acary (time)'
p1046
F75.12507999999798
sS'ghadimi (time)'
p1047
F74.98344399999769
sg8
g1037
sS'normal (time)'
p1048
F78.14864099999977
sa(dp1049
S'dicairano (time)'
p1050
F148.7688930000004
sg4
g25
sS'acary (time)'
p1051
F148.5143640000024
sS'ghadimi (time)'
p1052
F147.42856799999936
sg8
g1037
sS'normal (time)'
p1053
F149.36751100000038
sa(dp1054
S'dicairano (time)'
p1055
F152.77325999999812
sg4
g31
sS'acary (time)'
p1056
F152.89979099999982
sS'ghadimi (time)'
p1057
F152.93686000000162
sg8
g1037
sS'normal (time)'
p1058
F152.72764599999937
sa(dp1059
S'dicairano (time)'
p1060
F148.68027300000176
sg4
g37
sS'acary (time)'
p1061
F148.91492500000095
sS'ghadimi (time)'
p1062
F147.85634500000015
sg8
g1037
sS'normal (time)'
p1063
F149.04323999999906
sa(dp1064
S'dicairano (time)'
p1065
F150.02110999999786
sg4
g43
sS'acary (time)'
p1066
F147.4827269999987
sS'ghadimi (time)'
p1067
F148.50286800000322
sg8
g1037
sS'normal (time)'
p1068
F150.5491809999985
sa(dp1069
S'dicairano (time)'
p1070
F145.41295700000046
sg4
g49
sS'acary (time)'
p1071
F146.2076620000007
sS'ghadimi (time)'
p1072
F146.43059300000095
sg8
g1037
sS'normal (time)'
p1073
F145.40840300000127
sa(dp1074
S'dicairano (time)'
p1075
F147.73676299999715
sg4
g55
sS'acary (time)'
p1076
F147.22498300000007
sS'ghadimi (time)'
p1077
F147.0668369999985
sg8
g1037
sS'normal (time)'
p1078
F149.9316800000015
sa(dp1079
S'dicairano (time)'
p1080
F150.04889299999923
sg4
g61
sS'acary (time)'
p1081
F148.9109869999993
sS'ghadimi (time)'
p1082
F148.61836499999845
sg8
g1037
sS'normal (time)'
p1083
F150.39585600000282
sa(dp1084
S'dicairano (time)'
p1085
F153.9541849999987
sg4
g67
sS'acary (time)'
p1086
F154.38866899999994
sS'ghadimi (time)'
p1087
F154.04684599999746
sg8
g1037
sS'normal (time)'
p1088
F154.13430999999764
sa(dp1089
S'dicairano (time)'
p1090
F150.0635570000013
sg4
g73
sS'acary (time)'
p1091
F149.08104100000128
sS'ghadimi (time)'
p1092
F149.29697500000475
sg8
g1037
sS'normal (time)'
p1093
F150.53755400000227
saa(lp1094
(dp1095
S'dicairano (time)'
p1096
F77.78026500000124
sg4
g5
sS'acary (time)'
p1097
F75.06283700000495
sS'ghadimi (time)'
p1098
F74.57697200000257
sg8
S'Box_Stacks-i0174-642-52.hdf5'
p1099
sS'normal (time)'
p1100
F78.40414099999907
sa(dp1101
S'dicairano (time)'
p1102
F81.56448900000396
sg4
g13
sS'acary (time)'
p1103
F81.01040900000226
sS'ghadimi (time)'
p1104
F85.2545140000002
sg8
g1099
sS'normal (time)'
p1105
F83.81307000000379
sa(dp1106
S'dicairano (time)'
p1107
F78.01907499999652
sg4
g19
sS'acary (time)'
p1108
F75.54295000000275
sS'ghadimi (time)'
p1109
F75.2218670000002
sg8
g1099
sS'normal (time)'
p1110
F78.38328300000285
sa(dp1111
S'dicairano (time)'
p1112
F149.34109100000205
sg4
g25
sS'acary (time)'
p1113
F149.06149200000073
sS'ghadimi (time)'
p1114
F147.36800599999697
sg8
g1099
sS'normal (time)'
p1115
F149.56655600000522
sa(dp1116
S'dicairano (time)'
p1117
F152.66404599999805
sg4
g31
sS'acary (time)'
p1118
F152.89892500000133
sS'ghadimi (time)'
p1119
F152.92746899999474
sg8
g1099
sS'normal (time)'
p1120
F152.79043300000194
sa(dp1121
S'dicairano (time)'
p1122
F148.65613999999914
sg4
g37
sS'acary (time)'
p1123
F148.91186699999525
sS'ghadimi (time)'
p1124
F147.61202700000285
sg8
g1099
sS'normal (time)'
p1125
F149.15853600000264
sa(dp1126
S'dicairano (time)'
p1127
F149.9209120000014
sg4
g43
sS'acary (time)'
p1128
F147.21114499999385
sS'ghadimi (time)'
p1129
F148.48267599999963
sg8
g1099
sS'normal (time)'
p1130
F150.45322200000373
sa(dp1131
S'dicairano (time)'
p1132
F145.71510000000126
sg4
g49
sS'acary (time)'
p1133
F146.27902099999483
sS'ghadimi (time)'
p1134
F146.47276200000488
sg8
g1099
sS'normal (time)'
p1135
F145.50757000000158
sa(dp1136
S'dicairano (time)'
p1137
F147.79782899999555
sg4
g55
sS'acary (time)'
p1138
F147.384112000007
sS'ghadimi (time)'
p1139
F147.1850590000031
sg8
g1099
sS'normal (time)'
p1140
F150.10783000000083
sa(dp1141
S'dicairano (time)'
p1142
F150.1842949999991
sg4
g61
sS'acary (time)'
p1143
F148.91938899999514
sS'ghadimi (time)'
p1144
F148.72984500000166
sg8
g1099
sS'normal (time)'
p1145
F150.64240000000427
sa(dp1146
S'dicairano (time)'
p1147
F154.08883900000365
sg4
g67
sS'acary (time)'
p1148
F154.25026100000105
sS'ghadimi (time)'
p1149
F154.01333699999668
sg8
g1099
sS'normal (time)'
p1150
F154.11284200000227
sa(dp1151
S'dicairano (time)'
p1152
F150.15862699999707
sg4
g73
sS'acary (time)'
p1153
F149.24623099999735
sS'ghadimi (time)'
p1154
F149.08446399999957
sg8
g1099
sS'normal (time)'
p1155
F150.46182599999884
saa(lp1156
(dp1157
S'dicairano (time)'
p1158
F77.67637000000104
sg4
g5
sS'acary (time)'
p1159
F75.04637700000603
sS'ghadimi (time)'
p1160
F74.51277400000254
sg8
S'Box_Stacks-i0191-642-50.hdf5'
p1161
sS'normal (time)'
p1162
F78.39330200000404
sa(dp1163
S'dicairano (time)'
p1164
F81.67057299999578
sg4
g13
sS'acary (time)'
p1165
F80.98874700000306
sS'ghadimi (time)'
p1166
F79.431491000003
sg8
g1161
sS'normal (time)'
p1167
F81.54231699999946
sa(dp1168
S'dicairano (time)'
p1169
F77.5536260000008
sg4
g19
sS'acary (time)'
p1170
F74.98098900000332
sS'ghadimi (time)'
p1171
F74.86229100000492
sg8
g1161
sS'normal (time)'
p1172
F78.00879499999428
sa(dp1173
S'dicairano (time)'
p1174
F148.76357100000314
sg4
g25
sS'acary (time)'
p1175
F148.5531650000048
sS'ghadimi (time)'
p1176
F147.33219100000133
sg8
g1161
sS'normal (time)'
p1177
F149.36093699999765
sa(dp1178
S'dicairano (time)'
p1179
F152.67860099999962
sg4
g31
sS'acary (time)'
p1180
F152.85398500000156
sS'ghadimi (time)'
p1181
F152.90458000000217
sg8
g1161
sS'normal (time)'
p1182
F152.79651000000013
sa(dp1183
S'dicairano (time)'
p1184
F148.6973699999944
sg4
g37
sS'acary (time)'
p1185
F149.183431999998
sS'ghadimi (time)'
p1186
F147.58533799999714
sg8
g1161
sS'normal (time)'
p1187
F148.98780200000328
sa(dp1188
S'dicairano (time)'
p1189
F149.84695400000055
sg4
g43
sS'acary (time)'
p1190
F147.16871400000673
sS'ghadimi (time)'
p1191
F148.53759600000194
sg8
g1161
sS'normal (time)'
p1192
F150.5557489999992
sa(dp1193
S'dicairano (time)'
p1194
F145.61896900000283
sg4
g49
sS'acary (time)'
p1195
F146.31535599999916
sS'ghadimi (time)'
p1196
F146.59421699999803
sg8
g1161
sS'normal (time)'
p1197
F145.3627009999982
sa(dp1198
S'dicairano (time)'
p1199
F147.8560190000062
sg4
g55
sS'acary (time)'
p1200
F147.3633619999964
sS'ghadimi (time)'
p1201
F147.22843299999658
sg8
g1161
sS'normal (time)'
p1202
F150.2550259999989
sa(dp1203
S'dicairano (time)'
p1204
F150.2238539999962
sg4
g61
sS'acary (time)'
p1205
F148.93291299999692
sS'ghadimi (time)'
p1206
F148.67250000000058
sg8
g1161
sS'normal (time)'
p1207
F150.45665400000144
sa(dp1208
S'dicairano (time)'
p1209
F154.07917199999793
sg4
g67
sS'acary (time)'
p1210
F154.32733800000278
sS'ghadimi (time)'
p1211
F154.2322370000038
sg8
g1161
sS'normal (time)'
p1212
F154.06883400000515
sa(dp1213
S'dicairano (time)'
p1214
F150.02186300000176
sg4
g73
sS'acary (time)'
p1215
F149.21907199999987
sS'ghadimi (time)'
p1216
F149.13321200000064
sg8
g1161
sS'normal (time)'
p1217
F150.46923300000344
saa(lp1218
(dp1219
S'dicairano (time)'
p1220
F77.72721000000456
sg4
g5
sS'acary (time)'
p1221
F75.04970100000355
sS'ghadimi (time)'
p1222
F74.52998799999477
sg8
S'Box_Stacks-i0195-642-46.hdf5'
p1223
sS'normal (time)'
p1224
F78.42065400000138
sa(dp1225
S'dicairano (time)'
p1226
F81.45969899999909
sg4
g13
sS'acary (time)'
p1227
F81.08144699999684
sS'ghadimi (time)'
p1228
F79.99247399999877
sg8
g1223
sS'normal (time)'
p1229
F81.89328699999896
sa(dp1230
S'dicairano (time)'
p1231
F77.86154000000533
sg4
g19
sS'acary (time)'
p1232
F75.43159200000082
sS'ghadimi (time)'
p1233
F75.06728999999905
sg8
g1223
sS'normal (time)'
p1234
F78.28093600000284
sa(dp1235
S'dicairano (time)'
p1236
F149.26088100000197
sg4
g25
sS'acary (time)'
p1237
F149.20516399999906
sS'ghadimi (time)'
p1238
F147.76464300000225
sg8
g1223
sS'normal (time)'
p1239
F150.04773299999943
sa(dp1240
S'dicairano (time)'
p1241
F153.0115900000019
sg4
g31
sS'acary (time)'
p1242
F153.224549999999
sS'ghadimi (time)'
p1243
F153.4844430000012
sg8
g1223
sS'normal (time)'
p1244
F153.28990899999917
sa(dp1245
S'dicairano (time)'
p1246
F148.66549999999552
sg4
g37
sS'acary (time)'
p1247
F157.2535960000023
sS'ghadimi (time)'
p1248
F147.70473599999968
sg8
g1223
sS'normal (time)'
p1249
F149.1665770000036
sa(dp1250
S'dicairano (time)'
p1251
F149.86047600000165
sg4
g43
sS'acary (time)'
p1252
F147.33528900000238
sS'ghadimi (time)'
p1253
F148.60355999999592
sg8
g1223
sS'normal (time)'
p1254
F150.50899699999718
sa(dp1255
S'dicairano (time)'
p1256
F145.5668000000005
sg4
g49
sS'acary (time)'
p1257
F146.38604900000064
sS'ghadimi (time)'
p1258
F146.41055700000288
sg8
g1223
sS'normal (time)'
p1259
F145.47870500000136
sa(dp1260
S'dicairano (time)'
p1261
F147.83257999999478
sg4
g55
sS'acary (time)'
p1262
F147.4071929999991
sS'ghadimi (time)'
p1263
F147.1072090000016
sg8
g1223
sS'normal (time)'
p1264
F150.17696599999908
sa(dp1265
S'dicairano (time)'
p1266
F150.11880699999892
sg4
g61
sS'acary (time)'
p1267
F148.96580999999424
sS'ghadimi (time)'
p1268
F148.62705899999855
sg8
g1223
sS'normal (time)'
p1269
F150.48267900000064
sa(dp1270
S'dicairano (time)'
p1271
F153.91431600000215
sg4
g67
sS'acary (time)'
p1272
F154.35156899999856
sS'ghadimi (time)'
p1273
F154.23753999999462
sg8
g1223
sS'normal (time)'
p1274
F154.02252800000133
sa(dp1275
S'dicairano (time)'
p1276
F150.16908200000034
sg4
g73
sS'acary (time)'
p1277
F149.2595500000025
sS'ghadimi (time)'
p1278
F149.17390200000227
sg8
g1223
sS'normal (time)'
p1279
F150.5689280000006
saa(lp1280
(dp1281
S'dicairano (time)'
p1282
F77.87098400000104
sg4
g5
sS'acary (time)'
p1283
F75.1232600000003
sS'ghadimi (time)'
p1284
F74.59645499999897
sg8
S'Box_Stacks-i0220-642-45.hdf5'
p1285
sS'normal (time)'
p1286
F78.46684600000299
sa(dp1287
S'dicairano (time)'
p1288
F81.53231000000233
sg4
g13
sS'acary (time)'
p1289
F81.08038499999384
sS'ghadimi (time)'
p1290
F79.53000900000188
sg8
g1285
sS'normal (time)'
p1291
F81.58897399999842
sa(dp1292
S'dicairano (time)'
p1293
F77.6852280000021
sg4
g19
sS'acary (time)'
p1294
F75.16308700000081
sS'ghadimi (time)'
p1295
F74.92266000000382
sg8
g1285
sS'normal (time)'
p1296
F78.0478460000013
sa(dp1297
S'dicairano (time)'
p1298
F148.9742499999993
sg4
g25
sS'acary (time)'
p1299
F148.69442600000184
sS'ghadimi (time)'
p1300
F147.66194299999916
sg8
g1285
sS'normal (time)'
p1301
F149.6416720000052
sa(dp1302
S'dicairano (time)'
p1303
F152.6968479999996
sg4
g31
sS'acary (time)'
p1304
F153.08341099999961
sS'ghadimi (time)'
p1305
F153.19033800000034
sg8
g1285
sS'normal (time)'
p1306
F152.8055200000017
sa(dp1307
S'dicairano (time)'
p1308
F148.76338400000532
sg4
g37
sS'acary (time)'
p1309
F149.1028970000043
sS'ghadimi (time)'
p1310
F147.7995099999971
sg8
g1285
sS'normal (time)'
p1311
F149.20990999999776
sa(dp1312
S'dicairano (time)'
p1313
F150.03947899999912
sg4
g43
sS'acary (time)'
p1314
F147.29745199999888
sS'ghadimi (time)'
p1315
F148.57790699999896
sg8
g1285
sS'normal (time)'
p1316
F150.6485279999979
sa(dp1317
S'dicairano (time)'
p1318
F145.36786000000575
sg4
g49
sS'acary (time)'
p1319
F146.38445800000045
sS'ghadimi (time)'
p1320
F146.60266899999988
sg8
g1285
sS'normal (time)'
p1321
F145.56118499999866
sa(dp1322
S'dicairano (time)'
p1323
F147.83659199999965
sg4
g55
sS'acary (time)'
p1324
F147.2660670000041
sS'ghadimi (time)'
p1325
F147.14155399999436
sg8
g1285
sS'normal (time)'
p1326
F150.35061000000132
sa(dp1327
S'dicairano (time)'
p1328
F150.26697199999762
sg4
g61
sS'acary (time)'
p1329
F149.05943399999524
sS'ghadimi (time)'
p1330
F148.72086399999534
sg8
g1285
sS'normal (time)'
p1331
F150.63162300000113
sa(dp1332
S'dicairano (time)'
p1333
F154.09444300000177
sg4
g67
sS'acary (time)'
p1334
F154.3286150000058
sS'ghadimi (time)'
p1335
F154.1962829999975
sg8
g1285
sS'normal (time)'
p1336
F154.0702569999994
sa(dp1337
S'dicairano (time)'
p1338
F150.13396400000056
sg4
g73
sS'acary (time)'
p1339
F149.12723499999993
sS'ghadimi (time)'
p1340
F149.40958300000057
sg8
g1285
sS'normal (time)'
p1341
F150.63529800000106
saa(lp1342
(dp1343
S'dicairano (time)'
p1344
F77.81915100000333
sg4
g5
sS'acary (time)'
p1345
F75.0843160000004
sS'ghadimi (time)'
p1346
F74.57925600000453
sg8
S'Box_Stacks-i0228-642-44.hdf5'
p1347
sS'normal (time)'
p1348
F78.54544000000169
sa(dp1349
S'dicairano (time)'
p1350
F81.60995299999922
sg4
g13
sS'acary (time)'
p1351
F81.06453699999838
sS'ghadimi (time)'
p1352
F79.62807299999986
sg8
g1347
sS'normal (time)'
p1353
F81.69421700000385
sa(dp1354
S'dicairano (time)'
p1355
F77.55642400000215
sg4
g19
sS'acary (time)'
p1356
F74.98203600000124
sS'ghadimi (time)'
p1357
F74.77228599999944
sg8
g1347
sS'normal (time)'
p1358
F77.95702799999708
sa(dp1359
S'dicairano (time)'
p1360
F148.74864399999933
sg4
g25
sS'acary (time)'
p1361
F148.38401200000226
sS'ghadimi (time)'
p1362
F147.24582199999713
sg8
g1347
sS'normal (time)'
p1363
F149.35614999999962
sa(dp1364
S'dicairano (time)'
p1365
F152.73455800000374
sg4
g31
sS'acary (time)'
p1366
F152.77558500000305
sS'ghadimi (time)'
p1367
F152.7735459999967
sg8
g1347
sS'normal (time)'
p1368
F152.48658500000602
sa(dp1369
S'dicairano (time)'
p1370
F148.5729779999965
sg4
g37
sS'acary (time)'
p1371
F148.9983959999954
sS'ghadimi (time)'
p1372
F147.44373199999973
sg8
g1347
sS'normal (time)'
p1373
F149.06072900000436
sa(dp1374
S'dicairano (time)'
p1375
F149.7147180000029
sg4
g43
sS'acary (time)'
p1376
F147.10071600000083
sS'ghadimi (time)'
p1377
F148.3539579999997
sg8
g1347
sS'normal (time)'
p1378
F150.38227500000357
sa(dp1379
S'dicairano (time)'
p1380
F145.5203509999992
sg4
g49
sS'acary (time)'
p1381
F146.2559790000014
sS'ghadimi (time)'
p1382
F146.34094899999764
sg8
g1347
sS'normal (time)'
p1383
F153.47364399999788
sa(dp1384
S'dicairano (time)'
p1385
F147.74001800000406
sg4
g55
sS'acary (time)'
p1386
F147.22327599999699
sS'ghadimi (time)'
p1387
F147.06303900000057
sg8
g1347
sS'normal (time)'
p1388
F150.25871399999596
sa(dp1389
S'dicairano (time)'
p1390
F150.10535700000037
sg4
g61
sS'acary (time)'
p1391
F149.0156599999973
sS'ghadimi (time)'
p1392
F148.68526399999973
sg8
g1347
sS'normal (time)'
p1393
F150.47551699999894
sa(dp1394
S'dicairano (time)'
p1395
F154.11892299999454
sg4
g67
sS'acary (time)'
p1396
F154.24293100000068
sS'ghadimi (time)'
p1397
F154.2361000000019
sg8
g1347
sS'normal (time)'
p1398
F153.92083699999785
sa(dp1399
S'dicairano (time)'
p1400
F150.1192080000037
sg4
g73
sS'acary (time)'
p1401
F149.04547900000034
sS'ghadimi (time)'
p1402
F149.06086000000505
sg8
g1347
sS'normal (time)'
p1403
F150.44140500000503
saa(lp1404
(dp1405
S'dicairano (time)'
p1406
F77.59854800000176
sg4
g5
sS'acary (time)'
p1407
F74.90061299999797
sS'ghadimi (time)'
p1408
F74.42524099999719
sg8
S'Box_Stacks-i0245-642-43.hdf5'
p1409
sS'normal (time)'
p1410
F78.30945200000133
sa(dp1411
S'dicairano (time)'
p1412
F81.38059200000134
sg4
g13
sS'acary (time)'
p1413
F80.9752010000011
sS'ghadimi (time)'
p1414
F79.57421700000123
sg8
g1409
sS'normal (time)'
p1415
F81.56766299999435
sa(dp1416
S'dicairano (time)'
p1417
F77.43579099999624
sg4
g19
sS'acary (time)'
p1418
F75.0063300000038
sS'ghadimi (time)'
p1419
F74.75849700000254
sg8
g1409
sS'normal (time)'
p1420
F77.93415000000095
sa(dp1421
S'dicairano (time)'
p1422
F148.83400599999004
sg4
g25
sS'acary (time)'
p1423
F148.58507099999406
sS'ghadimi (time)'
p1424
F147.3507549999922
sg8
g1409
sS'normal (time)'
p1425
F149.47677599999588
sa(dp1426
S'dicairano (time)'
p1427
F152.54532699999982
sg4
g31
sS'acary (time)'
p1428
F152.8899289999972
sS'ghadimi (time)'
p1429
F153.2007239999948
sg8
g1409
sS'normal (time)'
p1430
F152.83988699999463
sa(dp1431
S'dicairano (time)'
p1432
F148.65192400000524
sg4
g37
sS'acary (time)'
p1433
F149.01693699999305
sS'ghadimi (time)'
p1434
F147.59007899998687
sg8
g1409
sS'normal (time)'
p1435
F149.1081770000019
sa(dp1436
S'dicairano (time)'
p1437
F149.95409699999436
sg4
g43
sS'acary (time)'
p1438
F147.2933919999923
sS'ghadimi (time)'
p1439
F148.45477199999732
sg8
g1409
sS'normal (time)'
p1440
F150.49933299999975
sa(dp1441
S'dicairano (time)'
p1442
F145.38825099999667
sg4
g49
sS'acary (time)'
p1443
F146.38092699999106
sS'ghadimi (time)'
p1444
F146.4271449999942
sg8
g1409
sS'normal (time)'
p1445
F145.6593040000007
sa(dp1446
S'dicairano (time)'
p1447
F147.64951100001053
sg4
g55
sS'acary (time)'
p1448
F147.33901999999944
sS'ghadimi (time)'
p1449
F147.07713700000022
sg8
g1409
sS'normal (time)'
p1450
F150.23418700000911
sa(dp1451
S'dicairano (time)'
p1452
F150.09064800001215
sg4
g61
sS'acary (time)'
p1453
F148.87730700000247
sS'ghadimi (time)'
p1454
F148.61921300001268
sg8
g1409
sS'normal (time)'
p1455
F150.4150789999985
sa(dp1456
S'dicairano (time)'
p1457
F154.0138059999881
sg4
g67
sS'acary (time)'
p1458
F154.2891479999962
sS'ghadimi (time)'
p1459
F154.18584599999303
sg8
g1409
sS'normal (time)'
p1460
F153.97839699999895
sa(dp1461
S'dicairano (time)'
p1462
F149.99517199999536
sg4
g73
sS'acary (time)'
p1463
F149.02950999999302
sS'ghadimi (time)'
p1464
F149.12265400000615
sg8
g1409
sS'normal (time)'
p1465
F150.45312700000068
saa(lp1466
(dp1467
S'dicairano (time)'
p1468
F77.6590819999983
sg4
g5
sS'acary (time)'
p1469
F74.95527299999958
sS'ghadimi (time)'
p1470
F74.40307699999539
sg8
S'Box_Stacks-i0255-642-42.hdf5'
p1471
sS'normal (time)'
p1472
F78.3426199999958
sa(dp1473
S'dicairano (time)'
p1474
F80.95494199999666
sg4
g13
sS'acary (time)'
p1475
F80.97751399999834
sS'ghadimi (time)'
p1476
F79.59135000000242
sg8
g1471
sS'normal (time)'
p1477
F81.4373370000103
sa(dp1478
S'dicairano (time)'
p1479
F77.54739500000142
sg4
g19
sS'acary (time)'
p1480
F75.04817399999592
sS'ghadimi (time)'
p1481
F74.82792799999879
sg8
g1471
sS'normal (time)'
p1482
F77.92798900000344
sa(dp1483
S'dicairano (time)'
p1484
F148.78163300000597
sg4
g25
sS'acary (time)'
p1485
F148.538321
sS'ghadimi (time)'
p1486
F147.39078599998902
sg8
g1471
sS'normal (time)'
p1487
F149.58461299999908
sa(dp1488
S'dicairano (time)'
p1489
F152.1201860000001
sg4
g31
sS'acary (time)'
p1490
F152.8213880000112
sS'ghadimi (time)'
p1491
F153.0478099999891
sg8
g1471
sS'normal (time)'
p1492
F152.55880299999262
sa(dp1493
S'dicairano (time)'
p1494
F148.6622090000019
sg4
g37
sS'acary (time)'
p1495
F149.0667989999929
sS'ghadimi (time)'
p1496
F147.6858280000015
sg8
g1471
sS'normal (time)'
p1497
F149.1103379999986
sa(dp1498
S'dicairano (time)'
p1499
F149.83250400000543
sg4
g43
sS'acary (time)'
p1500
F147.21968399999605
sS'ghadimi (time)'
p1501
F148.4339489999984
sg8
g1471
sS'normal (time)'
p1502
F150.47544599999674
sa(dp1503
S'dicairano (time)'
p1504
F145.60514500000863
sg4
g49
sS'acary (time)'
p1505
F146.4436330000026
sS'ghadimi (time)'
p1506
F146.41797999999835
sg8
g1471
sS'normal (time)'
p1507
F145.81942099999287
sa(dp1508
S'dicairano (time)'
p1509
F147.7427689999895
sg4
g55
sS'acary (time)'
p1510
F147.2254580000008
sS'ghadimi (time)'
p1511
F147.15502500000002
sg8
g1471
sS'normal (time)'
p1512
F150.19797500000277
sa(dp1513
S'dicairano (time)'
p1514
F150.14458900000318
sg4
g61
sS'acary (time)'
p1515
F148.90291599999182
sS'ghadimi (time)'
p1516
F148.7053559999913
sg8
g1471
sS'normal (time)'
p1517
F150.54452100000344
sa(dp1518
S'dicairano (time)'
p1519
F153.65700500000094
sg4
g67
sS'acary (time)'
p1520
F154.3436159999983
sS'ghadimi (time)'
p1521
F155.88008299999638
sg8
g1471
sS'normal (time)'
p1522
F160.3254239999951
sa(dp1523
S'dicairano (time)'
p1524
F149.93282099999487
sg4
g73
sS'acary (time)'
p1525
F148.9326080000028
sS'ghadimi (time)'
p1526
F148.93697900000552
sg8
g1471
sS'normal (time)'
p1527
F150.52944399999978
saa(lp1528
(dp1529
S'dicairano (time)'
p1530
F77.60067499999423
sg4
g5
sS'acary (time)'
p1531
F74.89220099999511
sS'ghadimi (time)'
p1532
F74.46597699999984
sg8
S'Box_Stacks-i0259-642-41.hdf5'
p1533
sS'normal (time)'
p1534
F78.34596999999485
sa(dp1535
S'dicairano (time)'
p1536
F81.49184799999057
sg4
g13
sS'acary (time)'
p1537
F81.0937760000088
sS'ghadimi (time)'
p1538
F79.77627699999721
sg8
g1533
sS'normal (time)'
p1539
F81.56395799999882
sa(dp1540
S'dicairano (time)'
p1541
F77.60387000000628
sg4
g19
sS'acary (time)'
p1542
F74.9260890000005
sS'ghadimi (time)'
p1543
F74.89635999999882
sg8
g1533
sS'normal (time)'
p1544
F77.9408540000004
sa(dp1545
S'dicairano (time)'
p1546
F148.71448999999848
sg4
g25
sS'acary (time)'
p1547
F148.49033699999563
sS'ghadimi (time)'
p1548
F147.2606400000077
sg8
g1533
sS'normal (time)'
p1549
F149.36125000000175
sa(dp1550
S'dicairano (time)'
p1551
F152.54624799999874
sg4
g31
sS'acary (time)'
p1552
F152.87978599999042
sS'ghadimi (time)'
p1553
F152.9810460000008
sg8
g1533
sS'normal (time)'
p1554
F152.67503500000748
sa(dp1555
S'dicairano (time)'
p1556
F148.4933740000124
sg4
g37
sS'acary (time)'
p1557
F149.02075999999943
sS'ghadimi (time)'
p1558
F147.5177340000082
sg8
g1533
sS'normal (time)'
p1559
F148.99638300000515
sa(dp1560
S'dicairano (time)'
p1561
F149.8325029999978
sg4
g43
sS'acary (time)'
p1562
F147.10756299999775
sS'ghadimi (time)'
p1563
F148.44367700000294
sg8
g1533
sS'normal (time)'
p1564
F150.43227300001308
sa(dp1565
S'dicairano (time)'
p1566
F145.41745100000117
sg4
g49
sS'acary (time)'
p1567
F146.17271499999333
sS'ghadimi (time)'
p1568
F146.46555300000182
sg8
g1533
sS'normal (time)'
p1569
F145.4194850000058
sa(dp1570
S'dicairano (time)'
p1571
F147.61014400000568
sg4
g55
sS'acary (time)'
p1572
F147.1926370000001
sS'ghadimi (time)'
p1573
F146.92900299999746
sg8
g1533
sS'normal (time)'
p1574
F149.8946319999959
sa(dp1575
S'dicairano (time)'
p1576
F150.1312920000055
sg4
g61
sS'acary (time)'
p1577
F148.72339600000123
sS'ghadimi (time)'
p1578
F148.52655100000266
sg8
g1533
sS'normal (time)'
p1579
F150.30244700000912
sa(dp1580
S'dicairano (time)'
p1581
F153.7465239999874
sg4
g67
sS'acary (time)'
p1582
F154.27463700000953
sS'ghadimi (time)'
p1583
F154.14410000000498
sg8
g1533
sS'normal (time)'
p1584
F153.9684419999976
sa(dp1585
S'dicairano (time)'
p1586
F149.8662059999915
sg4
g73
sS'acary (time)'
p1587
F148.8590780000086
sS'ghadimi (time)'
p1588
F149.09966300000087
sg8
g1533
sS'normal (time)'
p1589
F150.30707000000984
saa(lp1590
(dp1591
S'dicairano (time)'
p1592
F77.21309499999916
sg4
g5
sS'acary (time)'
p1593
F74.50371200000518
sS'ghadimi (time)'
p1594
F74.04031599999871
sg8
S'Box_Stacks-i0295-637-34.hdf5'
p1595
sS'normal (time)'
p1596
F77.41320899999118
sa(dp1597
S'dicairano (time)'
p1598
F81.13195100000303
sg4
g13
sS'acary (time)'
p1599
F80.49992899999779
sS'ghadimi (time)'
p1600
F79.03572200000053
sg8
g1595
sS'normal (time)'
p1601
F80.99902499999735
sa(dp1602
S'dicairano (time)'
p1603
F77.24480600000243
sg4
g19
sS'acary (time)'
p1604
F74.62010600000212
sS'ghadimi (time)'
p1605
F74.34323700000823
sg8
g1595
sS'normal (time)'
p1606
F77.84040099999402
sa(dp1607
S'dicairano (time)'
p1608
F147.9771560000081
sg4
g25
sS'acary (time)'
p1609
F147.63204899999255
sS'ghadimi (time)'
p1610
F146.54912599999807
sg8
g1595
sS'normal (time)'
p1611
F148.06943099999626
sa(dp1612
S'dicairano (time)'
p1613
F151.78108100000827
sg4
g31
sS'acary (time)'
p1614
F151.8703119999991
sS'ghadimi (time)'
p1615
F151.86641500001133
sg8
g1595
sS'normal (time)'
p1616
F151.65830899999128
sa(dp1617
S'dicairano (time)'
p1618
F147.95532500000263
sg4
g37
sS'acary (time)'
p1619
F148.0319329999911
sS'ghadimi (time)'
p1620
F146.69428399999742
sg8
g1595
sS'normal (time)'
p1621
F148.55041099998925
sa(dp1622
S'dicairano (time)'
p1623
F148.9851539999945
sg4
g43
sS'acary (time)'
p1624
F146.3764200000005
sS'ghadimi (time)'
p1625
F147.9182440000004
sg8
g1595
sS'normal (time)'
p1626
F149.38657600000442
sa(dp1627
S'dicairano (time)'
p1628
F144.91050199999881
sg4
g49
sS'acary (time)'
p1629
F145.0702170000004
sS'ghadimi (time)'
p1630
F145.77105599999777
sg8
g1595
sS'normal (time)'
p1631
F144.68259500000568
sa(dp1632
S'dicairano (time)'
p1633
F149.06922900000063
sg4
g55
sS'acary (time)'
p1634
F146.4919179999997
sS'ghadimi (time)'
p1635
F147.724212000001
sg8
g1595
sS'normal (time)'
p1636
F148.28793200000655
sa(dp1637
S'dicairano (time)'
p1638
F149.37377900000138
sg4
g61
sS'acary (time)'
p1639
F147.95327500000712
sS'ghadimi (time)'
p1640
F147.77397599999676
sg8
g1595
sS'normal (time)'
p1641
F149.9898569999932
sa(dp1642
S'dicairano (time)'
p1643
F153.2282450000057
sg4
g67
sS'acary (time)'
p1644
F153.27116899999965
sS'ghadimi (time)'
p1645
F153.57619700000214
sg8
g1595
sS'normal (time)'
p1646
F153.11647600001015
sa(dp1647
S'dicairano (time)'
p1648
F149.38154499999655
sg4
g73
sS'acary (time)'
p1649
F148.51161000000138
sS'ghadimi (time)'
p1650
F148.3921560000017
sg8
g1595
sS'normal (time)'
p1651
F149.98315600000205
saa(lp1652
(dp1653
S'dicairano (time)'
p1654
F77.08460899999773
sg4
g5
sS'acary (time)'
p1655
F74.51286000000255
sS'ghadimi (time)'
p1656
F73.97142800000438
sg8
S'Box_Stacks-i0314-636-29.hdf5'
p1657
sS'normal (time)'
p1658
F77.48134800000116
sa(dp1659
S'dicairano (time)'
p1660
F80.97469999999157
sg4
g13
sS'acary (time)'
p1661
F80.67432599999302
sS'ghadimi (time)'
p1662
F79.21570699999575
sg8
g1657
sS'normal (time)'
p1663
F80.88352499999746
sa(dp1664
S'dicairano (time)'
p1665
F77.13171599998896
sg4
g19
sS'acary (time)'
p1666
F74.72359200000938
sS'ghadimi (time)'
p1667
F74.37188500000047
sg8
g1657
sS'normal (time)'
p1668
F77.6040270000085
sa(dp1669
S'dicairano (time)'
p1670
F147.86492900000303
sg4
g25
sS'acary (time)'
p1671
F156.06136799999513
sS'ghadimi (time)'
p1672
F146.50621600000886
sg8
g1657
sS'normal (time)'
p1673
F148.1020489999937
sa(dp1674
S'dicairano (time)'
p1675
F151.6289800000086
sg4
g31
sS'acary (time)'
p1676
F152.18184200000542
sS'ghadimi (time)'
p1677
F151.9216890000098
sg8
g1657
sS'normal (time)'
p1678
F151.53921199998877
sa(dp1679
S'dicairano (time)'
p1680
F147.7974460000114
sg4
g37
sS'acary (time)'
p1681
F147.70010900001216
sS'ghadimi (time)'
p1682
F146.64430699999502
sg8
g1657
sS'normal (time)'
p1683
F148.25576899999578
sa(dp1684
S'dicairano (time)'
p1685
F148.96294500000658
sg4
g43
sS'acary (time)'
p1686
F146.22375800000736
sS'ghadimi (time)'
p1687
F147.02351299999282
sg8
g1657
sS'normal (time)'
p1688
F149.2836590000079
sa(dp1689
S'dicairano (time)'
p1690
F144.6838540000026
sg4
g49
sS'acary (time)'
p1691
F145.3386290000053
sS'ghadimi (time)'
p1692
F145.4895419999957
sg8
g1657
sS'normal (time)'
p1693
F144.6117099999974
sa(dp1694
S'dicairano (time)'
p1695
F148.70764199999394
sg4
g55
sS'acary (time)'
p1696
F146.44803800000227
sS'ghadimi (time)'
p1697
F146.469809000002
sg8
g1657
sS'normal (time)'
p1698
F149.67907600000035
sa(dp1699
S'dicairano (time)'
p1700
F149.0862000000052
sg4
g61
sS'acary (time)'
p1701
F147.8996349999943
sS'ghadimi (time)'
p1702
F147.7472279999929
sg8
g1657
sS'normal (time)'
p1703
F149.87767799998983
sa(dp1704
S'dicairano (time)'
p1705
F152.9105750000017
sg4
g67
sS'acary (time)'
p1706
F153.168995
sS'ghadimi (time)'
p1707
F152.97332499999902
sg8
g1657
sS'normal (time)'
p1708
F152.90824400000565
sa(dp1709
S'dicairano (time)'
p1710
F149.167849999998
sg4
g73
sS'acary (time)'
p1711
F148.126019000003
sS'ghadimi (time)'
p1712
F148.23319600000104
sg8
g1657
sS'normal (time)'
p1713
F149.95326700000442
saa(lp1714
(dp1715
S'dicairano (time)'
p1716
F78.30651299998863
sg4
g5
sS'acary (time)'
p1717
F74.85132099999464
sS'ghadimi (time)'
p1718
F73.93957999999111
sg8
S'Box_Stacks-i0315-637-33.hdf5'
p1719
sS'normal (time)'
p1720
F77.31236899999203
sa(dp1721
S'dicairano (time)'
p1722
F81.20112899999367
sg4
g13
sS'acary (time)'
p1723
F80.64898299999186
sS'ghadimi (time)'
p1724
F79.38841900000989
sg8
g1719
sS'normal (time)'
p1725
F81.06123500000103
sa(dp1726
S'dicairano (time)'
p1727
F77.35846499999752
sg4
g19
sS'acary (time)'
p1728
F74.88554899999872
sS'ghadimi (time)'
p1729
F74.5825060000061
sg8
g1719
sS'normal (time)'
p1730
F77.94953900000837
sa(dp1731
S'dicairano (time)'
p1732
F148.91548599999805
sg4
g25
sS'acary (time)'
p1733
F148.0808260000049
sS'ghadimi (time)'
p1734
F146.82241200000863
sg8
g1719
sS'normal (time)'
p1735
F148.42364900000393
sa(dp1736
S'dicairano (time)'
p1737
F152.19449900000473
sg4
g31
sS'acary (time)'
p1738
F152.26140899999882
sS'ghadimi (time)'
p1739
F152.08961699999054
sg8
g1719
sS'normal (time)'
p1740
F151.94171800000186
sa(dp1741
S'dicairano (time)'
p1742
F148.2002569999895
sg4
g37
sS'acary (time)'
p1743
F148.09411499999987
sS'ghadimi (time)'
p1744
F147.11643999999797
sg8
g1719
sS'normal (time)'
p1745
F148.85924999999406
sa(dp1746
S'dicairano (time)'
p1747
F150.06578900000022
sg4
g43
sS'acary (time)'
p1748
F146.67462600000727
sS'ghadimi (time)'
p1749
F148.06690900000103
sg8
g1719
sS'normal (time)'
p1750
F149.6035150000098
sa(dp1751
S'dicairano (time)'
p1752
F144.86528800000087
sg4
g49
sS'acary (time)'
p1753
F145.53194200000144
sS'ghadimi (time)'
p1754
F145.8558720000001
sg8
g1719
sS'normal (time)'
p1755
F144.87076800000796
sa(dp1756
S'dicairano (time)'
p1757
F149.39693999999145
sg4
g55
sS'acary (time)'
p1758
F146.90501400000358
sS'ghadimi (time)'
p1759
F147.05752399998892
sg8
g1719
sS'normal (time)'
p1760
F149.93515900000057
sa(dp1761
S'dicairano (time)'
p1762
F150.2919050000055
sg4
g61
sS'acary (time)'
p1763
F148.29863200000545
sS'ghadimi (time)'
p1764
F148.22406599999522
sg8
g1719
sS'normal (time)'
p1765
F150.37244500000088
sa(dp1766
S'dicairano (time)'
p1767
F153.5540059999912
sg4
g67
sS'acary (time)'
p1768
F153.4269639999984
sS'ghadimi (time)'
p1769
F153.40565999998944
sg8
g1719
sS'normal (time)'
p1770
F153.34584000000905
sa(dp1771
S'dicairano (time)'
p1772
F149.5877760000003
sg4
g73
sS'acary (time)'
p1773
F148.49817500000063
sS'ghadimi (time)'
p1774
F148.56107499999052
sg8
g1719
sS'normal (time)'
p1775
F150.25946600000316
saa(lp1776
(dp1777
S'dicairano (time)'
p1778
F77.92001499999606
sg4
g5
sS'acary (time)'
p1779
F75.14779400000407
sS'ghadimi (time)'
p1780
F74.67673600000853
sg8
S'Box_Stacks-i0317-642-40.hdf5'
p1781
sS'normal (time)'
p1782
F78.51773900000262
sa(dp1783
S'dicairano (time)'
p1784
F81.73548899999878
sg4
g13
sS'acary (time)'
p1785
F81.16553199999908
sS'ghadimi (time)'
p1786
F79.72754599999462
sg8
g1781
sS'normal (time)'
p1787
F81.69711799999641
sa(dp1788
S'dicairano (time)'
p1789
F77.77415699999256
sg4
g19
sS'acary (time)'
p1790
F75.15831300000718
sS'ghadimi (time)'
p1791
F74.94597200000135
sg8
g1781
sS'normal (time)'
p1792
F78.14760900000692
sa(dp1793
S'dicairano (time)'
p1794
F149.09472500000265
sg4
g25
sS'acary (time)'
p1795
F149.0424950000015
sS'ghadimi (time)'
p1796
F147.55420899999444
sg8
g1781
sS'normal (time)'
p1797
F149.87252100001206
sa(dp1798
S'dicairano (time)'
p1799
F152.9113010000001
sg4
g31
sS'acary (time)'
p1800
F153.136056000003
sS'ghadimi (time)'
p1801
F153.26698299999407
sg8
g1781
sS'normal (time)'
p1802
F152.90878900000826
sa(dp1803
S'dicairano (time)'
p1804
F148.9917620000051
sg4
g37
sS'acary (time)'
p1805
F149.2048780000041
sS'ghadimi (time)'
p1806
F147.92899200000102
sg8
g1781
sS'normal (time)'
p1807
F157.76136400000541
sa(dp1808
S'dicairano (time)'
p1809
F150.09860599999956
sg4
g43
sS'acary (time)'
p1810
F147.42333299999882
sS'ghadimi (time)'
p1811
F148.7600630000088
sg8
g1781
sS'normal (time)'
p1812
F150.75569499999983
sa(dp1813
S'dicairano (time)'
p1814
F146.2450009999884
sg4
g49
sS'acary (time)'
p1815
F147.12365599999612
sS'ghadimi (time)'
p1816
F147.02080900000874
sg8
g1781
sS'normal (time)'
p1817
F146.13125000000582
sa(dp1818
S'dicairano (time)'
p1819
F148.42029699998966
sg4
g55
sS'acary (time)'
p1820
F148.08333400000993
sS'ghadimi (time)'
p1821
F147.92783100000815
sg8
g1781
sS'normal (time)'
p1822
F150.9378069999948
sa(dp1823
S'dicairano (time)'
p1824
F150.79050400000415
sg4
g61
sS'acary (time)'
p1825
F149.65074399999867
sS'ghadimi (time)'
p1826
F149.40120199999365
sg8
g1781
sS'normal (time)'
p1827
F151.2234899999894
sa(dp1828
S'dicairano (time)'
p1829
F154.91526499998872
sg4
g67
sS'acary (time)'
p1830
F155.23932400000922
sS'ghadimi (time)'
p1831
F154.89651600000798
sg8
g1781
sS'normal (time)'
p1832
F155.03851199999917
sa(dp1833
S'dicairano (time)'
p1834
F150.87820900000224
sg4
g73
sS'acary (time)'
p1835
F149.87406299999566
sS'ghadimi (time)'
p1836
F149.92958899999212
sg8
g1781
sS'normal (time)'
p1837
F151.34007099999872
saa(lp1838
(dp1839
S'dicairano (time)'
p1840
F78.43024100000912
sg4
g5
sS'acary (time)'
p1841
F75.13788400001067
sS'ghadimi (time)'
p1842
F74.48114800000621
sg8
S'Box_Stacks-i0438-637-32.hdf5'
p1843
sS'normal (time)'
p1844
F77.85896300000604
sa(dp1845
S'dicairano (time)'
p1846
F81.491320000001
sg4
g13
sS'acary (time)'
p1847
F81.28074500001094
sS'ghadimi (time)'
p1848
F79.90036400000099
sg8
g1843
sS'normal (time)'
p1849
F81.48809500000789
sa(dp1850
S'dicairano (time)'
p1851
F77.66507299999648
sg4
g19
sS'acary (time)'
p1852
F75.26885500000208
sS'ghadimi (time)'
p1853
F74.85997799999313
sg8
g1843
sS'normal (time)'
p1854
F78.30731800000649
sa(dp1855
S'dicairano (time)'
p1856
F149.52330999998958
sg4
g25
sS'acary (time)'
p1857
F148.42392099999415
sS'ghadimi (time)'
p1858
F147.41666099999566
sg8
g1843
sS'normal (time)'
p1859
F148.90592599999218
sa(dp1860
S'dicairano (time)'
p1861
F152.6540490000043
sg4
g31
sS'acary (time)'
p1862
F152.81789299999946
sS'ghadimi (time)'
p1863
F152.95271599999978
sg8
g1843
sS'normal (time)'
p1864
F152.49744799999462
sa(dp1865
S'dicairano (time)'
p1866
F148.83577499999956
sg4
g37
sS'acary (time)'
p1867
F148.70206899999175
sS'ghadimi (time)'
p1868
F147.52203500000178
sg8
g1843
sS'normal (time)'
p1869
F149.31777700000384
sa(dp1870
S'dicairano (time)'
p1871
F150.48850500000117
sg4
g43
sS'acary (time)'
p1872
F147.19116800000484
sS'ghadimi (time)'
p1873
F148.4124940000038
sg8
g1843
sS'normal (time)'
p1874
F150.00153199999477
sa(dp1875
S'dicairano (time)'
p1876
F145.43568499998946
sg4
g49
sS'acary (time)'
p1877
F145.76192099999753
sS'ghadimi (time)'
p1878
F146.57685199999833
sg8
g1843
sS'normal (time)'
p1879
F145.3087610000075
sa(dp1880
S'dicairano (time)'
p1881
F149.94303599999694
sg4
g55
sS'acary (time)'
p1882
F147.28750700000091
sS'ghadimi (time)'
p1883
F146.83396899999934
sg8
g1843
sS'normal (time)'
p1884
F149.57841299999563
sa(dp1885
S'dicairano (time)'
p1886
F150.64925999999105
sg4
g61
sS'acary (time)'
p1887
F148.69482199999038
sS'ghadimi (time)'
p1888
F148.53009500000917
sg8
g1843
sS'normal (time)'
p1889
F150.70952299999772
sa(dp1890
S'dicairano (time)'
p1891
F153.6227179999987
sg4
g67
sS'acary (time)'
p1892
F154.10076200000185
sS'ghadimi (time)'
p1893
F154.14850599999772
sg8
g1843
sS'normal (time)'
p1894
F153.69374299999618
sa(dp1895
S'dicairano (time)'
p1896
F149.94926799999666
sg4
g73
sS'acary (time)'
p1897
F148.79936499999894
sS'ghadimi (time)'
p1898
F148.79386999999406
sg8
g1843
sS'normal (time)'
p1899
F150.57362500000454
saa(lp1900
(dp1901
S'dicairano (time)'
p1902
F77.46369299999787
sg4
g5
sS'acary (time)'
p1903
F74.90103999999701
sS'ghadimi (time)'
p1904
F74.40727599999809
sg8
S'Box_Stacks-i0444-635-24.hdf5'
p1905
sS'normal (time)'
p1906
F77.61981600000581
sa(dp1907
S'dicairano (time)'
p1908
F80.90936799999326
sg4
g13
sS'acary (time)'
p1909
F80.60674199998903
sS'ghadimi (time)'
p1910
F79.1907280000014
sg8
g1905
sS'normal (time)'
p1911
F80.76637599999958
sa(dp1912
S'dicairano (time)'
p1913
F77.08307700000296
sg4
g19
sS'acary (time)'
p1914
F74.46211800001038
sS'ghadimi (time)'
p1915
F74.26339700000244
sg8
g1905
sS'normal (time)'
p1916
F77.39172099999269
sa(dp1917
S'dicairano (time)'
p1918
F147.89004800000112
sg4
g25
sS'acary (time)'
p1919
F147.69198299999698
sS'ghadimi (time)'
p1920
F146.46592099999543
sg8
g1905
sS'normal (time)'
p1921
F148.16062800001237
sa(dp1922
S'dicairano (time)'
p1923
F151.4871220000059
sg4
g31
sS'acary (time)'
p1924
F151.83449599999585
sS'ghadimi (time)'
p1925
F152.1472450000001
sg8
g1905
sS'normal (time)'
p1926
F151.57000200000766
sa(dp1927
S'dicairano (time)'
p1928
F147.85616399999708
sg4
g37
sS'acary (time)'
p1929
F147.90463999999338
sS'ghadimi (time)'
p1930
F146.7100599999976
sg8
g1905
sS'normal (time)'
p1931
F148.35234100000525
sa(dp1932
S'dicairano (time)'
p1933
F149.49143500000355
sg4
g43
sS'acary (time)'
p1934
F147.97910900000716
sS'ghadimi (time)'
p1935
F147.91512400000647
sg8
g1905
sS'normal (time)'
p1936
F149.6850800000102
sa(dp1937
S'dicairano (time)'
p1938
F145.1181179999985
sg4
g49
sS'acary (time)'
p1939
F147.04518000000098
sS'ghadimi (time)'
p1940
F149.29529799999727
sg8
g1905
sS'normal (time)'
p1941
F145.08123999999953
sa(dp1942
S'dicairano (time)'
p1943
F147.48673899999994
sg4
g55
sS'acary (time)'
p1944
F147.0340770000039
sS'ghadimi (time)'
p1945
F146.74673600000096
sg8
g1905
sS'normal (time)'
p1946
F156.42042799999763
sa(dp1947
S'dicairano (time)'
p1948
F149.34061400000064
sg4
g61
sS'acary (time)'
p1949
F148.10558499999752
sS'ghadimi (time)'
p1950
F147.88094700001238
sg8
g1905
sS'normal (time)'
p1951
F149.99889299999631
sa(dp1952
S'dicairano (time)'
p1953
F152.87089500000002
sg4
g67
sS'acary (time)'
p1954
F153.27881499999785
sS'ghadimi (time)'
p1955
F153.24750800000038
sg8
g1905
sS'normal (time)'
p1956
F152.95929199999955
sa(dp1957
S'dicairano (time)'
p1958
F149.292775000009
sg4
g73
sS'acary (time)'
p1959
F148.32904300000519
sS'ghadimi (time)'
p1960
F148.301655999996
sg8
g1905
sS'normal (time)'
p1961
F149.93104599999788
saa(lp1962
(dp1963
S'dicairano (time)'
p1964
F77.24898899999971
sg4
g5
sS'acary (time)'
p1965
F74.47742900000594
sS'ghadimi (time)'
p1966
F74.0007190000033
sg8
S'Box_Stacks-i0455-635-22.hdf5'
p1967
sS'normal (time)'
p1968
F77.49939799999993
sa(dp1969
S'dicairano (time)'
p1970
F80.80417099999613
sg4
g13
sS'acary (time)'
p1971
F80.61371199999121
sS'ghadimi (time)'
p1972
F79.12431899999501
sg8
g1967
sS'normal (time)'
p1973
F80.79792799999996
sa(dp1974
S'dicairano (time)'
p1975
F77.03522800000792
sg4
g19
sS'acary (time)'
p1976
F74.6096050000051
sS'ghadimi (time)'
p1977
F74.34295500000007
sg8
g1967
sS'normal (time)'
p1978
F77.59755000000587
sa(dp1979
S'dicairano (time)'
p1980
F148.203542999996
sg4
g25
sS'acary (time)'
p1981
F148.07615800001076
sS'ghadimi (time)'
p1982
F146.71082500000193
sg8
g1967
sS'normal (time)'
p1983
F148.39994799999113
sa(dp1984
S'dicairano (time)'
p1985
F151.67583100000047
sg4
g31
sS'acary (time)'
p1986
F152.10509000001184
sS'ghadimi (time)'
p1987
F152.1526989999984
sg8
g1967
sS'normal (time)'
p1988
F151.73949300000095
sa(dp1989
S'dicairano (time)'
p1990
F147.95824800000992
sg4
g37
sS'acary (time)'
p1991
F147.86905399999523
sS'ghadimi (time)'
p1992
F146.9337450000021
sg8
g1967
sS'normal (time)'
p1993
F148.48643400000583
sa(dp1994
S'dicairano (time)'
p1995
F149.33149200001208
sg4
g43
sS'acary (time)'
p1996
F146.5363650000072
sS'ghadimi (time)'
p1997
F147.7959370000026
sg8
g1967
sS'normal (time)'
p1998
F149.54300700000022
sa(dp1999
S'dicairano (time)'
p2000
F144.97944000001007
sg4
g49
sS'acary (time)'
p2001
F145.41356899999664
sS'ghadimi (time)'
p2002
F146.03500599999097
sg8
g1967
sS'normal (time)'
p2003
F144.74542799999472
sa(dp2004
S'dicairano (time)'
p2005
F149.1995520000055
sg4
g55
sS'acary (time)'
p2006
F146.7543139999907
sS'ghadimi (time)'
p2007
F146.33377899999323
sg8
g1967
sS'normal (time)'
p2008
F148.6059729999979
sa(dp2009
S'dicairano (time)'
p2010
F149.39595700000064
sg4
g61
sS'acary (time)'
p2011
F148.1626980000001
sS'ghadimi (time)'
p2012
F147.99691899999743
sg8
g1967
sS'normal (time)'
p2013
F149.68726800000877
sa(dp2014
S'dicairano (time)'
p2015
F152.93986099999165
sg4
g67
sS'acary (time)'
p2016
F153.32980999999563
sS'ghadimi (time)'
p2017
F153.55926199999521
sg8
g1967
sS'normal (time)'
p2018
F152.92664600000717
sa(dp2019
S'dicairano (time)'
p2020
F149.4758839999995
sg4
g73
sS'acary (time)'
p2021
F148.2803639999911
sS'ghadimi (time)'
p2022
F148.37914900000033
sg8
g1967
sS'normal (time)'
p2023
F150.06616600000416
saa(lp2024
(dp2025
S'dicairano (time)'
p2026
F77.47509000000719
sg4
g5
sS'acary (time)'
p2027
F74.86913799999456
sS'ghadimi (time)'
p2028
F74.31345099999453
sg8
S'Box_Stacks-i0458-635-23.hdf5'
p2029
sS'normal (time)'
p2030
F77.78991700000188
sa(dp2031
S'dicairano (time)'
p2032
F81.29022599999735
sg4
g13
sS'acary (time)'
p2033
F80.96447799999441
sS'ghadimi (time)'
p2034
F79.3698929999955
sg8
g2029
sS'normal (time)'
p2035
F81.0958590000082
sa(dp2036
S'dicairano (time)'
p2037
F77.42155199999979
sg4
g19
sS'acary (time)'
p2038
F74.84674999999697
sS'ghadimi (time)'
p2039
F74.67944799999532
sg8
g2029
sS'normal (time)'
p2040
F77.7566780000052
sa(dp2041
S'dicairano (time)'
p2042
F148.46966800000519
sg4
g25
sS'acary (time)'
p2043
F148.22025500000746
sS'ghadimi (time)'
p2044
F146.9694610000006
sg8
g2029
sS'normal (time)'
p2045
F148.73142900000676
sa(dp2046
S'dicairano (time)'
p2047
F152.22159600000305
sg4
g31
sS'acary (time)'
p2048
F152.42535799999314
sS'ghadimi (time)'
p2049
F152.68305999999575
sg8
g2029
sS'normal (time)'
p2050
F151.97643999999855
sa(dp2051
S'dicairano (time)'
p2052
F148.32416199998988
sg4
g37
sS'acary (time)'
p2053
F148.52655599999707
sS'ghadimi (time)'
p2054
F147.21051800000714
sg8
g2029
sS'normal (time)'
p2055
F148.70061899999564
sa(dp2056
S'dicairano (time)'
p2057
F149.5653459999885
sg4
g43
sS'acary (time)'
p2058
F147.89518899998802
sS'ghadimi (time)'
p2059
F147.9567490000045
sg8
g2029
sS'normal (time)'
p2060
F149.76215700001922
sa(dp2061
S'dicairano (time)'
p2062
F145.15362100000493
sg4
g49
sS'acary (time)'
p2063
F146.53234599999269
sS'ghadimi (time)'
p2064
F147.5288189999992
sg8
g2029
sS'normal (time)'
p2065
F145.11472300000605
sa(dp2066
S'dicairano (time)'
p2067
F149.4623319999955
sg4
g55
sS'acary (time)'
p2068
F147.02982399999746
sS'ghadimi (time)'
p2069
F146.89449199999217
sg8
g2029
sS'normal (time)'
p2070
F149.8112250000122
sa(dp2071
S'dicairano (time)'
p2072
F149.7027620000008
sg4
g61
sS'acary (time)'
p2073
F148.54824000000372
sS'ghadimi (time)'
p2074
F148.28141100000357
sg8
g2029
sS'normal (time)'
p2075
F150.16722400000435
sa(dp2076
S'dicairano (time)'
p2077
F153.57419200000004
sg4
g67
sS'acary (time)'
p2078
F153.64126600002055
sS'ghadimi (time)'
p2079
F153.5160690000048
sg8
g2029
sS'normal (time)'
p2080
F153.3422520000022
sa(dp2081
S'dicairano (time)'
p2082
F149.5812309999892
sg4
g73
sS'acary (time)'
p2083
F148.63213399998494
sS'ghadimi (time)'
p2084
F156.6503729999822
sg8
g2029
sS'normal (time)'
p2085
F149.89430399998673
saa(lp2086
(dp2087
S'dicairano (time)'
p2088
F77.99084499999299
sg4
g5
sS'acary (time)'
p2089
F74.69648600000073
sS'ghadimi (time)'
p2090
F74.18117599998368
sg8
S'Box_Stacks-i0459-637-31.hdf5'
p2091
sS'normal (time)'
p2092
F77.5055810000049
sa(dp2093
S'dicairano (time)'
p2094
F81.33361800000421
sg4
g13
sS'acary (time)'
p2095
F80.73799299998791
sS'ghadimi (time)'
p2096
F79.32785199998762
sg8
g2091
sS'normal (time)'
p2097
F81.16689800002496
sa(dp2098
S'dicairano (time)'
p2099
F77.14960299999802
sg4
g19
sS'acary (time)'
p2100
F74.66402699999162
sS'ghadimi (time)'
p2101
F74.44056699998328
sg8
g2091
sS'normal (time)'
p2102
F77.85859399999026
sa(dp2103
S'dicairano (time)'
p2104
F148.8610580000095
sg4
g25
sS'acary (time)'
p2105
F147.81826299999375
sS'ghadimi (time)'
p2106
F146.80899000001955
sg8
g2091
sS'normal (time)'
p2107
F148.43450800000574
sa(dp2108
S'dicairano (time)'
p2109
F152.01756400000886
sg4
g31
sS'acary (time)'
p2110
F152.25185900001088
sS'ghadimi (time)'
p2111
F152.20358900001156
sg8
g2091
sS'normal (time)'
p2112
F152.1391430000076
sa(dp2113
S'dicairano (time)'
p2114
F148.21463800000492
sg4
g37
sS'acary (time)'
p2115
F148.05161500000395
sS'ghadimi (time)'
p2116
F147.10588099999586
sg8
g2091
sS'normal (time)'
p2117
F148.77897700000904
sa(dp2118
S'dicairano (time)'
p2119
F150.00101700000232
sg4
g43
sS'acary (time)'
p2120
F146.75662299999385
sS'ghadimi (time)'
p2121
F148.03972000000067
sg8
g2091
sS'normal (time)'
p2122
F149.34101100001135
sa(dp2123
S'dicairano (time)'
p2124
F144.9801429999934
sg4
g49
sS'acary (time)'
p2125
F145.387733999989
sS'ghadimi (time)'
p2126
F146.10709399997722
sg8
g2091
sS'normal (time)'
p2127
F144.95892999999342
sa(dp2128
S'dicairano (time)'
p2129
F147.5865460000059
sg4
g55
sS'acary (time)'
p2130
F146.79277800000273
sS'ghadimi (time)'
p2131
F146.76286600000458
sg8
g2091
sS'normal (time)'
p2132
F147.71149100002367
sa(dp2133
S'dicairano (time)'
p2134
F150.1651889999921
sg4
g61
sS'acary (time)'
p2135
F148.2170009999827
sS'ghadimi (time)'
p2136
F148.1357489999791
sg8
g2091
sS'normal (time)'
p2137
F150.33748799999012
sa(dp2138
S'dicairano (time)'
p2139
F153.43299499998102
sg4
g67
sS'acary (time)'
p2140
F153.98832800000673
sS'ghadimi (time)'
p2141
F153.6628609999898
sg8
g2091
sS'normal (time)'
p2142
F153.34607900000992
sa(dp2143
S'dicairano (time)'
p2144
F149.58523699999205
sg4
g73
sS'acary (time)'
p2145
F148.36963800000376
sS'ghadimi (time)'
p2146
F148.4043299999903
sg8
g2091
sS'normal (time)'
p2147
F150.20670100001735
saa(lp2148
(dp2149
S'dicairano (time)'
p2150
F76.9215639999893
sg4
g5
sS'acary (time)'
p2151
F73.22341900001629
sS'ghadimi (time)'
p2152
F72.80566300000646
sg8
S'Box_Stacks-i0678-615-11.hdf5'
p2153
sS'normal (time)'
p2154
F77.01376500001061
sa(dp2155
S'dicairano (time)'
p2156
F79.56425999998464
sg4
g13
sS'acary (time)'
p2157
F78.96460499998648
sS'ghadimi (time)'
p2158
F77.61445400002412
sg8
g2153
sS'normal (time)'
p2159
F79.40314999999828
sa(dp2160
S'dicairano (time)'
p2161
F76.73172500001965
sg4
g19
sS'acary (time)'
p2162
F73.32651800001622
sS'ghadimi (time)'
p2163
F73.07160300001851
sg8
g2153
sS'normal (time)'
p2164
F76.71361099998467
sa(dp2165
S'dicairano (time)'
p2166
F146.23142200001166
sg4
g25
sS'acary (time)'
p2167
F146.0677030000079
sS'ghadimi (time)'
p2168
F144.4847169999848
sg8
g2153
sS'normal (time)'
p2169
F146.2048439999926
sa(dp2170
S'dicairano (time)'
p2171
F148.9101340000052
sg4
g31
sS'acary (time)'
p2172
F148.93133600000874
sS'ghadimi (time)'
p2173
F149.2077730000019
sg8
g2153
sS'normal (time)'
p2174
F148.7005390000122
sa(dp2175
S'dicairano (time)'
p2176
F146.09174999999232
sg4
g37
sS'acary (time)'
p2177
F145.766180000006
sS'ghadimi (time)'
p2178
F144.55717399998684
sg8
g2153
sS'normal (time)'
p2179
F146.02271700001438
sa(dp2180
S'dicairano (time)'
p2181
F145.11894300000858
sg4
g43
sS'acary (time)'
p2182
F144.43494000000646
sS'ghadimi (time)'
p2183
F144.60223099999712
sg8
g2153
sS'normal (time)'
p2184
F145.8524880000041
sa(dp2185
S'dicairano (time)'
p2186
F141.72637599997688
sg4
g49
sS'acary (time)'
p2187
F142.1034530000179
sS'ghadimi (time)'
p2188
F142.65942400001222
sg8
g2153
sS'normal (time)'
p2189
F141.78892400002223
sa(dp2190
S'dicairano (time)'
p2191
F144.94364199999836
sg4
g55
sS'acary (time)'
p2192
F142.7139019999886
sS'ghadimi (time)'
p2193
F143.42713499997626
sg8
g2153
sS'normal (time)'
p2194
F144.41744099999778
sa(dp2195
S'dicairano (time)'
p2196
F147.45463900000323
sg4
g61
sS'acary (time)'
p2197
F145.58844600000884
sS'ghadimi (time)'
p2198
F144.99899699998787
sg8
g2153
sS'normal (time)'
p2199
F147.3107439999876
sa(dp2200
S'dicairano (time)'
p2201
F150.03948200002196
sg4
g67
sS'acary (time)'
p2202
F150.22348899999633
sS'ghadimi (time)'
p2203
F150.2209370000055
sg8
g2153
sS'normal (time)'
p2204
F150.24777300001006
sa(dp2205
S'dicairano (time)'
p2206
F147.35041199999978
sg4
g73
sS'acary (time)'
p2207
F145.92142100000638
sS'ghadimi (time)'
p2208
F145.30894399998942
sg8
g2153
sS'normal (time)'
p2209
F146.91680300000007
saa(lp2210
(dp2211
S'dicairano (time)'
p2212
F77.71785400001681
sg4
g5
sS'acary (time)'
p2213
F75.04616800000076
sS'ghadimi (time)'
p2214
F74.5824909999792
sg8
S'Box_Stacks-i0682-642-39.hdf5'
p2215
sS'normal (time)'
p2216
F78.36717199999839
sa(dp2217
S'dicairano (time)'
p2218
F81.71770600002492
sg4
g13
sS'acary (time)'
p2219
F81.27999999999884
sS'ghadimi (time)'
p2220
F79.72471199999563
sg8
g2215
sS'normal (time)'
p2221
F81.74852299998747
sa(dp2222
S'dicairano (time)'
p2223
F77.66502700001001
sg4
g19
sS'acary (time)'
p2224
F75.05636700001196
sS'ghadimi (time)'
p2225
F74.88310300000012
sg8
g2215
sS'normal (time)'
p2226
F78.06800500000827
sa(dp2227
S'dicairano (time)'
p2228
F149.0783850000007
sg4
g25
sS'acary (time)'
p2229
F148.6995680000109
sS'ghadimi (time)'
p2230
F147.5305839999928
sg8
g2215
sS'normal (time)'
p2231
F149.6575629999861
sa(dp2232
S'dicairano (time)'
p2233
F152.79391300000134
sg4
g31
sS'acary (time)'
p2234
F160.89868499999284
sS'ghadimi (time)'
p2235
F153.28019399999175
sg8
g2215
sS'normal (time)'
p2236
F152.9154340000241
sa(dp2237
S'dicairano (time)'
p2238
F148.81730799999787
sg4
g37
sS'acary (time)'
p2239
F149.27383200000622
sS'ghadimi (time)'
p2240
F147.73334000000614
sg8
g2215
sS'normal (time)'
p2241
F149.2765810000128
sa(dp2242
S'dicairano (time)'
p2243
F149.92813200000091
sg4
g43
sS'acary (time)'
p2244
F147.39281299998402
sS'ghadimi (time)'
p2245
F148.66149399999995
sg8
g2215
sS'normal (time)'
p2246
F188.87768199999118
sa(dp2247
S'dicairano (time)'
p2248
F146.05984900001204
sg4
g49
sS'acary (time)'
p2249
F147.212532000005
sS'ghadimi (time)'
p2250
F147.17987399999402
sg8
g2215
sS'normal (time)'
p2251
F145.8431050000072
sa(dp2252
S'dicairano (time)'
p2253
F148.43623500000103
sg4
g55
sS'acary (time)'
p2254
F148.00838499999372
sS'ghadimi (time)'
p2255
F147.74353999999585
sg8
g2215
sS'normal (time)'
p2256
F150.84141800002544
sa(dp2257
S'dicairano (time)'
p2258
F150.84296300000278
sg4
g61
sS'acary (time)'
p2259
F149.83007600001292
sS'ghadimi (time)'
p2260
F149.22921000001952
sg8
g2215
sS'normal (time)'
p2261
F151.11615099999472
sa(dp2262
S'dicairano (time)'
p2263
F154.74196099999244
sg4
g67
sS'acary (time)'
p2264
F155.126436999999
sS'ghadimi (time)'
p2265
F154.92477800001507
sg8
g2215
sS'normal (time)'
p2266
F154.7212710000167
sa(dp2267
S'dicairano (time)'
p2268
F150.65574099999503
sg4
g73
sS'acary (time)'
p2269
F149.8149680000206
sS'ghadimi (time)'
p2270
F149.7955479999946
sg8
g2215
sS'normal (time)'
p2271
F151.13201000000117
saa(lp2272
(dp2273
S'dicairano (time)'
p2274
F75.37498699998832
sg4
g5
sS'acary (time)'
p2275
F72.77985900000203
sS'ghadimi (time)'
p2276
F72.23432400001911
sg8
S'Box_Stacks-i0800-606-10.hdf5'
p2277
sS'normal (time)'
p2278
F76.13590100000147
sa(dp2279
S'dicairano (time)'
p2280
F78.8084530000051
sg4
g13
sS'acary (time)'
p2281
F78.58831500000088
sS'ghadimi (time)'
p2282
F77.31212800001958
sg8
g2277
sS'normal (time)'
p2283
F78.3489539999864
sa(dp2284
S'dicairano (time)'
p2285
F75.47193999998854
sg4
g19
sS'acary (time)'
p2286
F73.14984100000584
sS'ghadimi (time)'
p2287
F72.71429999999236
sg8
g2277
sS'normal (time)'
p2288
F76.01338300001225
sa(dp2289
S'dicairano (time)'
p2290
F144.22520899999654
sg4
g25
sS'acary (time)'
p2291
F144.60839900001884
sS'ghadimi (time)'
p2292
F143.36554499997874
sg8
g2277
sS'normal (time)'
p2293
F144.8235069999937
sa(dp2294
S'dicairano (time)'
p2295
F147.45077999998466
sg4
g31
sS'acary (time)'
p2296
F147.7745940000168
sS'ghadimi (time)'
p2297
F147.80174799999804
sg8
g2277
sS'normal (time)'
p2298
F147.06737400000566
sa(dp2299
S'dicairano (time)'
p2300
F144.1881679999933
sg4
g37
sS'acary (time)'
p2301
F145.00686500000302
sS'ghadimi (time)'
p2302
F143.7787900000112
sg8
g2277
sS'normal (time)'
p2303
F144.76502299998538
sa(dp2304
S'dicairano (time)'
p2305
F145.24065700001665
sg4
g43
sS'acary (time)'
p2306
F142.5193159999908
sS'ghadimi (time)'
p2307
F143.7955329999968
sg8
g2277
sS'normal (time)'
p2308
F145.8646160000062
sa(dp2309
S'dicairano (time)'
p2310
F140.5020910000021
sg4
g49
sS'acary (time)'
p2311
F141.19288499999675
sS'ghadimi (time)'
p2312
F141.2136349999928
sg8
g2277
sS'normal (time)'
p2313
F140.43548899999587
sa(dp2314
S'dicairano (time)'
p2315
F145.03041000000667
sg4
g55
sS'acary (time)'
p2316
F145.0581570000213
sS'ghadimi (time)'
p2317
F142.29125499998918
sg8
g2277
sS'normal (time)'
p2318
F145.77762800001074
sa(dp2319
S'dicairano (time)'
p2320
F145.21500799999922
sg4
g61
sS'acary (time)'
p2321
F144.33900400000857
sS'ghadimi (time)'
p2322
F143.90137800000957
sg8
g2277
sS'normal (time)'
p2323
F146.20969799999148
sa(dp2324
S'dicairano (time)'
p2325
F148.51377300001332
sg4
g67
sS'acary (time)'
p2326
F148.87096599998767
sS'ghadimi (time)'
p2327
F148.63428500000737
sg8
g2277
sS'normal (time)'
p2328
F148.91886199999135
sa(dp2329
S'dicairano (time)'
p2330
F145.36767899998813
sg4
g73
sS'acary (time)'
p2331
F144.6517429999949
sS'ghadimi (time)'
p2332
F144.4395169999916
sg8
g2277
sS'normal (time)'
p2333
F146.0077900000033
saa(lp2334
(dp2335
S'dicairano (time)'
p2336
F78.21912500000326
sg4
g5
sS'acary (time)'
p2337
F75.01758000001428
sS'ghadimi (time)'
p2338
F74.37706400000025
sg8
S'Box_Stacks-i0813-636-28.hdf5'
p2339
sS'normal (time)'
p2340
F77.82249600000796
sa(dp2341
S'dicairano (time)'
p2342
F81.51988600002369
sg4
g13
sS'acary (time)'
p2343
F81.15108000001055
sS'ghadimi (time)'
p2344
F79.6626840000099
sg8
g2339
sS'normal (time)'
p2345
F81.42718400000012
sa(dp2346
S'dicairano (time)'
p2347
F78.11435000001802
sg4
g19
sS'acary (time)'
p2348
F75.09352399999625
sS'ghadimi (time)'
p2349
F74.74651100000483
sg8
g2339
sS'normal (time)'
p2350
F78.09105799999088
sa(dp2351
S'dicairano (time)'
p2352
F149.18175300001167
sg4
g25
sS'acary (time)'
p2353
F148.666315999988
sS'ghadimi (time)'
p2354
F147.08569000000716
sg8
g2339
sS'normal (time)'
p2355
F148.88231700001052
sa(dp2356
S'dicairano (time)'
p2357
F152.56041899998672
sg4
g31
sS'acary (time)'
p2358
F152.71053599999868
sS'ghadimi (time)'
p2359
F152.6342719999957
sg8
g2339
sS'normal (time)'
p2360
F152.27233000000706
sa(dp2361
S'dicairano (time)'
p2362
F148.40993799999706
sg4
g37
sS'acary (time)'
p2363
F148.35205600000336
sS'ghadimi (time)'
p2364
F147.33222099998966
sg8
g2339
sS'normal (time)'
p2365
F148.97180699999444
sa(dp2366
S'dicairano (time)'
p2367
F150.35584999999264
sg4
g43
sS'acary (time)'
p2368
F146.91342699999223
sS'ghadimi (time)'
p2369
F147.7498290000076
sg8
g2339
sS'normal (time)'
p2370
F149.93300600000657
sa(dp2371
S'dicairano (time)'
p2372
F144.73365900001954
sg4
g49
sS'acary (time)'
p2373
F153.9595669999835
sS'ghadimi (time)'
p2374
F149.33890400000382
sg8
g2339
sS'normal (time)'
p2375
F145.00761699999566
sa(dp2376
S'dicairano (time)'
p2377
F149.21673499999451
sg4
g55
sS'acary (time)'
p2378
F146.6081809999887
sS'ghadimi (time)'
p2379
F147.32294299997739
sg8
g2339
sS'normal (time)'
p2380
F149.12742599999183
sa(dp2381
S'dicairano (time)'
p2382
F149.96456300001591
sg4
g61
sS'acary (time)'
p2383
F148.04878199999803
sS'ghadimi (time)'
p2384
F147.8930199999886
sg8
g2339
sS'normal (time)'
p2385
F150.03108200000133
sa(dp2386
S'dicairano (time)'
p2387
F153.2512529999949
sg4
g67
sS'acary (time)'
p2388
F153.24451999997837
sS'ghadimi (time)'
p2389
F153.2943769999838
sg8
g2339
sS'normal (time)'
p2390
F153.1176170000108
sa(dp2391
S'dicairano (time)'
p2392
F149.25373299999046
sg4
g73
sS'acary (time)'
p2393
F148.24374999999418
sS'ghadimi (time)'
p2394
F148.2720960000006
sg8
g2339
sS'normal (time)'
p2395
F150.01943099999335
saa(lp2396
(dp2397
S'dicairano (time)'
p2398
F2.0323349999962375
sg4
g5
sS'acary (time)'
p2399
F1.3404830000072252
sS'p_ratio ghadimi (time)'
p2400
g82
(g86
S's\x03c\x8a\x82l@@'
p2401
tp2402
Rp2403
sS'p_ratio acary (time)'
p2404
g82
(g86
S'\xaf\xce\x18\x8aR\x94\xf1?'
p2405
tp2406
Rp2407
sS'ghadimi (time)'
p2408
F43.30671499998425
sS'p_ratio dicairano (time)'
p2409
g82
(g86
S'T\xee\x81\xe1\x9c6\xf0?'
p2410
tp2411
Rp2412
sg8
S'Box_Stacks-i1000-140-4.hdf5'
p2413
sS'p_ratio normal (time)'
p2414
g82
(g86
S'\xd1x_\xa8\xdcX\xfd?'
p2415
tp2416
Rp2417
sS'normal (time)'
p2418
F4.604237999999896
sa(dp2419
S'dicairano (time)'
p2420
F43.17171799999778
sg4
g13
sS'acary (time)'
p2421
F1.2200499999744352
sS'p_ratio ghadimi (time)'
p2422
g82
(g86
S'N\x14\x16\xd9\xdbh@@'
p2423
tp2424
Rp2425
sS'p_ratio acary (time)'
p2426
g82
(g86
S'\x00\x00\x00\x00\x00\x00\xf0?'
p2427
tp2428
Rp2429
sS'ghadimi (time)'
p2430
F43.26910800000769
sS'p_ratio dicairano (time)'
p2431
g82
(g86
S'\xf1\xb5\xfc\x1c\x91\x865@'
p2432
tp2433
Rp2434
sg8
g2413
sS'p_ratio normal (time)'
p2435
g82
(g86
S'\xc4\xe0a\xd4\x1461@'
p2436
tp2437
Rp2438
sS'normal (time)'
p2439
F43.204089000006206
sa(dp2440
S'dicairano (time)'
p2441
F13.478523000027053
sg4
g19
sS'acary (time)'
p2442
F1.522008999978425
sS'p_ratio ghadimi (time)'
p2443
g82
(g86
S'eb\x12xQ\x02I@'
p2444
tp2445
Rp2446
sS'p_ratio acary (time)'
p2447
g82
(g86
S'\x13l\xcb\xa8\xbf\xf5\xf3?'
p2448
tp2449
Rp2450
sS'ghadimi (time)'
p2451
F65.94427800000994
sS'p_ratio dicairano (time)'
p2452
g82
(g86
S'I\xca\xd5h\xc1\xe1\x1a@'
p2453
tp2454
Rp2455
sg8
g2413
sS'p_ratio normal (time)'
p2456
g82
(g86
S'\x00\x00\x00\x00\x00\x00\xf0?'
p2457
tp2458
Rp2459
sS'normal (time)'
p2460
F2.5102229999902193
sa(dp2461
S'dicairano (time)'
p2462
F2.4428330000082497
sg4
g25
sS'acary (time)'
p2463
F1.835507999989204
sS'p_ratio ghadimi (time)'
p2464
g82
(g86
S'\x00\x00\x00\x00\x00\x00\xf0?'
p2465
tp2466
Rp2467
sS'p_ratio acary (time)'
p2468
g82
(g86
S'\xc47\xe9h=\x12\xf8?'
p2469
tp2470
Rp2471
sS'ghadimi (time)'
p2472
F1.318407999991905
sS'p_ratio dicairano (time)'
p2473
g82
(g86
S'\\um\xc4\xf7|\xf3?'
p2474
tp2475
Rp2476
sg8
g2413
sS'p_ratio normal (time)'
p2477
g82
(g86
S'\xa6\x93=2\xfab\xf0?'
p2478
tp2479
Rp2480
sS'normal (time)'
p2481
F2.5708809999923687
sa(dp2482
S'dicairano (time)'
p2483
F72.07638399998541
sg4
g31
sS'acary (time)'
p2484
F1.9780489999975543
sS'p_ratio ghadimi (time)'
p2485
g82
(g86
S'\xf1\xc5\xf2L\x02GK@'
p2486
tp2487
Rp2488
sS'p_ratio acary (time)'
p2489
g82
(g86
S'\xb7\xc5(\xbe\xc8\xf0\xf9?'
p2490
tp2491
Rp2492
sS'ghadimi (time)'
p2493
F71.92542899999535
sS'p_ratio dicairano (time)'
p2494
g82
(g86
S'\x00^X\xb6\x05\xf8A@'
p2495
tp2496
Rp2497
sg8
g2413
sS'p_ratio normal (time)'
p2498
g82
(g86
S'\xba\xe5\x16e\xa3\xa2<@'
p2499
tp2500
Rp2501
sS'normal (time)'
p2502
F71.88100300001679
sa(dp2503
S'dicairano (time)'
p2504
F2.005593999987468
sg4
g37
sS'acary (time)'
p2505
F1.4644150000240188
sS'p_ratio ghadimi (time)'
p2506
g82
(g86
S'%U\xe1E\xc6\xa9\xf1?'
p2507
tp2508
Rp2509
sS'p_ratio acary (time)'
p2510
g82
(g86
S'd\xfaSNd4\xf3?'
p2511
tp2512
Rp2513
sS'ghadimi (time)'
p2514
F1.455454999988433
sS'p_ratio dicairano (time)'
p2515
g82
(g86
S'\x00\x00\x00\x00\x00\x00\xf0?'
p2516
tp2517
Rp2518
sg8
g2413
sS'p_ratio normal (time)'
p2519
g82
(g86
S'9\xa2\xb1,\x1b\xbe\xf1?'
p2520
tp2521
Rp2522
sS'normal (time)'
p2523
F2.7836179999867454
sa(dp2524
S'dicairano (time)'
p2525
Fnan
sg4
g43
sS'acary (time)'
p2526
Fnan
sS'p_ratio ghadimi (time)'
p2527
g82
(g86
S'T\xa2\xcd!\xbf\xde\x06@'
p2528
tp2529
Rp2530
sS'p_ratio acary (time)'
p2531
g82
(g86
S'\x00\x00\x00\x00\x00\x00\xf8\x7f'
p2532
tp2533
Rp2534
sS'ghadimi (time)'
p2535
F3.7690159999765456
sS'p_ratio dicairano (time)'
p2536
g82
(g86
S'\x00\x00\x00\x00\x00\x00\xf8\x7f'
p2537
tp2538
Rp2539
sg8
g2413
sS'p_ratio normal (time)'
p2540
g82
(g86
S'%"\xb8\x97Ia<@'
p2541
tp2542
Rp2543
sS'normal (time)'
p2544
F71.24020200001542
sa(dp2545
S'dicairano (time)'
p2546
F71.88340099999914
sg4
g49
sS'acary (time)'
p2547
F72.0886579999933
sS'p_ratio ghadimi (time)'
p2548
g82
(g86
S'\x9b\x88g`\xd5>K@'
p2549
tp2550
Rp2551
sS'p_ratio acary (time)'
p2552
g82
(g86
S'\xb5\x0c\xba\x18\x17\x8bM@'
p2553
tp2554
Rp2555
sS'ghadimi (time)'
p2556
F71.84122099998058
sS'p_ratio dicairano (time)'
p2557
g82
(g86
S'\xaf\xbb\xa2\xb2\xb4\xebA@'
p2558
tp2559
Rp2560
sg8
g2413
sS'p_ratio normal (time)'
p2561
g82
(g86
S'\x93\xbd\x93$\xf0\x9f<@'
p2562
tp2563
Rp2564
sS'normal (time)'
p2565
F71.85452600001008
sa(dp2566
S'dicairano (time)'
p2567
F70.84997099998873
sg4
g55
sS'acary (time)'
p2568
F71.07871999999043
sS'p_ratio ghadimi (time)'
p2569
g82
(g86
S'\xa1\x88\x81\xdb\x86AK@'
p2570
tp2571
Rp2572
sS'p_ratio acary (time)'
p2573
g82
(g86
S'\xcb\xb3WD"!M@'
p2574
tp2575
Rp2576
sS'ghadimi (time)'
p2577
F71.86896200000774
sS'p_ratio dicairano (time)'
p2578
g82
(g86
S'\x1f\x8e\xe34\xc0\xa9A@'
p2579
tp2580
Rp2581
sg8
g2413
sS'p_ratio normal (time)'
p2582
g82
(g86
S'\x01g\x03\xaa\x81U<@'
p2583
tp2584
Rp2585
sS'normal (time)'
p2586
F71.12468300000182
sa(dp2587
S'dicairano (time)'
p2588
F3.2403829999966547
sg4
g61
sS'acary (time)'
p2589
F72.7918869999994
sS'p_ratio ghadimi (time)'
p2590
g82
(g86
S'5\x18cr\xde_\x0f@'
p2591
tp2592
Rp2593
sS'p_ratio acary (time)'
p2594
g82
(g86
S'\xe9V\x9c\\\xde\xd4M@'
p2595
tp2596
Rp2597
sS'ghadimi (time)'
p2598
F5.170547000016086
sS'p_ratio dicairano (time)'
p2599
g82
(g86
S'\xba\x85\xa7^\xcb\xd9\xf9?'
p2600
tp2601
Rp2602
sg8
g2413
sS'p_ratio normal (time)'
p2603
g82
(g86
S'\xd9\x8d-\xed\xcd\x18\xf5?'
p2604
tp2605
Rp2606
sS'normal (time)'
p2607
F3.309869000018807
sa(dp2608
S'dicairano (time)'
p2609
F72.47348499999498
sg4
g67
sS'acary (time)'
p2610
F72.85614600000554
sS'p_ratio ghadimi (time)'
p2611
g82
(g86
S'C\xd5\x96\xfe\r\x9fK@'
p2612
tp2613
Rp2614
sS'p_ratio acary (time)'
p2615
g82
(g86
S'\x93\xf7|9\x9c\xdbM@'
p2616
tp2617
Rp2618
sS'ghadimi (time)'
p2619
F72.83230499998899
sS'p_ratio dicairano (time)'
p2620
g82
(g86
S'\xc1\xe7\x12\xab]\x11B@'
p2621
tp2622
Rp2623
sg8
g2413
sS'p_ratio normal (time)'
p2624
g82
(g86
S'\x8dm\x08\xf3\xd0\xf1<@'
p2625
tp2626
Rp2627
sS'normal (time)'
p2628
F72.65738699998474
sa(dp2629
S'dicairano (time)'
p2630
F2.9136299999954645
sg4
g73
sS'acary (time)'
p2631
F3.6758780000091065
sS'p_ratio ghadimi (time)'
p2632
g82
(g86
S"'\t\x1a\x8d\xef\x9c\x03@"
p2633
tp2634
Rp2635
sS'p_ratio acary (time)'
p2636
g82
(g86
S'8\xdc\xa4\xbdf\x1a\x08@'
p2637
tp2638
Rp2639
sS'ghadimi (time)'
p2640
F3.2322470000071917
sS'p_ratio dicairano (time)'
p2641
g82
(g86
S'\x95\xec\x98\x84x>\xf7?'
p2642
tp2643
Rp2644
sg8
g2413
sS'p_ratio normal (time)'
p2645
g82
(g86
S'\xf02\xd1\x8e..\xf7?'
p2646
tp2647
Rp2648
sS'normal (time)'
p2649
F3.6367479999898933
saa(lp2650
(dp2651
S'dicairano (time)'
p2652
F55.337117999995826
sg4
g5
sS'acary (time)'
p2653
F54.29807499999879
sS'ghadimi (time)'
p2654
F53.47089900000719
sg8
S'Box_Stacks-i1000-312-6.hdf5'
p2655
sS'normal (time)'
p2656
F13.10656200000085
sa(dp2657
S'dicairano (time)'
p2658
F57.30154800001765
sg4
g13
sS'acary (time)'
p2659
F56.94402500000433
sS'ghadimi (time)'
p2660
F55.04146299997228
sg8
g2655
sS'normal (time)'
p2661
F57.07522499997867
sa(dp2662
S'dicairano (time)'
p2663
F55.389248999999836
sg4
g19
sS'acary (time)'
p2664
F54.43941300001461
sS'ghadimi (time)'
p2665
F53.83416299999226
sg8
g2655
sS'normal (time)'
p2666
F14.91108200000599
sa(dp2667
S'dicairano (time)'
p2668
F99.30291999998735
sg4
g25
sS'acary (time)'
p2669
F99.85035899997456
sS'ghadimi (time)'
p2670
F104.60555099998601
sg8
g2655
sS'normal (time)'
p2671
F99.72393999999622
sa(dp2672
S'dicairano (time)'
p2673
F101.19201800000155
sg4
g31
sS'acary (time)'
p2674
F101.60333799998625
sS'ghadimi (time)'
p2675
F101.5857149999938
sg8
g2655
sS'normal (time)'
p2676
F100.95532999999705
sa(dp2677
S'dicairano (time)'
p2678
F99.35318999999436
sg4
g37
sS'acary (time)'
p2679
F100.28580399998464
sS'ghadimi (time)'
p2680
F106.91785599998548
sg8
g2655
sS'normal (time)'
p2681
F99.95860199999879
sa(dp2682
S'dicairano (time)'
p2683
F99.96848199999658
sg4
g43
sS'acary (time)'
p2684
F98.94468600000255
sS'ghadimi (time)'
p2685
F74.20927200000733
sg8
g2655
sS'normal (time)'
p2686
F101.57575399999041
sa(dp2687
S'dicairano (time)'
p2688
F97.7236789999879
sg4
g49
sS'acary (time)'
p2689
F98.08787799999118
sS'ghadimi (time)'
p2690
F97.68877999999677
sg8
g2655
sS'normal (time)'
p2691
F97.7192909999867
sa(dp2692
S'dicairano (time)'
p2693
F99.71835799998371
sg4
g55
sS'acary (time)'
p2694
F97.65557099998114
sS'ghadimi (time)'
p2695
F98.38651799998479
sg8
g2655
sS'normal (time)'
p2696
F97.8879270000034
sa(dp2697
S'dicairano (time)'
p2698
F99.99668599999859
sg4
g61
sS'acary (time)'
p2699
F100.64890499998
sS'ghadimi (time)'
p2700
F100.65948599998956
sg8
g2655
sS'normal (time)'
p2701
F99.1838459999999
sa(dp2702
S'dicairano (time)'
p2703
F101.91730800000369
sg4
g67
sS'acary (time)'
p2704
F102.58778699999675
sS'ghadimi (time)'
p2705
F102.36191300000064
sg8
g2655
sS'normal (time)'
p2706
F101.71147400001064
sa(dp2707
S'dicairano (time)'
p2708
F100.12527800002135
sg4
g73
sS'acary (time)'
p2709
F100.22065999999177
sS'ghadimi (time)'
p2710
F101.00752299997839
sg8
g2655
sS'normal (time)'
p2711
F101.16154300002381
saa(lp2712
(dp2713
S'dicairano (time)'
p2714
F61.053355999989435
sg4
g5
sS'acary (time)'
p2715
F60.182417999982135
sS'ghadimi (time)'
p2716
F58.412337999994634
sg8
S'Box_Stacks-i1000-379-5.hdf5'
p2717
sS'normal (time)'
p2718
F17.54033899999922
sa(dp2719
S'dicairano (time)'
p2720
F60.1729720000003
sg4
g13
sS'acary (time)'
p2721
F61.40900499999407
sS'ghadimi (time)'
p2722
F60.00197300000582
sg8
g2717
sS'normal (time)'
p2723
F59.5148540000082
sa(dp2724
S'dicairano (time)'
p2725
F61.332503000012366
sg4
g19
sS'acary (time)'
p2726
F60.295550000009825
sS'ghadimi (time)'
p2727
F58.790098000026774
sg8
g2717
sS'normal (time)'
p2728
F13.058651999977883
sa(dp2729
S'dicairano (time)'
p2730
F110.21719900000608
sg4
g25
sS'acary (time)'
p2731
F110.19829599998775
sS'ghadimi (time)'
p2732
F112.35352900001453
sg8
g2717
sS'normal (time)'
p2733
F109.0642940000107
sa(dp2734
S'dicairano (time)'
p2735
F109.34069099999033
sg4
g31
sS'acary (time)'
p2736
F110.05658699999913
sS'ghadimi (time)'
p2737
F110.03406900001573
sg8
g2717
sS'normal (time)'
p2738
F108.7187569999951
sa(dp2739
S'dicairano (time)'
p2740
F110.5097689999966
sg4
g37
sS'acary (time)'
p2741
F110.505410999991
sS'ghadimi (time)'
p2742
F112.4927579999785
sg8
g2717
sS'normal (time)'
p2743
F109.03108299997984
sa(dp2744
S'dicairano (time)'
p2745
F110.99919499998214
sg4
g43
sS'acary (time)'
p2746
F112.00784500001464
sS'ghadimi (time)'
p2747
F110.61094899999443
sg8
g2717
sS'normal (time)'
p2748
F108.70467999999528
sa(dp2749
S'dicairano (time)'
p2750
F106.13218699998106
sg4
g49
sS'acary (time)'
p2751
F106.15885700000217
sS'ghadimi (time)'
p2752
F106.29366299998946
sg8
g2717
sS'normal (time)'
p2753
F106.18341800000053
sa(dp2754
S'dicairano (time)'
p2755
F105.60800899998867
sg4
g55
sS'acary (time)'
p2756
F106.78730399999768
sS'ghadimi (time)'
p2757
F107.87793999997666
sg8
g2717
sS'normal (time)'
p2758
F106.4961750000075
sa(dp2759
S'dicairano (time)'
p2760
F110.76542700000573
sg4
g61
sS'acary (time)'
p2761
F110.75158700000611
sS'ghadimi (time)'
p2762
F110.85108200000832
sg8
g2717
sS'normal (time)'
p2763
F110.04325600000448
sa(dp2764
S'dicairano (time)'
p2765
F110.98755599997821
sg4
g67
sS'acary (time)'
p2766
F111.0501809999987
sS'ghadimi (time)'
p2767
F111.14168899998185
sg8
g2717
sS'normal (time)'
p2768
F110.6551750000217
sa(dp2769
S'dicairano (time)'
p2770
F111.09047699999064
sg4
g73
sS'acary (time)'
p2771
F110.94110899997759
sS'ghadimi (time)'
p2772
F111.00950600000215
sg8
g2717
sS'normal (time)'
p2773
F111.04182099999161
saa(lp2774
(dp2775
S'dicairano (time)'
p2776
F65.40803300001426
sg4
g5
sS'acary (time)'
p2777
F63.09490399999777
sS'ghadimi (time)'
p2778
F62.23667600000044
sg8
S'Box_Stacks-i1000-451-7.hdf5'
p2779
sS'normal (time)'
p2780
F64.93946699998924
sa(dp2781
S'dicairano (time)'
p2782
F66.71830400000908
sg4
g13
sS'acary (time)'
p2783
F66.707905999996
sS'ghadimi (time)'
p2784
F65.05351200001314
sg8
g2779
sS'normal (time)'
p2785
F66.4322000000102
sa(dp2786
S'dicairano (time)'
p2787
F64.91956700000446
sg4
g19
sS'acary (time)'
p2788
F63.10696399997687
sS'ghadimi (time)'
p2789
F62.50456899998244
sg8
g2779
sS'normal (time)'
p2790
F65.3652599999914
sa(dp2791
S'dicairano (time)'
p2792
F121.05894400001853
sg4
g25
sS'acary (time)'
p2793
F122.57897199998843
sS'ghadimi (time)'
p2794
F129.7390599999926
sg8
g2779
sS'normal (time)'
p2795
F120.52517699997406
sa(dp2796
S'dicairano (time)'
p2797
F122.2812799999956
sg4
g31
sS'acary (time)'
p2798
F122.5762870000035
sS'ghadimi (time)'
p2799
F122.69849000000977
sg8
g2779
sS'normal (time)'
p2800
F121.99828900001012
sa(dp2801
S'dicairano (time)'
p2802
F121.05111199998646
sg4
g37
sS'acary (time)'
p2803
F119.39051100000506
sS'ghadimi (time)'
p2804
F136.112420999998
sg8
g2779
sS'normal (time)'
p2805
F121.07372100002249
sa(dp2806
S'dicairano (time)'
p2807
F121.74648200001684
sg4
g43
sS'acary (time)'
p2808
F119.55730899999617
sS'ghadimi (time)'
p2809
F119.89202099997783
sg8
g2779
sS'normal (time)'
p2810
F104.72711000000709
sa(dp2811
S'dicairano (time)'
p2812
F117.83497299998999
sg4
g49
sS'acary (time)'
p2813
F118.09986399998888
sS'ghadimi (time)'
p2814
F118.05974600001355
sg8
g2779
sS'normal (time)'
p2815
F117.94908099999884
sa(dp2816
S'dicairano (time)'
p2817
F118.37767200000235
sg4
g55
sS'acary (time)'
p2818
F119.96974599998794
sS'ghadimi (time)'
p2819
F119.78725799999665
sg8
g2779
sS'normal (time)'
p2820
F117.800298999995
sa(dp2821
S'dicairano (time)'
p2822
F122.01349899999332
sg4
g61
sS'acary (time)'
p2823
F120.52943899997626
sS'ghadimi (time)'
p2824
F121.85677000001306
sg8
g2779
sS'normal (time)'
p2825
F121.061343999987
sa(dp2826
S'dicairano (time)'
p2827
F123.32976200000849
sg4
g67
sS'acary (time)'
p2828
F123.64598900001147
sS'ghadimi (time)'
p2829
F123.59396599998581
sg8
g2779
sS'normal (time)'
p2830
F123.28862200002186
sa(dp2831
S'dicairano (time)'
p2832
F122.07505799998762
sg4
g73
sS'acary (time)'
p2833
F120.89282300000195
sS'ghadimi (time)'
p2834
F121.33858099998906
sg8
g2779
sS'normal (time)'
p2835
F120.70051499997498
saa(lp2836
(dp2837
S'dicairano (time)'
p2838
F67.78763499998604
sg4
g5
sS'acary (time)'
p2839
F66.91943400001037
sS'ghadimi (time)'
p2840
F66.22667900001397
sg8
S'Box_Stacks-i1000-506-8.hdf5'
p2841
sS'normal (time)'
p2842
F68.79847799998242
sa(dp2843
S'dicairano (time)'
p2844
F71.12668499999563
sg4
g13
sS'acary (time)'
p2845
F70.50034400000004
sS'ghadimi (time)'
p2846
F69.46788600002765
sg8
g2841
sS'normal (time)'
p2847
F70.55998300001374
sa(dp2848
S'dicairano (time)'
p2849
F67.95465400000103
sg4
g19
sS'acary (time)'
p2850
F67.0876640000206
sS'ghadimi (time)'
p2851
F66.47573299999931
sg8
g2841
sS'normal (time)'
p2852
F68.59901599999284
sa(dp2853
S'dicairano (time)'
p2854
F128.43663899999228
sg4
g25
sS'acary (time)'
p2855
F128.83677100000205
sS'ghadimi (time)'
p2856
F128.89430600000196
sg8
g2841
sS'normal (time)'
p2857
F129.50359700000263
sa(dp2858
S'dicairano (time)'
p2859
F131.79537400000845
sg4
g31
sS'acary (time)'
p2860
F132.09891000000061
sS'ghadimi (time)'
p2861
F132.0195229999954
sg8
g2841
sS'normal (time)'
p2862
F131.23330500000156
sa(dp2863
S'dicairano (time)'
p2864
F128.3769489999977
sg4
g37
sS'acary (time)'
p2865
F128.92644300000393
sS'ghadimi (time)'
p2866
F129.61809399997583
sg8
g2841
sS'normal (time)'
p2867
F129.22878999999375
sa(dp2868
S'dicairano (time)'
p2869
F129.09914499998558
sg4
g43
sS'acary (time)'
p2870
F128.37243200000376
sS'ghadimi (time)'
p2871
F128.84851899999194
sg8
g2841
sS'normal (time)'
p2872
F73.97852200001944
sa(dp2873
S'dicairano (time)'
p2874
F126.09618699998828
sg4
g49
sS'acary (time)'
p2875
F127.59043599999859
sS'ghadimi (time)'
p2876
F127.96692500001518
sg8
g2841
sS'normal (time)'
p2877
F126.20250300000771
sa(dp2878
S'dicairano (time)'
p2879
F129.28156400000444
sg4
g55
sS'acary (time)'
p2880
F129.86471699998947
sS'ghadimi (time)'
p2881
F128.0925780000107
sg8
g2841
sS'normal (time)'
p2882
F128.02346900000703
sa(dp2883
S'dicairano (time)'
p2884
F129.44200300000375
sg4
g61
sS'acary (time)'
p2885
F129.05271799999173
sS'ghadimi (time)'
p2886
F129.37968700000783
sg8
g2841
sS'normal (time)'
p2887
F129.5430659999838
sa(dp2888
S'dicairano (time)'
p2889
F132.81225899999845
sg4
g67
sS'acary (time)'
p2890
F133.23761800001375
sS'ghadimi (time)'
p2891
F133.08184899998014
sg8
g2841
sS'normal (time)'
p2892
F133.01140300001134
sa(dp2893
S'dicairano (time)'
p2894
F129.52421199998935
sg4
g73
sS'acary (time)'
p2895
F129.39217100001406
sS'ghadimi (time)'
p2896
F129.39544700001716
sg8
g2841
sS'normal (time)'
p2897
F129.3795650000102
saa(lp2898
(dp2899
S'dicairano (time)'
p2900
F76.72032999998191
sg4
g5
sS'acary (time)'
p2901
F73.08230300000287
sS'ghadimi (time)'
p2902
F72.58926900001825
sg8
S'Box_Stacks-i1000-605-9.hdf5'
p2903
sS'normal (time)'
p2904
F75.95551599998726
sa(dp2905
S'dicairano (time)'
p2906
F78.93270800000755
sg4
g13
sS'acary (time)'
p2907
F78.84309300000314
sS'ghadimi (time)'
p2908
F77.48247200000333
sg8
g2903
sS'normal (time)'
p2909
F78.53214999998454
sa(dp2910
S'dicairano (time)'
p2911
F75.8772909999825
sg4
g19
sS'acary (time)'
p2912
F73.21851199999219
sS'ghadimi (time)'
p2913
F73.0412939999951
sg8
g2903
sS'normal (time)'
p2914
F75.7516450000112
sa(dp2915
S'dicairano (time)'
p2916
F150.634739000001
sg4
g25
sS'acary (time)'
p2917
F144.33714799999143
sS'ghadimi (time)'
p2918
F143.91345900000306
sg8
g2903
sS'normal (time)'
p2919
F144.10889000000316
sa(dp2920
S'dicairano (time)'
p2921
F147.63737599999877
sg4
g31
sS'acary (time)'
p2922
F159.18740600001183
sS'ghadimi (time)'
p2923
F147.89105700000073
sg8
g2903
sS'normal (time)'
p2924
F147.13726399998995
sa(dp2925
S'dicairano (time)'
p2926
F144.44222299999092
sg4
g37
sS'acary (time)'
p2927
F145.03803100000368
sS'ghadimi (time)'
p2928
F144.15953900001477
sg8
g2903
sS'normal (time)'
p2929
F144.46150699999998
sa(dp2930
S'dicairano (time)'
p2931
F145.6701920000196
sg4
g43
sS'acary (time)'
p2932
F142.6964980000048
sS'ghadimi (time)'
p2933
F144.48572900000727
sg8
g2903
sS'normal (time)'
p2934
F145.8719830000191
sa(dp2935
S'dicairano (time)'
p2936
F140.96483400001307
sg4
g49
sS'acary (time)'
p2937
F141.30698699998902
sS'ghadimi (time)'
p2938
F146.4214600000123
sg8
g2903
sS'normal (time)'
p2939
F140.9788230000122
sa(dp2940
S'dicairano (time)'
p2941
F144.48295599999256
sg4
g55
sS'acary (time)'
p2942
F142.08504999999423
sS'ghadimi (time)'
p2943
F142.56524299999
sg8
g2903
sS'normal (time)'
p2944
F141.90700799998012
sa(dp2945
S'dicairano (time)'
p2946
F145.9397309999913
sg4
g61
sS'acary (time)'
p2947
F145.10829400000512
sS'ghadimi (time)'
p2948
F145.19866599998204
sg8
g2903
sS'normal (time)'
p2949
F153.60453099998995
sa(dp2950
S'dicairano (time)'
p2951
F148.147163000016
sg4
g67
sS'acary (time)'
p2952
F148.42689499998232
sS'ghadimi (time)'
p2953
F148.5917490000138
sg8
g2903
sS'normal (time)'
p2954
F148.52195399999619
sa(dp2955
S'dicairano (time)'
p2956
F145.2190840000112
sg4
g73
sS'acary (time)'
p2957
F144.3444829999935
sS'ghadimi (time)'
p2958
F144.23763399999007
sg8
g2903
sS'normal (time)'
p2959
F145.6745590000064
saa(lp2960
(dp2961
S'dicairano (time)'
p2962
F78.39401799999177
sg4
g5
sS'acary (time)'
p2963
F74.8116399999999
sS'ghadimi (time)'
p2964
F74.33645400000387
sg8
S'Box_Stacks-i1000-632-12.hdf5'
p2965
sS'normal (time)'
p2966
F78.71319499998935
sa(dp2967
S'dicairano (time)'
p2968
F81.13694399999804
sg4
g13
sS'acary (time)'
p2969
F80.758428000001
sS'ghadimi (time)'
p2970
F79.28581800000393
sg8
g2965
sS'normal (time)'
p2971
F80.71693199998117
sa(dp2972
S'dicairano (time)'
p2973
F78.24339899999904
sg4
g19
sS'acary (time)'
p2974
F74.85636400000658
sS'ghadimi (time)'
p2975
F74.56342400002177
sg8
g2965
sS'normal (time)'
p2976
F78.36449800000992
sa(dp2977
S'dicairano (time)'
p2978
F148.7876989999786
sg4
g25
sS'acary (time)'
p2979
F148.6638250000251
sS'ghadimi (time)'
p2980
F146.48996199999237
sg8
g2965
sS'normal (time)'
p2981
F149.12890300000436
sa(dp2982
S'dicairano (time)'
p2983
F151.59994399998686
sg4
g31
sS'acary (time)'
p2984
F151.6834450000024
sS'ghadimi (time)'
p2985
F151.69519599998603
sg8
g2965
sS'normal (time)'
p2986
F151.0701649999828
sa(dp2987
S'dicairano (time)'
p2988
F148.69340599997668
sg4
g37
sS'acary (time)'
p2989
F148.97639799999888
sS'ghadimi (time)'
p2990
F146.72524800000247
sg8
g2965
sS'normal (time)'
p2991
F148.75026299999445
sa(dp2992
S'dicairano (time)'
p2993
F149.90534900000785
sg4
g43
sS'acary (time)'
p2994
F146.14677399999346
sS'ghadimi (time)'
p2995
F147.3442830000131
sg8
g2965
sS'normal (time)'
p2996
F150.05765800000518
sa(dp2997
S'dicairano (time)'
p2998
F144.49261899999692
sg4
g49
sS'acary (time)'
p2999
F145.9201190000167
sS'ghadimi (time)'
p3000
F146.519524000003
sg8
g2965
sS'normal (time)'
p3001
F144.40752899998915
sa(dp3002
S'dicairano (time)'
p3003
F149.85722899998655
sg4
g55
sS'acary (time)'
p3004
F146.41368599998532
sS'ghadimi (time)'
p3005
F146.80153499997687
sg8
g2965
sS'normal (time)'
p3006
F148.42778500000713
sa(dp3007
S'dicairano (time)'
p3008
F150.1007180000015
sg4
g61
sS'acary (time)'
p3009
F148.03250699999626
sS'ghadimi (time)'
p3010
F147.82588000001851
sg8
g2965
sS'normal (time)'
p3011
F149.93410700000823
sa(dp3012
S'dicairano (time)'
p3013
F152.60875499999383
sg4
g67
sS'acary (time)'
p3014
F153.0755610000051
sS'ghadimi (time)'
p3015
F152.9228600000206
sg8
g2965
sS'normal (time)'
p3016
F152.27753799999482
sa(dp3017
S'dicairano (time)'
p3018
F149.99120499999844
sg4
g73
sS'acary (time)'
p3019
F148.32373299999745
sS'ghadimi (time)'
p3020
F148.01269300002605
sg8
g2965
sS'normal (time)'
p3021
F149.68131499999436
saa(lp3022
(dp3023
S'dicairano (time)'
p3024
F78.15898599999491
sg4
g5
sS'acary (time)'
p3025
F74.7774029999855
sS'ghadimi (time)'
p3026
F74.1964840000146
sg8
S'Box_Stacks-i1000-633-14.hdf5'
p3027
sS'normal (time)'
p3028
F78.30884000001242
sa(dp3029
S'dicairano (time)'
p3030
F81.33544500000426
sg4
g13
sS'acary (time)'
p3031
F81.09302199998638
sS'ghadimi (time)'
p3032
F79.59542800000054
sg8
g3027
sS'normal (time)'
p3033
F81.31226599999354
sa(dp3034
S'dicairano (time)'
p3035
F78.49180799999158
sg4
g19
sS'acary (time)'
p3036
F75.21353300000192
sS'ghadimi (time)'
p3037
F74.93825100001413
sg8
g3027
sS'normal (time)'
p3038
F78.5088720000058
sa(dp3039
S'dicairano (time)'
p3040
F149.25932799998554
sg4
g25
sS'acary (time)'
p3041
F149.35082999998122
sS'ghadimi (time)'
p3042
F147.03708700000425
sg8
g3027
sS'normal (time)'
p3043
F149.1721130000078
sa(dp3044
S'dicairano (time)'
p3045
F151.94049800001085
sg4
g31
sS'acary (time)'
p3046
F152.14355099998647
sS'ghadimi (time)'
p3047
F152.1409580000036
sg8
g3027
sS'normal (time)'
p3048
F151.96921300000395
sa(dp3049
S'dicairano (time)'
p3050
F149.03290699998615
sg4
g37
sS'acary (time)'
p3051
F148.00093200002448
sS'ghadimi (time)'
p3052
F147.08007299999008
sg8
g3027
sS'normal (time)'
p3053
F149.50723600000492
sa(dp3054
S'dicairano (time)'
p3055
F150.38986600001226
sg4
g43
sS'acary (time)'
p3056
F146.86014299999806
sS'ghadimi (time)'
p3057
F147.87750000000233
sg8
g3027
sS'normal (time)'
p3058
F150.2098479999986
sa(dp3059
S'dicairano (time)'
p3060
F145.11829699997907
sg4
g49
sS'acary (time)'
p3061
F146.90350499999477
sS'ghadimi (time)'
p3062
F146.0103029999882
sg8
g3027
sS'normal (time)'
p3063
F145.07581400001072
sa(dp3064
S'dicairano (time)'
p3065
F150.27152999999817
sg4
g55
sS'acary (time)'
p3066
F147.12730199997895
sS'ghadimi (time)'
p3067
F146.74249600002076
sg8
g3027
sS'normal (time)'
p3068
F149.82845000000088
sa(dp3069
S'dicairano (time)'
p3070
F150.53176699997857
sg4
g61
sS'acary (time)'
p3071
F148.45555799998692
sS'ghadimi (time)'
p3072
F148.2245230000117
sg8
g3027
sS'normal (time)'
p3073
F150.61547900000005
sa(dp3074
S'dicairano (time)'
p3075
F153.28795500000706
sg4
g67
sS'acary (time)'
p3076
F153.50700300000608
sS'ghadimi (time)'
p3077
F153.44548600001144
sg8
g3027
sS'normal (time)'
p3078
F153.17443799998728
sa(dp3079
S'dicairano (time)'
p3080
F150.46322900001542
sg4
g73
sS'acary (time)'
p3081
F148.80709499999648
sS'ghadimi (time)'
p3082
F148.703250999999
sg8
g3027
sS'normal (time)'
p3083
F150.53083299999707
saa(lp3084
(dp3085
S'dicairano (time)'
p3086
F78.55125200000475
sg4
g5
sS'acary (time)'
p3087
F75.12523599999258
sS'ghadimi (time)'
p3088
F74.51493299999856
sg8
S'Box_Stacks-i1000-633-15.hdf5'
p3089
sS'normal (time)'
p3090
F78.45612300001085
sa(dp3091
S'dicairano (time)'
p3092
F88.64292199999909
sg4
g13
sS'acary (time)'
p3093
F81.09932599999593
sS'ghadimi (time)'
p3094
F79.34575300000142
sg8
g3089
sS'normal (time)'
p3095
F80.95563700000639
sa(dp3096
S'dicairano (time)'
p3097
F78.13948700000765
sg4
g19
sS'acary (time)'
p3098
F74.77989499998512
sS'ghadimi (time)'
p3099
F74.63559299998451
sg8
g3089
sS'normal (time)'
p3100
F78.23369200000889
sa(dp3101
S'dicairano (time)'
p3102
F148.92948600000818
sg4
g25
sS'acary (time)'
p3103
F148.69683500000974
sS'ghadimi (time)'
p3104
F146.58128000001307
sg8
g3089
sS'normal (time)'
p3105
F148.6996780000045
sa(dp3106
S'dicairano (time)'
p3107
F151.4526130000013
sg4
g31
sS'acary (time)'
p3108
F151.79176299998653
sS'ghadimi (time)'
p3109
F151.76866800000425
sg8
g3089
sS'normal (time)'
p3110
F151.40294299999368
sa(dp3111
S'dicairano (time)'
p3112
F148.77944000001298
sg4
g37
sS'acary (time)'
p3113
F148.80926599999657
sS'ghadimi (time)'
p3114
F146.80779700001585
sg8
g3089
sS'normal (time)'
p3115
F148.80397000000812
sa(dp3116
S'dicairano (time)'
p3117
F149.5199840000132
sg4
g43
sS'acary (time)'
p3118
F146.35616700001992
sS'ghadimi (time)'
p3119
F147.2854529999895
sg8
g3089
sS'normal (time)'
p3120
F149.8480409999902
sa(dp3121
S'dicairano (time)'
p3122
F145.0466819999856
sg4
g49
sS'acary (time)'
p3123
F145.9380919999967
sS'ghadimi (time)'
p3124
F146.05018999997992
sg8
g3089
sS'normal (time)'
p3125
F145.21263799999724
sa(dp3126
S'dicairano (time)'
p3127
F150.11359799999627
sg4
g55
sS'acary (time)'
p3128
F147.08246499998495
sS'ghadimi (time)'
p3129
F147.1636920000019
sg8
g3089
sS'normal (time)'
p3130
F150.1828819999937
sa(dp3131
S'dicairano (time)'
p3132
F150.4285610000079
sg4
g61
sS'acary (time)'
p3133
F148.41324900000473
sS'ghadimi (time)'
p3134
F148.20150799999828
sg8
g3089
sS'normal (time)'
p3135
F150.3717539999925
sa(dp3136
S'dicairano (time)'
p3137
F153.32184799999231
sg4
g67
sS'acary (time)'
p3138
F153.5100800000073
sS'ghadimi (time)'
p3139
F153.31672200001776
sg8
g3089
sS'normal (time)'
p3140
F153.26921500000753
sa(dp3141
S'dicairano (time)'
p3142
F150.21921499999007
sg4
g73
sS'acary (time)'
p3143
F148.657435000001
sS'ghadimi (time)'
p3144
F148.28545899997698
sg8
g3089
sS'normal (time)'
p3145
F149.9853019999864
saa(lp3146
(dp3147
S'dicairano (time)'
p3148
F78.37477299998864
sg4
g5
sS'acary (time)'
p3149
F74.83645699999761
sS'ghadimi (time)'
p3150
F74.20705200001248
sg8
S'Box_Stacks-i1000-634-16.hdf5'
p3151
sS'normal (time)'
p3152
F77.64715400000568
sa(dp3153
S'dicairano (time)'
p3154
F81.33832800001255
sg4
g13
sS'acary (time)'
p3155
F80.8577890000015
sS'ghadimi (time)'
p3156
F79.45553300000029
sg8
g3151
sS'normal (time)'
p3157
F81.18472099999781
sa(dp3158
S'dicairano (time)'
p3159
F78.1280909999914
sg4
g19
sS'acary (time)'
p3160
F74.90639600000577
sS'ghadimi (time)'
p3161
F74.66930499998853
sg8
g3151
sS'normal (time)'
p3162
F78.19469900001423
sa(dp3163
S'dicairano (time)'
p3164
F148.98011600002064
sg4
g25
sS'acary (time)'
p3165
F149.0059509999992
sS'ghadimi (time)'
p3166
F146.70156700001098
sg8
g3151
sS'normal (time)'
p3167
F148.3049699999974
sa(dp3168
S'dicairano (time)'
p3169
F152.06302800000412
sg4
g31
sS'acary (time)'
p3170
F151.97159800000372
sS'ghadimi (time)'
p3171
F152.3345960000006
sg8
g3151
sS'normal (time)'
p3172
F151.87862199998926
sa(dp3173
S'dicairano (time)'
p3174
F148.78656199999386
sg4
g37
sS'acary (time)'
p3175
F149.09743100000196
sS'ghadimi (time)'
p3176
F147.05020600001444
sg8
g3151
sS'normal (time)'
p3177
F148.98188100001425
sa(dp3178
S'dicairano (time)'
p3179
F150.18093000000226
sg4
g43
sS'acary (time)'
p3180
F146.6379869999946
sS'ghadimi (time)'
p3181
F147.699930999981
sg8
g3151
sS'normal (time)'
p3182
F149.54312899999786
sa(dp3183
S'dicairano (time)'
p3184
F145.30727000001934
sg4
g49
sS'acary (time)'
p3185
F145.750555000006
sS'ghadimi (time)'
p3186
F146.09197500001756
sg8
g3151
sS'normal (time)'
p3187
F145.42153099999996
sa(dp3188
S'dicairano (time)'
p3189
F150.29563899998902
sg4
g55
sS'acary (time)'
p3190
F147.0847730000096
sS'ghadimi (time)'
p3191
F147.02696700001252
sg8
g3151
sS'normal (time)'
p3192
F150.47267499999725
sa(dp3193
S'dicairano (time)'
p3194
F150.6922139999806
sg4
g61
sS'acary (time)'
p3195
F148.33147299999837
sS'ghadimi (time)'
p3196
F148.3061400000006
sg8
g3151
sS'normal (time)'
p3197
F150.4195699999982
sa(dp3198
S'dicairano (time)'
p3199
F153.72169599999324
sg4
g67
sS'acary (time)'
p3200
F153.80529200000456
sS'ghadimi (time)'
p3201
F153.79453700000886
sg8
g3151
sS'normal (time)'
p3202
F153.3659869999974
sa(dp3203
S'dicairano (time)'
p3204
F150.49003600000287
sg4
g73
sS'acary (time)'
p3205
F148.86879400000907
sS'ghadimi (time)'
p3206
F148.823246999993
sg8
g3151
sS'normal (time)'
p3207
F150.20343399999547
saa(lp3208
(dp3209
S'dicairano (time)'
p3210
F78.86996399998316
sg4
g5
sS'acary (time)'
p3211
F75.30691700000898
sS'ghadimi (time)'
p3212
F74.66929400002118
sg8
S'Box_Stacks-i1000-634-17.hdf5'
p3213
sS'normal (time)'
p3214
F78.12381900000037
sa(dp3215
S'dicairano (time)'
p3216
F81.68176600002334
sg4
g13
sS'acary (time)'
p3217
F81.50801699998556
sS'ghadimi (time)'
p3218
F79.68844399999944
sg8
g3213
sS'normal (time)'
p3219
F81.21366199999466
sa(dp3220
S'dicairano (time)'
p3221
F78.46971599999233
sg4
g19
sS'acary (time)'
p3222
F75.17141700000502
sS'ghadimi (time)'
p3223
F74.76429700001609
sg8
g3213
sS'normal (time)'
p3224
F78.4062130000093
sa(dp3225
S'dicairano (time)'
p3226
F149.39234099999885
sg4
g25
sS'acary (time)'
p3227
F149.19991799999843
sS'ghadimi (time)'
p3228
F146.89404099999228
sg8
g3213
sS'normal (time)'
p3229
F148.67818000001716
sa(dp3230
S'dicairano (time)'
p3231
F152.194593000022
sg4
g31
sS'acary (time)'
p3232
F152.540559999994
sS'ghadimi (time)'
p3233
F152.16926200001035
sg8
g3213
sS'normal (time)'
p3234
F153.40349500000593
sa(dp3235
S'dicairano (time)'
p3236
F149.13012000001618
sg4
g37
sS'acary (time)'
p3237
F155.78733999998076
sS'ghadimi (time)'
p3238
F147.317229999986
sg8
g3213
sS'normal (time)'
p3239
F149.22164699999848
sa(dp3240
S'dicairano (time)'
p3241
F150.3656079999928
sg4
g43
sS'acary (time)'
p3242
F147.02090699999826
sS'ghadimi (time)'
p3243
F147.8489610000106
sg8
g3213
sS'normal (time)'
p3244
F149.80210999998963
sa(dp3245
S'dicairano (time)'
p3246
F145.1986629999883
sg4
g49
sS'acary (time)'
p3247
F146.9000599999854
sS'ghadimi (time)'
p3248
F146.08019100001547
sg8
g3213
sS'normal (time)'
p3249
F145.14816699997755
sa(dp3250
S'dicairano (time)'
p3251
F150.34702000001562
sg4
g55
sS'acary (time)'
p3252
F147.07826300000306
sS'ghadimi (time)'
p3253
F146.9535249999899
sg8
g3213
sS'normal (time)'
p3254
F150.4842199999839
sa(dp3255
S'dicairano (time)'
p3256
F150.61041600001045
sg4
g61
sS'acary (time)'
p3257
F148.36749500001315
sS'ghadimi (time)'
p3258
F148.1688429999922
sg8
g3213
sS'normal (time)'
p3259
F150.4400120000064
sa(dp3260
S'dicairano (time)'
p3261
F153.40594299999066
sg4
g67
sS'acary (time)'
p3262
F154.02758599998197
sS'ghadimi (time)'
p3263
F153.7060610000044
sg8
g3213
sS'normal (time)'
p3264
F153.24199700000463
sa(dp3265
S'dicairano (time)'
p3266
F150.4722480000055
sg4
g73
sS'acary (time)'
p3267
F148.75747700000647
sS'ghadimi (time)'
p3268
F148.67173199998797
sg8
g3213
sS'normal (time)'
p3269
F150.27410199999576
saa(lp3270
(dp3271
S'dicairano (time)'
p3272
F78.58977500000037
sg4
g5
sS'acary (time)'
p3273
F74.91891600002418
sS'ghadimi (time)'
p3274
F74.40635900001507
sg8
S'Box_Stacks-i1000-634-18.hdf5'
p3275
sS'normal (time)'
p3276
F77.8944419999898
sa(dp3277
S'dicairano (time)'
p3278
F81.58203499999945
sg4
g13
sS'acary (time)'
p3279
F81.11044699998456
sS'ghadimi (time)'
p3280
F79.7357829999819
sg8
g3275
sS'normal (time)'
p3281
F81.40152499999385
sa(dp3282
S'dicairano (time)'
p3283
F78.46209899999667
sg4
g19
sS'acary (time)'
p3284
F75.11265700001968
sS'ghadimi (time)'
p3285
F74.81548799999291
sg8
g3275
sS'normal (time)'
p3286
F78.43146700001671
sa(dp3287
S'dicairano (time)'
p3288
F149.47031099998276
sg4
g25
sS'acary (time)'
p3289
F149.27634800001397
sS'ghadimi (time)'
p3290
F147.02973599999677
sg8
g3275
sS'normal (time)'
p3291
F148.73286199997528
sa(dp3292
S'dicairano (time)'
p3293
F152.21651299999212
sg4
g31
sS'acary (time)'
p3294
F152.2681749999756
sS'ghadimi (time)'
p3295
F152.29145099999732
sg8
g3275
sS'normal (time)'
p3296
F152.10380200002692
sa(dp3297
S'dicairano (time)'
p3298
F149.26584100001492
sg4
g37
sS'acary (time)'
p3299
F149.41777400000137
sS'ghadimi (time)'
p3300
F147.34253099997295
sg8
g3275
sS'normal (time)'
p3301
F149.34540900000138
sa(dp3302
S'dicairano (time)'
p3303
F150.53106800001115
sg4
g43
sS'acary (time)'
p3304
F146.95427000001655
sS'ghadimi (time)'
p3305
F148.57528200000525
sg8
g3275
sS'normal (time)'
p3306
F150.0329020000063
sa(dp3307
S'dicairano (time)'
p3308
F145.38979100002325
sg4
g49
sS'acary (time)'
p3309
F146.84784599998966
sS'ghadimi (time)'
p3310
F146.65190500000608
sg8
g3275
sS'normal (time)'
p3311
F145.22198500001105
sa(dp3312
S'dicairano (time)'
p3313
F150.4012470000016
sg4
g55
sS'acary (time)'
p3314
F147.01508800001466
sS'ghadimi (time)'
p3315
F147.4569040000206
sg8
g3275
sS'normal (time)'
p3316
F150.33799
sa(dp3317
S'dicairano (time)'
p3318
F150.67215300002135
sg4
g61
sS'acary (time)'
p3319
F148.36090800000238
sS'ghadimi (time)'
p3320
F148.25030700000934
sg8
g3275
sS'normal (time)'
p3321
F150.37415300001157
sa(dp3322
S'dicairano (time)'
p3323
F153.59343300000182
sg4
g67
sS'acary (time)'
p3324
F153.60743599999114
sS'ghadimi (time)'
p3325
F153.65163400000893
sg8
g3275
sS'normal (time)'
p3326
F153.3950940000068
sa(dp3327
S'dicairano (time)'
p3328
F150.59137199999532
sg4
g73
sS'acary (time)'
p3329
F148.74689000000944
sS'ghadimi (time)'
p3330
F148.94641300002695
sg8
g3275
sS'normal (time)'
p3331
F150.56731400001445
saa(lp3332
(dp3333
S'dicairano (time)'
p3334
F77.78610699999263
sg4
g5
sS'acary (time)'
p3335
F75.08727399999043
sS'ghadimi (time)'
p3336
F74.61386599999969
sg8
S'Box_Stacks-i1000-635-19.hdf5'
p3337
sS'normal (time)'
p3338
F78.36607199997525
sa(dp3339
S'dicairano (time)'
p3340
F81.59615500000655
sg4
g13
sS'acary (time)'
p3341
F81.24416199998814
sS'ghadimi (time)'
p3342
F79.83525600002031
sg8
g3337
sS'normal (time)'
p3343
F81.53411700000288
sa(dp3344
S'dicairano (time)'
p3345
F77.59494700000505
sg4
g19
sS'acary (time)'
p3346
F75.1288099999947
sS'ghadimi (time)'
p3347
F74.85011400000076
sg8
g3337
sS'normal (time)'
p3348
F78.31451299999026
sa(dp3349
S'dicairano (time)'
p3350
F148.60819900000934
sg4
g25
sS'acary (time)'
p3351
F148.30965799998376
sS'ghadimi (time)'
p3352
F147.1156970000011
sg8
g3337
sS'normal (time)'
p3353
F149.19736099999864
sa(dp3354
S'dicairano (time)'
p3355
F152.22946699999738
sg4
g31
sS'acary (time)'
p3356
F152.60485499998322
sS'ghadimi (time)'
p3357
F152.39554399999906
sg8
g3337
sS'normal (time)'
p3358
F152.3829539999715
sa(dp3359
S'dicairano (time)'
p3360
F148.44060200001695
sg4
g37
sS'acary (time)'
p3361
F148.39660099998582
sS'ghadimi (time)'
p3362
F147.29270000001998
sg8
g3337
sS'normal (time)'
p3363
F149.12840700001107
sa(dp3364
S'dicairano (time)'
p3365
F149.63693900001817
sg4
g43
sS'acary (time)'
p3366
F146.86851000000024
sS'ghadimi (time)'
p3367
F147.6060099999886
sg8
g3337
sS'normal (time)'
p3368
F150.177635
sa(dp3369
S'dicairano (time)'
p3370
F145.3327789999894
sg4
g49
sS'acary (time)'
p3371
F145.73342299999786
sS'ghadimi (time)'
p3372
F146.17991999999504
sg8
g3337
sS'normal (time)'
p3373
F153.26507299998775
sa(dp3374
S'dicairano (time)'
p3375
F149.1605120000022
sg4
g55
sS'acary (time)'
p3376
F147.04235000000335
sS'ghadimi (time)'
p3377
F146.84474800000316
sg8
g3337
sS'normal (time)'
p3378
F150.36579799998435
sa(dp3379
S'dicairano (time)'
p3380
F149.9158420000167
sg4
g61
sS'acary (time)'
p3381
F148.64240199999767
sS'ghadimi (time)'
p3382
F148.34980799999903
sg8
g3337
sS'normal (time)'
p3383
F150.29848800000036
sa(dp3384
S'dicairano (time)'
p3385
F153.65052900000592
sg4
g67
sS'acary (time)'
p3386
F153.83281800002442
sS'ghadimi (time)'
p3387
F153.72246699998504
sg8
g3337
sS'normal (time)'
p3388
F153.6502460000047
sa(dp3389
S'dicairano (time)'
p3390
F149.67095099997823
sg4
g73
sS'acary (time)'
p3391
F148.61219600000186
sS'ghadimi (time)'
p3392
F148.78212099999655
sg8
g3337
sS'normal (time)'
p3393
F150.38637200000812
saa(lp3394
(dp3395
S'dicairano (time)'
p3396
F77.97484000000986
sg4
g5
sS'acary (time)'
p3397
F75.17961799999466
sS'ghadimi (time)'
p3398
F74.70544900000095
sg8
S'Box_Stacks-i1000-635-20.hdf5'
p3399
sS'normal (time)'
p3400
F78.04128400000627
sa(dp3401
S'dicairano (time)'
p3402
F81.96373499999754
sg4
g13
sS'acary (time)'
p3403
F81.21986499999184
sS'ghadimi (time)'
p3404
F79.98642600001767
sg8
g3399
sS'normal (time)'
p3405
F81.64377900000545
sa(dp3406
S'dicairano (time)'
p3407
F77.78808500000741
sg4
g19
sS'acary (time)'
p3408
F75.13505199999781
sS'ghadimi (time)'
p3409
F74.98824800000875
sg8
g3399
sS'normal (time)'
p3410
F78.14009400000214
sa(dp3411
S'dicairano (time)'
p3412
F148.6602969999949
sg4
g25
sS'acary (time)'
p3413
F148.27342399998452
sS'ghadimi (time)'
p3414
F147.22395999997389
sg8
g3399
sS'normal (time)'
p3415
F148.82543900000746
sa(dp3416
S'dicairano (time)'
p3417
F152.6353700000036
sg4
g31
sS'acary (time)'
p3418
F152.60901400001603
sS'ghadimi (time)'
p3419
F152.56454200000735
sg8
g3399
sS'normal (time)'
p3420
F152.35510700001032
sa(dp3421
S'dicairano (time)'
p3422
F148.62065900000744
sg4
g37
sS'acary (time)'
p3423
F148.6852690000087
sS'ghadimi (time)'
p3424
F147.49979500001064
sg8
g3399
sS'normal (time)'
p3425
F148.92510799999582
sa(dp3426
S'dicairano (time)'
p3427
F149.97652799999923
sg4
g43
sS'acary (time)'
p3428
F148.17646699998295
sS'ghadimi (time)'
p3429
F147.796525999991
sg8
g3399
sS'normal (time)'
p3430
F150.0577859999903
sa(dp3431
S'dicairano (time)'
p3432
F145.14795199999935
sg4
g49
sS'acary (time)'
p3433
F145.78098900002078
sS'ghadimi (time)'
p3434
F149.241571999999
sg8
g3399
sS'normal (time)'
p3435
F145.50346399997943
sa(dp3436
S'dicairano (time)'
p3437
F147.19128500000807
sg4
g55
sS'acary (time)'
p3438
F146.9215700000059
sS'ghadimi (time)'
p3439
F146.95282600002247
sg8
g3399
sS'normal (time)'
p3440
F149.3560320000106
sa(dp3441
S'dicairano (time)'
p3442
F150.00173600000562
sg4
g61
sS'acary (time)'
p3443
F148.6380380000046
sS'ghadimi (time)'
p3444
F148.41523499999312
sg8
g3399
sS'normal (time)'
p3445
F150.31860199998482
sa(dp3446
S'dicairano (time)'
p3447
F153.8883640000131
sg4
g67
sS'acary (time)'
p3448
F154.01309399999445
sS'ghadimi (time)'
p3449
F153.86876099999063
sg8
g3399
sS'normal (time)'
p3450
F153.7928280000051
sa(dp3451
S'dicairano (time)'
p3452
F149.7955409999995
sg4
g73
sS'acary (time)'
p3453
F148.86307000002125
sS'ghadimi (time)'
p3454
F148.83658699999796
sg8
g3399
sS'normal (time)'
p3455
F150.58039100002497
saa(lp3456
(dp3457
S'dicairano (time)'
p3458
F77.96970800001873
sg4
g5
sS'acary (time)'
p3459
F75.19647200001054
sS'ghadimi (time)'
p3460
F74.58669199998258
sg8
S'Box_Stacks-i1000-635-21.hdf5'
p3461
sS'normal (time)'
p3462
F78.02163800000562
sa(dp3463
S'dicairano (time)'
p3464
F81.60602199999266
sg4
g13
sS'acary (time)'
p3465
F81.3285479999904
sS'ghadimi (time)'
p3466
F79.80390599998645
sg8
g3461
sS'normal (time)'
p3467
F81.63316299999133
sa(dp3468
S'dicairano (time)'
p3469
F77.73104100002092
sg4
g19
sS'acary (time)'
p3470
F75.16825600000448
sS'ghadimi (time)'
p3471
F74.79469999999856
sg8
g3461
sS'normal (time)'
p3472
F78.16690399998333
sa(dp3473
S'dicairano (time)'
p3474
F148.6757670000079
sg4
g25
sS'acary (time)'
p3475
F148.38108900000225
sS'ghadimi (time)'
p3476
F147.1270310000109
sg8
g3461
sS'normal (time)'
p3477
F148.98024999999325
sa(dp3478
S'dicairano (time)'
p3479
F152.26944000000367
sg4
g31
sS'acary (time)'
p3480
F152.69428399999742
sS'ghadimi (time)'
p3481
F152.7646989999921
sg8
g3461
sS'normal (time)'
p3482
F152.42926800000714
sa(dp3483
S'dicairano (time)'
p3484
F148.5272769999865
sg4
g37
sS'acary (time)'
p3485
F148.45839799998794
sS'ghadimi (time)'
p3486
F147.34100899999612
sg8
g3461
sS'normal (time)'
p3487
F148.94385599999805
sa(dp3488
S'dicairano (time)'
p3489
F149.6233479999937
sg4
g43
sS'acary (time)'
p3490
F146.9536950000038
sS'ghadimi (time)'
p3491
F147.93445599998813
sg8
g3461
sS'normal (time)'
p3492
F149.873265000002
sa(dp3493
S'dicairano (time)'
p3494
F145.49951300001703
sg4
g49
sS'acary (time)'
p3495
F145.88100900000427
sS'ghadimi (time)'
p3496
F146.4605140000058
sg8
g3461
sS'normal (time)'
p3497
F145.3891790000198
sa(dp3498
S'dicairano (time)'
p3499
F149.75164000000223
sg4
g55
sS'acary (time)'
p3500
F147.09279100000276
sS'ghadimi (time)'
p3501
F146.88403800001834
sg8
g3461
sS'normal (time)'
p3502
F147.30684900001506
sa(dp3503
S'dicairano (time)'
p3504
F150.013134000008
sg4
g61
sS'acary (time)'
p3505
F148.6225609999965
sS'ghadimi (time)'
p3506
F148.49654100000043
sg8
g3461
sS'normal (time)'
p3507
F150.2646400000085
sa(dp3508
S'dicairano (time)'
p3509
F153.4417839999951
sg4
g67
sS'acary (time)'
p3510
F153.86467099998845
sS'ghadimi (time)'
p3511
F161.7821919999842
sg8
g3461
sS'normal (time)'
p3512
F154.06934799999
sa(dp3513
S'dicairano (time)'
p3514
F150.24342400001478
sg4
g73
sS'acary (time)'
p3515
F149.3065250000218
sS'ghadimi (time)'
p3516
F149.43324199999915
sg8
g3461
sS'normal (time)'
p3517
F150.93991300000926
saa(lp3518
(dp3519
S'dicairano (time)'
p3520
F78.26506799997878
sg4
g5
sS'acary (time)'
p3521
F75.61117399999057
sS'ghadimi (time)'
p3522
F75.03028400000767
sg8
S'Box_Stacks-i1000-636-25.hdf5'
p3523
sS'normal (time)'
p3524
F78.46344399999361
sa(dp3525
S'dicairano (time)'
p3526
F81.89000899999519
sg4
g13
sS'acary (time)'
p3527
F81.72100200000568
sS'ghadimi (time)'
p3528
F80.07855400000699
sg8
g3523
sS'normal (time)'
p3529
F81.9137069999997
sa(dp3530
S'dicairano (time)'
p3531
F78.1213979999884
sg4
g19
sS'acary (time)'
p3532
F75.61352199999965
sS'ghadimi (time)'
p3533
F75.32215599998017
sg8
g3523
sS'normal (time)'
p3534
F78.58461499999976
sa(dp3535
S'dicairano (time)'
p3536
F149.23683999999776
sg4
g25
sS'acary (time)'
p3537
F149.38443299999926
sS'ghadimi (time)'
p3538
F147.85724399998435
sg8
g3523
sS'normal (time)'
p3539
F149.48284499999136
sa(dp3540
S'dicairano (time)'
p3541
F153.05258500002674
sg4
g31
sS'acary (time)'
p3542
F153.34513200001675
sS'ghadimi (time)'
p3543
F153.25128600001335
sg8
g3523
sS'normal (time)'
p3544
F152.98317699998734
sa(dp3545
S'dicairano (time)'
p3546
F149.237369999988
sg4
g37
sS'acary (time)'
p3547
F149.21866600000067
sS'ghadimi (time)'
p3548
F148.11853300000075
sg8
g3523
sS'normal (time)'
p3549
F149.6730760000064
sa(dp3550
S'dicairano (time)'
p3551
F150.3920329999819
sg4
g43
sS'acary (time)'
p3552
F147.74491700000362
sS'ghadimi (time)'
p3553
F148.5426799999841
sg8
g3523
sS'normal (time)'
p3554
F150.75946699999622
sa(dp3555
S'dicairano (time)'
p3556
F145.6351110000105
sg4
g49
sS'acary (time)'
p3557
F146.50689499999862
sS'ghadimi (time)'
p3558
F149.14528900000732
sg8
g3523
sS'normal (time)'
p3559
F146.17349699998158
sa(dp3560
S'dicairano (time)'
p3561
F150.61036200000672
sg4
g55
sS'acary (time)'
p3562
F147.8692040000169
sS'ghadimi (time)'
p3563
F148.32384299999103
sg8
g3523
sS'normal (time)'
p3564
F150.80863200000022
sa(dp3565
S'dicairano (time)'
p3566
F150.7047040000034
sg4
g61
sS'acary (time)'
p3567
F149.58316799998283
sS'ghadimi (time)'
p3568
F149.14896099999896
sg8
g3523
sS'normal (time)'
p3569
F150.7068609999842
sa(dp3570
S'dicairano (time)'
p3571
F154.29579100001138
sg4
g67
sS'acary (time)'
p3572
F154.63166600000113
sS'ghadimi (time)'
p3573
F154.10723900000448
sg8
g3523
sS'normal (time)'
p3574
F154.19212200000766
sa(dp3575
S'dicairano (time)'
p3576
F150.45257100000163
sg4
g73
sS'acary (time)'
p3577
F149.57328099998995
sS'ghadimi (time)'
p3578
F149.37573800000246
sg8
g3523
sS'normal (time)'
p3579
F151.3117820000043
saa(lp3580
(dp3581
S'dicairano (time)'
p3582
F78.1770409999881
sg4
g5
sS'acary (time)'
p3583
F75.60886300000129
sS'ghadimi (time)'
p3584
F75.03469400000176
sg8
S'Box_Stacks-i1000-636-26.hdf5'
p3585
sS'normal (time)'
p3586
F78.4392710000102
sa(dp3587
S'dicairano (time)'
p3588
F79.60393699997803
sg4
g13
sS'acary (time)'
p3589
F81.89223100000527
sS'ghadimi (time)'
p3590
F80.18996300001163
sg8
g3585
sS'normal (time)'
p3591
F81.87184900001739
sa(dp3592
S'dicairano (time)'
p3593
F78.4998449999839
sg4
g19
sS'acary (time)'
p3594
F75.93684499998926
sS'ghadimi (time)'
p3595
F75.19829699999536
sg8
g3585
sS'normal (time)'
p3596
F78.4872360000154
sa(dp3597
S'dicairano (time)'
p3598
F149.26309500000207
sg4
g25
sS'acary (time)'
p3599
F149.5249499999918
sS'ghadimi (time)'
p3600
F147.72417999999016
sg8
g3585
sS'normal (time)'
p3601
F149.71854500001064
sa(dp3602
S'dicairano (time)'
p3603
F150.55110400001286
sg4
g31
sS'acary (time)'
p3604
F153.32639400000335
sS'ghadimi (time)'
p3605
F153.21504999999888
sg8
g3585
sS'normal (time)'
p3606
F153.035023000004
sa(dp3607
S'dicairano (time)'
p3608
F149.08691700000782
sg4
g37
sS'acary (time)'
p3609
F149.1593549999816
sS'ghadimi (time)'
p3610
F147.99340000000666
sg8
g3585
sS'normal (time)'
p3611
F149.61390100000426
sa(dp3612
S'dicairano (time)'
p3613
F150.43361899998854
sg4
g43
sS'acary (time)'
p3614
F147.8345739999786
sS'ghadimi (time)'
p3615
F148.75728799999342
sg8
g3585
sS'normal (time)'
p3616
F150.6967130000121
sa(dp3617
S'dicairano (time)'
p3618
F146.10659899999155
sg4
g49
sS'acary (time)'
p3619
F146.7935169999837
sS'ghadimi (time)'
p3620
F146.59883800000534
sg8
g3585
sS'normal (time)'
p3621
F145.77467199999955
sa(dp3622
S'dicairano (time)'
p3623
F150.28782100000535
sg4
g55
sS'acary (time)'
p3624
F149.69418300001416
sS'ghadimi (time)'
p3625
F147.89037899998948
sg8
g3585
sS'normal (time)'
p3626
F150.2844890000124
sa(dp3627
S'dicairano (time)'
p3628
F150.67754799997783
sg4
g61
sS'acary (time)'
p3629
F149.47113299998455
sS'ghadimi (time)'
p3630
F149.23398599997745
sg8
g3585
sS'normal (time)'
p3631
F151.29840599998715
sa(dp3632
S'dicairano (time)'
p3633
F151.91817399999127
sg4
g67
sS'acary (time)'
p3634
F154.81388999999035
sS'ghadimi (time)'
p3635
F154.95025400002487
sg8
g3585
sS'normal (time)'
p3636
F154.23181599995587
sa(dp3637
S'dicairano (time)'
p3638
F150.62570999999298
sg4
g73
sS'acary (time)'
p3639
F149.61779300001217
sS'ghadimi (time)'
p3640
F149.44048500002827
sg8
g3585
sS'normal (time)'
p3641
F151.34409299999243
saa(lp3642
(dp3643
S'dicairano (time)'
p3644
F79.13737299997592
sg4
g5
sS'acary (time)'
p3645
F75.71437099995092
sS'ghadimi (time)'
p3646
F75.07017800002359
sg8
S'Box_Stacks-i1000-636-27.hdf5'
p3647
sS'normal (time)'
p3648
F78.4911720000091
sa(dp3649
S'dicairano (time)'
p3650
F81.81852000002982
sg4
g13
sS'acary (time)'
p3651
F82.01957800000673
sS'ghadimi (time)'
p3652
F80.34284800000023
sg8
g3647
sS'normal (time)'
p3653
F82.13069899997208
sa(dp3654
S'dicairano (time)'
p3655
F78.64964099996723
sg4
g19
sS'acary (time)'
p3656
F75.59688600001391
sS'ghadimi (time)'
p3657
F83.12154000002192
sg8
g3647
sS'normal (time)'
p3658
F78.29714499996044
sa(dp3659
S'dicairano (time)'
p3660
F149.64517800003523
sg4
g25
sS'acary (time)'
p3661
F148.93836100003682
sS'ghadimi (time)'
p3662
F147.41781099996297
sg8
g3647
sS'normal (time)'
p3663
F149.1635669999523
sa(dp3664
S'dicairano (time)'
p3665
F152.41294700000435
sg4
g31
sS'acary (time)'
p3666
F152.84986800001934
sS'ghadimi (time)'
p3667
F153.16099599999143
sg8
g3647
sS'normal (time)'
p3668
F153.0550429999712
sa(dp3669
S'dicairano (time)'
p3670
F149.1566650000168
sg4
g37
sS'acary (time)'
p3671
F149.0340440000291
sS'ghadimi (time)'
p3672
F147.97321399999782
sg8
g3647
sS'normal (time)'
p3673
F149.64316300000064
sa(dp3674
S'dicairano (time)'
p3675
F151.09126899996772
sg4
g43
sS'acary (time)'
p3676
F147.7135090000229
sS'ghadimi (time)'
p3677
F148.41972399997758
sg8
g3647
sS'normal (time)'
p3678
F150.619944999984
sa(dp3679
S'dicairano (time)'
p3680
F145.9534350000322
sg4
g49
sS'acary (time)'
p3681
F146.57441699999617
sS'ghadimi (time)'
p3682
F150.52903600002173
sg8
g3647
sS'normal (time)'
p3683
F146.25945200002752
sa(dp3684
S'dicairano (time)'
p3685
F150.4689360000193
sg4
g55
sS'acary (time)'
p3686
F148.23698200000217
sS'ghadimi (time)'
p3687
F148.63186500000302
sg8
g3647
sS'normal (time)'
p3688
F150.61202000000048
sa(dp3689
S'dicairano (time)'
p3690
F151.3581450000056
sg4
g61
sS'acary (time)'
p3691
F149.41155499999877
sS'ghadimi (time)'
p3692
F149.2027759999619
sg8
g3647
sS'normal (time)'
p3693
F151.36732499999925
sa(dp3694
S'dicairano (time)'
p3695
F154.134073000052
sg4
g67
sS'acary (time)'
p3696
F154.81892299995525
sS'ghadimi (time)'
p3697
F154.5168619999895
sg8
g3647
sS'normal (time)'
p3698
F154.42667600000277
sa(dp3699
S'dicairano (time)'
p3700
F150.5563480000128
sg4
g73
sS'acary (time)'
p3701
F149.5757459999877
sS'ghadimi (time)'
p3702
F149.59774399996968
sg8
g3647
sS'normal (time)'
p3703
F151.61837799998466
saa(lp3704
(dp3705
S'dicairano (time)'
p3706
F78.73649099998875
sg4
g5
sS'acary (time)'
p3707
F75.60035099997185
sS'ghadimi (time)'
p3708
F75.11493699997663
sg8
S'Box_Stacks-i1000-637-30.hdf5'
p3709
sS'normal (time)'
p3710
F78.49628299998585
sa(dp3711
S'dicairano (time)'
p3712
F82.16800299996976
sg4
g13
sS'acary (time)'
p3713
F81.89755700004753
sS'ghadimi (time)'
p3714
F80.27607199997874
sg8
g3709
sS'normal (time)'
p3715
F81.89373700000579
sa(dp3716
S'dicairano (time)'
p3717
F78.08059600001434
sg4
g19
sS'acary (time)'
p3718
F75.73006299999543
sS'ghadimi (time)'
p3719
F75.33687800000189
sg8
g3709
sS'normal (time)'
p3720
F78.85391199996229
sa(dp3721
S'dicairano (time)'
p3722
F149.81206699996255
sg4
g25
sS'acary (time)'
p3723
F149.13828600000124
sS'ghadimi (time)'
p3724
F148.02475400001276
sg8
g3709
sS'normal (time)'
p3725
F149.61703700001817
sa(dp3726
S'dicairano (time)'
p3727
F153.0991689999937
sg4
g31
sS'acary (time)'
p3728
F153.29696500004502
sS'ghadimi (time)'
p3729
F153.45373199996538
sg8
g3709
sS'normal (time)'
p3730
F152.98575900000287
sa(dp3731
S'dicairano (time)'
p3732
F148.6871960000135
sg4
g37
sS'acary (time)'
p3733
F149.29664899996715
sS'ghadimi (time)'
p3734
F147.51752799999667
sg8
g3709
sS'normal (time)'
p3735
F149.29781299998285
sa(dp3736
S'dicairano (time)'
p3737
F150.58595399995102
sg4
g43
sS'acary (time)'
p3738
F147.13032300001942
sS'ghadimi (time)'
p3739
F148.23649099998875
sg8
g3709
sS'normal (time)'
p3740
F150.07957299996633
sa(dp3741
S'dicairano (time)'
p3742
F145.39274300000397
sg4
g49
sS'acary (time)'
p3743
F146.09639099997003
sS'ghadimi (time)'
p3744
F146.58565799996722
sg8
g3709
sS'normal (time)'
p3745
F145.38663600001018
sa(dp3746
S'dicairano (time)'
p3747
F149.91618499998003
sg4
g55
sS'acary (time)'
p3748
F147.38153300003614
sS'ghadimi (time)'
p3749
F147.13676600001054
sg8
g3709
sS'normal (time)'
p3750
F149.36345000000438
sa(dp3751
S'dicairano (time)'
p3752
F150.79046200000448
sg4
g61
sS'acary (time)'
p3753
F148.7379770000116
sS'ghadimi (time)'
p3754
F148.6566870000097
sg8
g3709
sS'normal (time)'
p3755
F150.78719700005604
sa(dp3756
S'dicairano (time)'
p3757
F153.8684540000395
sg4
g67
sS'acary (time)'
p3758
F154.20093300001463
sS'ghadimi (time)'
p3759
F154.25609400001122
sg8
g3709
sS'normal (time)'
p3760
F153.73192400002154
sa(dp3761
S'dicairano (time)'
p3762
F150.10275400005048
sg4
g73
sS'acary (time)'
p3763
F149.0065590000013
sS'ghadimi (time)'
p3764
F149.03059600002598
sg8
g3709
sS'normal (time)'
p3765
F150.69621999998344
saa(lp3766
(dp3767
S'dicairano (time)'
p3768
F78.78517400001874
sg4
g5
sS'acary (time)'
p3769
F75.4792379999999
sS'ghadimi (time)'
p3770
F74.99791199999163
sg8
S'Box_Stacks-i1000-638-13.hdf5'
p3771
sS'normal (time)'
p3772
F78.75053400004981
sa(dp3773
S'dicairano (time)'
p3774
F81.97144200000912
sg4
g13
sS'acary (time)'
p3775
F81.43518199998653
sS'ghadimi (time)'
p3776
F80.02791299996898
sg8
g3771
sS'normal (time)'
p3777
F81.74473299999954
sa(dp3778
S'dicairano (time)'
p3779
F78.92888199997833
sg4
g19
sS'acary (time)'
p3780
F75.53459599998314
sS'ghadimi (time)'
p3781
F75.32035100000212
sg8
g3771
sS'normal (time)'
p3782
F78.86709399998654
sa(dp3783
S'dicairano (time)'
p3784
F149.72487700002966
sg4
g25
sS'acary (time)'
p3785
F149.6688369999756
sS'ghadimi (time)'
p3786
F147.4776740000234
sg8
g3771
sS'normal (time)'
p3787
F149.65044800000032
sa(dp3788
S'dicairano (time)'
p3789
F152.76628199999686
sg4
g31
sS'acary (time)'
p3790
F152.952236000041
sS'ghadimi (time)'
p3791
F152.77650700003142
sg8
g3771
sS'normal (time)'
p3792
F152.61347800004296
sa(dp3793
S'dicairano (time)'
p3794
F149.68368800001917
sg4
g37
sS'acary (time)'
p3795
F148.68155299994396
sS'ghadimi (time)'
p3796
F156.03034300002037
sg8
g3771
sS'normal (time)'
p3797
F149.8051689999993
sa(dp3798
S'dicairano (time)'
p3799
F150.9334150000359
sg4
g43
sS'acary (time)'
p3800
F147.3240269999951
sS'ghadimi (time)'
p3801
F147.82160200004
sg8
g3771
sS'normal (time)'
p3802
F150.79335900000297
sa(dp3803
S'dicairano (time)'
p3804
F145.7210840000189
sg4
g49
sS'acary (time)'
p3805
F146.58423099998618
sS'ghadimi (time)'
p3806
F152.02241199999116
sg8
g3771
sS'normal (time)'
p3807
F145.7230190000264
sa(dp3808
S'dicairano (time)'
p3809
F150.77976300002774
sg4
g55
sS'acary (time)'
p3810
F147.59133500000462
sS'ghadimi (time)'
p3811
F147.3754959999933
sg8
g3771
sS'normal (time)'
p3812
F150.24455300002592
sa(dp3813
S'dicairano (time)'
p3814
F150.99368899996625
sg4
g61
sS'acary (time)'
p3815
F148.8427410000004
sS'ghadimi (time)'
p3816
F148.67613300000085
sg8
g3771
sS'normal (time)'
p3817
F150.82955899997614
sa(dp3818
S'dicairano (time)'
p3819
F154.03747799998382
sg4
g67
sS'acary (time)'
p3820
F154.32123599998886
sS'ghadimi (time)'
p3821
F154.3160589999752
sg8
g3771
sS'normal (time)'
p3822
F153.96100800001295
sa(dp3823
S'dicairano (time)'
p3824
F150.98045899998397
sg4
g73
sS'acary (time)'
p3825
F149.31633399997372
sS'ghadimi (time)'
p3826
F149.37893700000132
sg8
g3771
sS'normal (time)'
p3827
F150.84502299997257
saa(lp3828
(dp3829
S'dicairano (time)'
p3830
F78.5034169999999
sg4
g5
sS'acary (time)'
p3831
F75.67165000003297
sS'ghadimi (time)'
p3832
F75.05204400001094
sg8
S'Box_Stacks-i1000-639-35.hdf5'
p3833
sS'normal (time)'
p3834
F78.64902599999914
sa(dp3835
S'dicairano (time)'
p3836
F82.78584399999818
sg4
g13
sS'acary (time)'
p3837
F82.22319300001254
sS'ghadimi (time)'
p3838
F80.54851799999597
sg8
g3833
sS'normal (time)'
p3839
F82.4551700000302
sa(dp3840
S'dicairano (time)'
p3841
F78.39106900000479
sg4
g19
sS'acary (time)'
p3842
F75.77838700002758
sS'ghadimi (time)'
p3843
F75.56998299999395
sg8
g3833
sS'normal (time)'
p3844
F78.81493300001603
sa(dp3845
S'dicairano (time)'
p3846
F149.71128300001146
sg4
g25
sS'acary (time)'
p3847
F149.55841400002828
sS'ghadimi (time)'
p3848
F148.08512400003383
sg8
g3833
sS'normal (time)'
p3849
F149.8312530000112
sa(dp3850
S'dicairano (time)'
p3851
F153.97693199996138
sg4
g31
sS'acary (time)'
p3852
F154.19649299996672
sS'ghadimi (time)'
p3853
F153.82974600000307
sg8
g3833
sS'normal (time)'
p3854
F153.5309750000015
sa(dp3855
S'dicairano (time)'
p3856
F149.67794700001832
sg4
g37
sS'acary (time)'
p3857
F149.93800999998348
sS'ghadimi (time)'
p3858
F148.36728700000094
sg8
g3833
sS'normal (time)'
p3859
F149.96134099998744
sa(dp3860
S'dicairano (time)'
p3861
F150.95171200000914
sg4
g43
sS'acary (time)'
p3862
F148.1636259999941
sS'ghadimi (time)'
p3863
F149.42898700002115
sg8
g3833
sS'normal (time)'
p3864
F151.15636599995196
sa(dp3865
S'dicairano (time)'
p3866
F146.2232049999875
sg4
g49
sS'acary (time)'
p3867
F148.5678509999998
sS'ghadimi (time)'
p3868
F147.37029799999436
sg8
g3833
sS'normal (time)'
p3869
F146.2386820000247
sa(dp3870
S'dicairano (time)'
p3871
F151.31809399998747
sg4
g55
sS'acary (time)'
p3872
F148.5190570000559
sS'ghadimi (time)'
p3873
F147.97615100000985
sg8
g3833
sS'normal (time)'
p3874
F150.57162599998992
sa(dp3875
S'dicairano (time)'
p3876
F150.99157300003571
sg4
g61
sS'acary (time)'
p3877
F149.71872500004247
sS'ghadimi (time)'
p3878
F149.4301090000081
sg8
g3833
sS'normal (time)'
p3879
F151.16720399999758
sa(dp3880
S'dicairano (time)'
p3881
F155.19716400001198
sg4
g67
sS'acary (time)'
p3882
F154.97066699998686
sS'ghadimi (time)'
p3883
F155.00173700001324
sg8
g3833
sS'normal (time)'
p3884
F154.94506299996283
sa(dp3885
S'dicairano (time)'
p3886
F151.01054200000362
sg4
g73
sS'acary (time)'
p3887
F149.85076500003925
sS'ghadimi (time)'
p3888
F149.76619799999753
sg8
g3833
sS'normal (time)'
p3889
F151.6263720000279
saa(lp3890
(dp3891
S'dicairano (time)'
p3892
F78.3140790000325
sg4
g5
sS'acary (time)'
p3893
F75.668227999995
sS'ghadimi (time)'
p3894
F75.14119400002528
sg8
S'Box_Stacks-i1000-641-37.hdf5'
p3895
sS'normal (time)'
p3896
F78.5126009999658
sa(dp3897
S'dicairano (time)'
p3898
F82.33182999998098
sg4
g13
sS'acary (time)'
p3899
F81.69775300001493
sS'ghadimi (time)'
p3900
F80.31353999994462
sg8
g3895
sS'normal (time)'
p3901
F82.12118099996587
sa(dp3902
S'dicairano (time)'
p3903
F78.0483649999951
sg4
g19
sS'acary (time)'
p3904
F75.64854600001127
sS'ghadimi (time)'
p3905
F75.35093799995957
sg8
g3895
sS'normal (time)'
p3906
F78.35078900004737
sa(dp3907
S'dicairano (time)'
p3908
F149.4126180000021
sg4
g25
sS'acary (time)'
p3909
F149.1554850000539
sS'ghadimi (time)'
p3910
F148.05938900000183
sg8
g3895
sS'normal (time)'
p3911
F149.82256100000814
sa(dp3912
S'dicairano (time)'
p3913
F153.4321920000366
sg4
g31
sS'acary (time)'
p3914
F153.480045000033
sS'ghadimi (time)'
p3915
F153.60028999997303
sg8
g3895
sS'normal (time)'
p3916
F153.3025300000445
sa(dp3917
S'dicairano (time)'
p3918
F149.40581799997017
sg4
g37
sS'acary (time)'
p3919
F149.53410299995448
sS'ghadimi (time)'
p3920
F149.59778800001368
sg8
g3895
sS'normal (time)'
p3921
F149.524430999998
sa(dp3922
S'dicairano (time)'
p3923
F150.48907000001054
sg4
g43
sS'acary (time)'
p3924
F147.80695300002117
sS'ghadimi (time)'
p3925
F149.15440599998692
sg8
g3895
sS'normal (time)'
p3926
F150.71739200002048
sa(dp3927
S'dicairano (time)'
p3928
F146.3533199999947
sg4
g49
sS'acary (time)'
p3929
F147.06101900001522
sS'ghadimi (time)'
p3930
F147.61683300003642
sg8
g3895
sS'normal (time)'
p3931
F146.4774080000352
sa(dp3932
S'dicairano (time)'
p3933
F150.14154099998996
sg4
g55
sS'acary (time)'
p3934
F156.3195429999614
sS'ghadimi (time)'
p3935
F147.9899420000147
sg8
g3895
sS'normal (time)'
p3936
F151.05612200003816
sa(dp3937
S'dicairano (time)'
p3938
F150.87831599998754
sg4
g61
sS'acary (time)'
p3939
F149.59943200001726
sS'ghadimi (time)'
p3940
F149.360604000045
sg8
g3895
sS'normal (time)'
p3941
F151.39363599999342
sa(dp3942
S'dicairano (time)'
p3943
F154.84868100000313
sg4
g67
sS'acary (time)'
p3944
F154.98545999999624
sS'ghadimi (time)'
p3945
F154.80432300001848
sg8
g3895
sS'normal (time)'
p3946
F154.61023900000146
sa(dp3947
S'dicairano (time)'
p3948
F150.6721120000002
sg4
g73
sS'acary (time)'
p3949
F149.69445100001758
sS'ghadimi (time)'
p3950
F155.4516580000054
sg8
g3895
sS'normal (time)'
p3951
F151.37760499998694
saa(lp3952
(dp3953
S'dicairano (time)'
p3954
F78.25756699999329
sg4
g5
sS'acary (time)'
p3955
F75.74812300002668
sS'ghadimi (time)'
p3956
F75.17513200000394
sg8
S'Box_Stacks-i1000-642-38.hdf5'
p3957
sS'normal (time)'
p3958
F78.97031500004232
sa(dp3959
S'dicairano (time)'
p3960
F82.3652529999963
sg4
g13
sS'acary (time)'
p3961
F82.09002699999837
sS'ghadimi (time)'
p3962
F80.52971699996851
sg8
g3957
sS'normal (time)'
p3963
F82.38914599997224
sa(dp3964
S'dicairano (time)'
p3965
F79.04090199997881
sg4
g19
sS'acary (time)'
p3966
F75.67522199999075
sS'ghadimi (time)'
p3967
F75.46768800000427
sg8
g3957
sS'normal (time)'
p3968
F78.8289999999688
sa(dp3969
S'dicairano (time)'
p3970
F149.39816699997755
sg4
g25
sS'acary (time)'
p3971
F149.3019520000089
sS'ghadimi (time)'
p3972
F148.15699399996083
sg8
g3957
sS'normal (time)'
p3973
F150.1115540000028
sa(dp3974
S'dicairano (time)'
p3975
F153.63647099997615
sg4
g31
sS'acary (time)'
p3976
F153.63748599996325
sS'ghadimi (time)'
p3977
F153.81409599998733
sg8
g3957
sS'normal (time)'
p3978
F153.55556000000797
sa(dp3979
S'dicairano (time)'
p3980
F150.08224999997765
sg4
g37
sS'acary (time)'
p3981
F149.12192100001266
sS'ghadimi (time)'
p3982
F148.29662099998677
sg8
g3957
sS'normal (time)'
p3983
F150.03151200001594
sa(dp3984
S'dicairano (time)'
p3985
F150.72613399999682
sg4
g43
sS'acary (time)'
p3986
F147.93258299998706
sS'ghadimi (time)'
p3987
F149.33344499999657
sg8
g3957
sS'normal (time)'
p3988
F151.23245100001805
sa(dp3989
S'dicairano (time)'
p3990
F146.19904300000053
sg4
g49
sS'acary (time)'
p3991
F147.16920499998378
sS'ghadimi (time)'
p3992
F147.45933899999363
sg8
g3957
sS'normal (time)'
p3993
F146.34730199998012
sa(dp3994
S'dicairano (time)'
p3995
F151.2676339999889
sg4
g55
sS'acary (time)'
p3996
F148.19030600000406
sS'ghadimi (time)'
p3997
F148.04000799998175
sg8
g3957
sS'normal (time)'
p3998
F149.93509599997196
sa(dp3999
S'dicairano (time)'
p4000
F150.7399260000093
sg4
g61
sS'acary (time)'
p4001
F149.65355600003386
sS'ghadimi (time)'
p4002
F149.49296100001084
sg8
g3957
sS'normal (time)'
p4003
F151.40405000001192
sa(dp4004
S'dicairano (time)'
p4005
F154.82682999997633
sg4
g67
sS'acary (time)'
p4006
F154.61123300000327
sS'ghadimi (time)'
p4007
F155.55558899999596
sg8
g3957
sS'normal (time)'
p4008
F155.36130599997705
sa(dp4009
S'dicairano (time)'
p4010
F152.00755100004608
sg4
g73
sS'acary (time)'
p4011
F150.4070270000375
sS'ghadimi (time)'
p4012
F150.34862300002715
sg8
g3957
sS'normal (time)'
p4013
F151.7413570000208
saa(lp4014
(dp4015
S'dicairano (time)'
p4016
F78.51532199996291
sg4
g5
sS'acary (time)'
p4017
F76.02014599996619
sS'ghadimi (time)'
p4018
F75.42362700001104
sg8
S'Box_Stacks-i1000-643-36.hdf5'
p4019
sS'normal (time)'
p4020
F78.82867300004
sa(dp4021
S'dicairano (time)'
p4022
F82.95806400000583
sg4
g13
sS'acary (time)'
p4023
F82.42067500000121
sS'ghadimi (time)'
p4024
F80.89693400001852
sg8
g4019
sS'normal (time)'
p4025
F82.73130200000014
sa(dp4026
S'dicairano (time)'
p4027
F78.56903299997794
sg4
g19
sS'acary (time)'
p4028
F76.24037600000156
sS'ghadimi (time)'
p4029
F75.82691599999089
sg8
g4019
sS'normal (time)'
p4030
F79.15281500003766
sa(dp4031
S'dicairano (time)'
p4032
F150.08488099998794
sg4
g25
sS'acary (time)'
p4033
F150.2161639999831
sS'ghadimi (time)'
p4034
F148.70909600000596
sg8
g4019
sS'normal (time)'
p4035
F150.5847139999969
sa(dp4036
S'dicairano (time)'
p4037
F154.38921100000152
sg4
g31
sS'acary (time)'
p4038
F154.58648900000844
sS'ghadimi (time)'
p4039
F154.61310899996897
sg8
g4019
sS'normal (time)'
p4040
F154.203703999985
sa(dp4041
S'dicairano (time)'
p4042
F150.1344810000155
sg4
g37
sS'acary (time)'
p4043
F150.27396999998018
sS'ghadimi (time)'
p4044
F148.85333899996476
sg8
g4019
sS'normal (time)'
p4045
F155.09149199997773
sa(dp4046
S'dicairano (time)'
p4047
F150.6455540000461
sg4
g43
sS'acary (time)'
p4048
F149.20336399995722
sS'ghadimi (time)'
p4049
F148.91787399997702
sg8
g4019
sS'normal (time)'
p4050
F151.00692499999423
sa(dp4051
S'dicairano (time)'
p4052
F146.5060550000053
sg4
g49
sS'acary (time)'
p4053
F146.91213800001424
sS'ghadimi (time)'
p4054
F147.50887899997178
sg8
g4019
sS'normal (time)'
p4055
F146.66375700000208
sa(dp4056
S'dicairano (time)'
p4057
F150.86465399997542
sg4
g55
sS'acary (time)'
p4058
F149.32116799999494
sS'ghadimi (time)'
p4059
F148.60699399997247
sg8
g4019
sS'normal (time)'
p4060
F150.02762399998028
sa(dp4061
S'dicairano (time)'
p4062
F150.87940700002946
sg4
g61
sS'acary (time)'
p4063
F149.6870549999876
sS'ghadimi (time)'
p4064
F149.58757299999706
sg8
g4019
sS'normal (time)'
p4065
F151.51282799994806
sa(dp4066
S'dicairano (time)'
p4067
F155.10684199997922
sg4
g67
sS'acary (time)'
p4068
F155.24421699997038
sS'ghadimi (time)'
p4069
F155.16940999997314
sg8
g4019
sS'normal (time)'
p4070
F163.2297060000128
sa(dp4071
S'dicairano (time)'
p4072
F151.33250300004147
sg4
g73
sS'acary (time)'
p4073
F150.29841900005704
sS'ghadimi (time)'
p4074
F150.2094989999896
sg8
g4019
sS'normal (time)'
p4075
F152.27801299997373
saa(lp4076
(dp4077
S'dicairano (time)'
p4078
F0.9702330000000075
sg4
g5
sS'acary (time)'
p4079
F0.8841949999914505
sS'p_ratio ghadimi (time)'
p4080
g82
(g86
S'>\x16\xf4}\xf3\xabB@'
p4081
tp4082
Rp4083
sS'p_ratio acary (time)'
p4084
g82
(g86
S'6\xcf\xea\xbdq^\xf2?'
p4085
tp4086
Rp4087
sS'ghadimi (time)'
p4088
F40.99416800000472
sS'p_ratio dicairano (time)'
p4089
g82
(g86
S'\x00\x00\x00\x00\x00\x00\xf0?'
p4090
tp4091
Rp4092
sg8
S'Box_Stacks-i1000-77-2.hdf5'
p4093
sS'p_ratio normal (time)'
p4094
g82
(g86
S'\xc2#h\xc1\xcc\xa4\xf8?'
p4095
tp4096
Rp4097
sS'normal (time)'
p4098
F2.097792999993544
sa(dp4099
S'dicairano (time)'
p4100
F40.609348999976646
sg4
g13
sS'acary (time)'
p4101
F1.8389060000190511
sS'p_ratio ghadimi (time)'
p4102
g82
(g86
S'xHw3\xc5\x8dB@'
p4103
tp4104
Rp4105
sS'p_ratio acary (time)'
p4106
g82
(g86
S'\x13k\x92G\xf5\x19\x03@'
p4107
tp4108
Rp4109
sS'ghadimi (time)'
p4110
F40.73532900004648
sS'p_ratio dicairano (time)'
p4111
g82
(g86
S'\xceA\x89\xf9x\xedD@'
p4112
tp4113
Rp4114
sg8
g4093
sS'p_ratio normal (time)'
p4115
g82
(g86
S'\xfc\xef\x13\xa2\xe4\x8f=@'
p4116
tp4117
Rp4118
sS'normal (time)'
p4119
F40.263437999994494
sa(dp4120
S'dicairano (time)'
p4121
F1.1777659999788739
sg4
g19
sS'acary (time)'
p4122
F0.7701660000020638
sS'p_ratio ghadimi (time)'
p4123
g82
(g86
S'Wv\x17\x1f\xc7\xb4B@'
p4124
tp4125
Rp4126
sS'p_ratio acary (time)'
p4127
g82
(g86
S'\x00\x00\x00\x00\x00\x00\xf0?'
p4128
tp4129
Rp4130
sS'ghadimi (time)'
p4131
F41.0698679999914
sS'p_ratio dicairano (time)'
p4132
g82
(g86
S'\xe0\xdb\xa8\x94"l\xf3?'
p4133
tp4134
Rp4135
sg8
g4093
sS'p_ratio normal (time)'
p4136
g82
(g86
S'\x00\x00\x00\x00\x00\x00\xf0?'
p4137
tp4138
Rp4139
sS'normal (time)'
p4140
F1.3619959999923594
sa(dp4141
S'dicairano (time)'
p4142
F1.5209639999666251
sg4
g25
sS'acary (time)'
p4143
F1.3620910000172444
sS'p_ratio ghadimi (time)'
p4144
g82
(g86
S'\x00\x00\x00\x00\x00\x00\xf0?'
p4145
tp4146
Rp4147
sS'p_ratio acary (time)'
p4148
g82
(g86
S'\xd0\xb4\xaa\t\x0eL\xfc?'
p4149
tp4150
Rp4151
sS'ghadimi (time)'
p4152
F1.09776299999794
sS'p_ratio dicairano (time)'
p4153
g82
(g86
S'~1\x8c\xa5\x00\x15\xf9?'
p4154
tp4155
Rp4156
sg8
g4093
sS'p_ratio normal (time)'
p4157
g82
(g86
S';\x92/mh\xeb\xf6?'
p4158
tp4159
Rp4160
sS'normal (time)'
p4161
F1.9510219999938272
sa(dp4162
S'dicairano (time)'
p4163
F64.13804600003641
sg4
g31
sS'acary (time)'
p4164
F2.863584000035189
sS'p_ratio ghadimi (time)'
p4165
g82
(g86
S'\xe8\xe23\x1ba\x19\x06@'
p4166
tp4167
Rp4168
sS'p_ratio acary (time)'
p4169
g82
(g86
S'\n\xf3\xf5~\xbf\xbe\r@'
p4170
tp4171
Rp4172
sS'ghadimi (time)'
p4173
F3.0324519999558106
sS'p_ratio dicairano (time)'
p4174
g82
(g86
S'\x19r\\\xb8\xc5\x86P@'
p4175
tp4176
Rp4177
sg8
g4093
sS'p_ratio normal (time)'
p4178
g82
(g86
S'\x0c\xaf\xae"\x0bgG@'
p4179
tp4180
Rp4181
sS'normal (time)'
p4182
F63.74826000002213
sa(dp4183
S'dicairano (time)'
p4184
F1.7832139999954961
sg4
g37
sS'acary (time)'
p4185
F1.1754040000378154
sS'p_ratio ghadimi (time)'
p4186
g82
(g86
S'\xec%,\xf2\x0b\xe2\xf3?'
p4187
tp4188
Rp4189
sS'p_ratio acary (time)'
p4190
g82
(g86
S'\xc1K\xc6\xe60k\xf8?'
p4191
tp4192
Rp4193
sS'ghadimi (time)'
p4194
F1.3641760000027716
sS'p_ratio dicairano (time)'
p4195
g82
(g86
S'\xa9b0p"h\xfd?'
p4196
tp4197
Rp4198
sg8
g4093
sS'p_ratio normal (time)'
p4199
g82
(g86
S'\xbf\xe2M\xa8\xed\x1e\xf9?'
p4200
tp4201
Rp4202
sS'normal (time)'
p4203
F2.138403000019025
sa(dp4204
S'dicairano (time)'
p4205
F3.286614000040572
sg4
g43
sS'acary (time)'
p4206
F63.519020000007
sS'p_ratio ghadimi (time)'
p4207
g82
(g86
S'\x1b\x0b\x07\x84\x87n\x01@'
p4208
tp4209
Rp4210
sS'p_ratio acary (time)'
p4211
g82
(g86
S't\x01vr]\x9eT@'
p4212
tp4213
Rp4214
sS'ghadimi (time)'
p4215
F2.391991999989841
sS'p_ratio dicairano (time)'
p4216
g82
(g86
S'\x05V\x0em~\x19\x0b@'
p4217
tp4218
Rp4219
sg8
g4093
sS'p_ratio normal (time)'
p4220
g82
(g86
S'\x00\x00\x00\x00\x00\x00\xf8\x7f'
p4221
tp4222
Rp4223
sS'normal (time)'
p4224
Fnan
sa(dp4225
S'dicairano (time)'
p4226
F64.36538299999665
sg4
g49
sS'acary (time)'
p4227
F64.5296339999768
sS'p_ratio ghadimi (time)'
p4228
g82
(g86
S'\xef\xa7\x06\x0c\\NM@'
p4229
tp4230
Rp4231
sS'p_ratio acary (time)'
p4232
g82
(g86
S'\xbas\x03\x94X\xf2T@'
p4233
tp4234
Rp4235
sS'ghadimi (time)'
p4236
F64.34228700003587
sS'p_ratio dicairano (time)'
p4237
g82
(g86
S'\xaf\xee\x1a\xaf\xc4\x95P@'
p4238
tp4239
Rp4240
sg8
g4093
sS'p_ratio normal (time)'
p4241
g82
(g86
S'A}\xfb+e\x9eG@'
p4242
tp4243
Rp4244
sS'normal (time)'
p4245
F64.3372349999845
sa(dp4246
S'dicairano (time)'
p4247
F62.45526899996912
sg4
g55
sS'acary (time)'
p4248
F62.830271999991965
sS'p_ratio ghadimi (time)'
p4249
g82
(g86
S"\x971'A\xd9\x15M@"
p4250
tp4251
Rp4252
sS'p_ratio acary (time)'
p4253
g82
(g86
S'$R\xc5z!eT@'
p4254
tp4255
Rp4256
sS'ghadimi (time)'
p4257
F63.857634000014514
sS'p_ratio dicairano (time)'
p4258
g82
(g86
S'\xa8\xe4b:\xc5\x17P@'
p4259
tp4260
Rp4261
sg8
g4093
sS'p_ratio normal (time)'
p4262
g82
(g86
S'\x0e\x81\xf4a\x01\xebF@'
p4263
tp4264
Rp4265
sS'normal (time)'
p4266
F62.42842099996051
sa(dp4267
S'dicairano (time)'
p4268
F2.4894299999577925
sg4
g61
sS'acary (time)'
p4269
F3.1338890000479296
sS'p_ratio ghadimi (time)'
p4270
g82
(g86
S'\xb1p\xc4\xa3\xa0\xb1\x07@'
p4271
tp4272
Rp4273
sS'p_ratio acary (time)'
p4274
g82
(g86
S'\xc3\xecr_\xc4F\x10@'
p4275
tp4276
Rp4277
sS'ghadimi (time)'
p4278
F3.251280000025872
sS'p_ratio dicairano (time)'
p4279
g82
(g86
S'\xd8S\xd5{\xc5\x86\x04@'
p4280
tp4281
Rp4282
sg8
g4093
sS'p_ratio normal (time)'
p4283
g82
(g86
S'\xb1\x8f\xb3>\x8a\xd4\x00@'
p4284
tp4285
Rp4286
sS'normal (time)'
p4287
F2.865339000010863
sa(dp4288
S'dicairano (time)'
p4289
F30.543841999955475
sg4
g67
sS'acary (time)'
p4290
F64.74001700000372
sS'p_ratio ghadimi (time)'
p4291
g82
(g86
S'\xba5\xcb\xedHmM@'
p4292
tp4293
Rp4294
sS'p_ratio acary (time)'
p4295
g82
(g86
S'?\xc5[ \xd4\x03U@'
p4296
tp4297
Rp4298
sS'ghadimi (time)'
p4299
F64.60751100000925
sS'p_ratio dicairano (time)'
p4300
g82
(g86
S'\x17\x88=\x8e\x1e{?@'
p4301
tp4302
Rp4303
sg8
g4093
sS'p_ratio normal (time)'
p4304
g82
(g86
S'L\xb0\xd3\x02\xc1kG@'
p4305
tp4306
Rp4307
sS'normal (time)'
p4308
F63.79838200000813
sa(dp4309
S'dicairano (time)'
p4310
F2.3064460000023246
sg4
g73
sS'acary (time)'
p4311
F3.0789399999775924
sS'p_ratio ghadimi (time)'
p4312
g82
(g86
S'\xaa\x01m\x92=\x81\xfd?'
p4313
tp4314
Rp4315
sS'p_ratio acary (time)'
p4316
g82
(g86
S'\tz\x80dj\xfb\x0f@'
p4317
tp4318
Rp4319
sS'ghadimi (time)'
p4320
F2.0243330000084825
sS'p_ratio dicairano (time)'
p4321
g82
(g86
S'\x1b?<\xd1\x85\x04\x03@'
p4322
tp4323
Rp4324
sg8
g4093
sS'p_ratio normal (time)'
p4325
g82
(g86
S'\xa05\xa1\xac\xbe\xf7\x01@'
p4326
tp4327
Rp4328
sS'normal (time)'
p4329
F3.0590010000159964
saa.