(lp0
(lp1
(dp2
S'dicairano (time)'
p3
F79.17424899999999
sS'solver'
p4
S'cp_N'
p5
sS'acary (time)'
p6
F74.720197
sS'ghadimi (time)'
p7
F75.803957
sS'problem'
p8
S'Box_Stacks-i0024-642-53.hdf5'
p9
sS'normal (time)'
p10
F79.728126
sa(dp11
S'dicairano (time)'
p12
F82.84418599999998
sg4
S'cp_R'
p13
sS'acary (time)'
p14
F82.59330299999999
sS'ghadimi (time)'
p15
F83.46443399999998
sg8
g9
sS'normal (time)'
p16
F83.61642900000004
sa(dp17
S'dicairano (time)'
p18
F78.60464000000002
sg4
S'cp_RR'
p19
sS'acary (time)'
p20
F76.258916
sS'ghadimi (time)'
p21
F75.99588299999994
sg8
g9
sS'normal (time)'
p22
F77.85968500000001
sa(dp23
S'dicairano (time)'
p24
F148.68571199999997
sg4
S'vp_N_He'
p25
sS'acary (time)'
p26
F148.20628599999998
sS'ghadimi (time)'
p27
F146.99426999999991
sg8
g9
sS'normal (time)'
p28
F149.0595780000001
sa(dp29
S'dicairano (time)'
p30
F152.35495100000003
sg4
S'vp_R_He'
p31
sS'acary (time)'
p32
F152.734013
sS'ghadimi (time)'
p33
F152.77789800000005
sg8
g9
sS'normal (time)'
p34
F152.39185999999972
sa(dp35
S'dicairano (time)'
p36
F148.518055
sg4
S'vp_RR_He'
p37
sS'acary (time)'
p38
F148.86069899999984
sS'ghadimi (time)'
p39
F147.32741399999986
sg8
g9
sS'normal (time)'
p40
F148.7947939999999
sa(dp41
S'dicairano (time)'
p42
F149.42716599999994
sg4
S'vp_N_Spectral'
p43
sS'acary (time)'
p44
F146.8629350000001
sS'ghadimi (time)'
p45
F148.2162519999997
sg8
g9
sS'normal (time)'
p46
F150.27664800000002
sa(dp47
S'dicairano (time)'
p48
F145.5227450000002
sg4
S'vp_R_Spectral'
p49
sS'acary (time)'
p50
F146.38317600000028
sS'ghadimi (time)'
p51
F146.38831400000026
sg8
g9
sS'normal (time)'
p52
F145.3520950000002
sa(dp53
S'dicairano (time)'
p54
F147.4826290000001
sg4
S'vp_RR_Spectral'
p55
sS'acary (time)'
p56
F147.16588899999988
sS'ghadimi (time)'
p57
F146.98325300000033
sg8
g9
sS'normal (time)'
p58
F149.8270790000006
sa(dp59
S'dicairano (time)'
p60
F149.74511799999982
sg4
S'vp_N_Wohlberg'
p61
sS'acary (time)'
p62
F148.4430999999995
sS'ghadimi (time)'
p63
F148.3572720000002
sg8
g9
sS'normal (time)'
p64
F158.29326800000035
sa(dp65
S'dicairano (time)'
p66
F153.72215199999937
sg4
S'vp_R_Wohlberg'
p67
sS'acary (time)'
p68
F154.12937800000054
sS'ghadimi (time)'
p69
F154.02852600000006
sg8
g9
sS'normal (time)'
p70
F153.95449300000018
sa(dp71
S'dicairano (time)'
p72
F149.84444900000017
sg4
S'vp_RR_Wohlberg'
p73
sS'acary (time)'
p74
F148.78158600000006
sS'ghadimi (time)'
p75
F149.00692900000013
sg8
g9
sS'normal (time)'
p76
F150.35763099999986
saa(lp77
(dp78
S'dicairano (time)'
p79
F0.5689370000000054
sg4
g5
sS'acary (time)'
p80
F0.6769349999995029
sS'ghadimi (time)'
p81
F0.6145260000002963
sg8
S'Box_Stacks-i0029-31-0.hdf5'
p82
sS'normal (time)'
p83
F0.677068999999392
sa(dp84
S'dicairano (time)'
p85
F0.4229400000003807
sg4
g13
sS'acary (time)'
p86
F0.6156510000000708
sS'ghadimi (time)'
p87
F0.6074280000002545
sg8
g82
sS'normal (time)'
p88
F0.6049220000004425
sa(dp89
S'dicairano (time)'
p90
F0.4961380000004283
sg4
g19
sS'acary (time)'
p91
F0.501498999999967
sS'ghadimi (time)'
p92
F0.5339360000007218
sg8
g82
sS'normal (time)'
p93
F0.4935960000002524
sa(dp94
S'dicairano (time)'
p95
F0.7808149999991656
sg4
g25
sS'acary (time)'
p96
F0.8940629999997327
sS'ghadimi (time)'
p97
F0.7740720000001602
sg8
g82
sS'normal (time)'
p98
F0.8812529999995604
sa(dp99
S'dicairano (time)'
p100
F0.9954049999996641
sg4
g31
sS'acary (time)'
p101
F1.2815510000000359
sS'ghadimi (time)'
p102
F1.8885230000005322
sg8
g82
sS'normal (time)'
p103
F1.2785640000001877
sa(dp104
S'dicairano (time)'
p105
F0.8898239999998623
sg4
g37
sS'acary (time)'
p106
F0.9526430000005348
sS'ghadimi (time)'
p107
F0.7193260000003647
sg8
g82
sS'normal (time)'
p108
F0.9389670000000478
sa(dp109
S'dicairano (time)'
p110
F0.9971869999999399
sg4
g43
sS'acary (time)'
p111
F1.1162190000004557
sS'ghadimi (time)'
p112
F1.004533999999694
sg8
g82
sS'normal (time)'
p113
F1.1062409999994998
sa(dp114
S'dicairano (time)'
p115
F4.6406389999992825
sg4
g49
sS'acary (time)'
p116
F6.4840839999997115
sS'ghadimi (time)'
p117
F10.055787000000237
sg8
g82
sS'normal (time)'
p118
F6.442213999999694
sa(dp119
S'dicairano (time)'
p120
F55.39378900000065
sg4
g55
sS'acary (time)'
p121
Fnan
sS'ghadimi (time)'
p122
F4.5194940000001225
sg8
g82
sS'normal (time)'
p123
Fnan
sa(dp124
S'dicairano (time)'
p125
F1.3303719999994428
sg4
g61
sS'acary (time)'
p126
F1.3853279999993902
sS'ghadimi (time)'
p127
F1.323457999999846
sg8
g82
sS'normal (time)'
p128
F1.3964659999992364
sa(dp129
S'dicairano (time)'
p130
F2.5932960000000094
sg4
g67
sS'acary (time)'
p131
F3.654834999999366
sS'ghadimi (time)'
p132
F2.2634729999999763
sg8
g82
sS'normal (time)'
p133
F3.6489879999999175
sa(dp134
S'dicairano (time)'
p135
F1.1026849999998376
sg4
g73
sS'acary (time)'
p136
F1.3333920000004582
sS'ghadimi (time)'
p137
F1.1098309999997582
sg8
g82
sS'normal (time)'
p138
F1.3234959999999774
saa(lp139
(dp140
S'dicairano (time)'
p141
F0.746251000000484
sg4
g5
sS'acary (time)'
p142
F0.745122000000265
sS'ghadimi (time)'
p143
F1.3180780000002414
sg8
S'Box_Stacks-i0045-52-1.hdf5'
p144
sS'normal (time)'
p145
F1.3845860000001267
sa(dp146
S'dicairano (time)'
p147
F0.9005820000002132
sg4
g13
sS'acary (time)'
p148
F0.9035160000003088
sS'ghadimi (time)'
p149
F0.7091049999999086
sg8
g144
sS'normal (time)'
p150
F1.1634869999998045
sa(dp151
S'dicairano (time)'
p152
F0.7427749999997104
sg4
g19
sS'acary (time)'
p153
F0.7892799999999625
sS'ghadimi (time)'
p154
F0.748381999999765
sg8
g144
sS'normal (time)'
p155
F0.7392410000002201
sa(dp156
S'dicairano (time)'
p157
F1.1105989999996382
sg4
g25
sS'acary (time)'
p158
F1.1282490000003236
sS'ghadimi (time)'
p159
F1.0628799999994953
sg8
g144
sS'normal (time)'
p160
F1.1677490000001853
sa(dp161
S'dicairano (time)'
p162
F1.1685069999994084
sg4
g31
sS'acary (time)'
p163
F1.1265860000003158
sS'ghadimi (time)'
p164
F0.9395509999994829
sg8
g144
sS'normal (time)'
p165
F1.6330440000001545
sa(dp166
S'dicairano (time)'
p167
F1.053118999999242
sg4
g37
sS'acary (time)'
p168
F1.0627469999999448
sS'ghadimi (time)'
p169
F0.8296810000001642
sg8
g144
sS'normal (time)'
p170
F1.0560919999998077
sa(dp171
S'dicairano (time)'
p172
Fnan
sg4
g43
sS'acary (time)'
p173
Fnan
sS'ghadimi (time)'
p174
F1.428407999999763
sg8
g144
sS'normal (time)'
p175
F3.1035009999995964
sa(dp176
S'dicairano (time)'
p177
F9.704083000000537
sg4
g49
sS'acary (time)'
p178
F15.409776999999849
sS'ghadimi (time)'
p179
F22.98094399999991
sg8
g144
sS'normal (time)'
p180
F10.258292999999867
sa(dp181
S'dicairano (time)'
p182
F58.523731999999654
sg4
g55
sS'acary (time)'
p183
F58.68413599999985
sS'ghadimi (time)'
p184
F58.727945999999974
sg8
g144
sS'normal (time)'
p185
F58.33059099999991
sa(dp186
S'dicairano (time)'
p187
F2.3646600000001854
sg4
g61
sS'acary (time)'
p188
F58.36030500000015
sS'ghadimi (time)'
p189
F2.1213150000003225
sg8
g144
sS'normal (time)'
p190
F2.231093000000328
sa(dp191
S'dicairano (time)'
p192
F5.99861300000066
sg4
g67
sS'acary (time)'
p193
F58.52799099999993
sS'ghadimi (time)'
p194
F58.48801700000058
sg8
g144
sS'normal (time)'
p195
F4.3431140000002415
sa(dp196
S'dicairano (time)'
p197
F1.539158999999927
sg4
g73
sS'acary (time)'
p198
F1.656050999999934
sS'ghadimi (time)'
p199
F1.6606480000000374
sg8
g144
sS'normal (time)'
p200
F1.7069780000001629
saa(lp201
(dp202
S'dicairano (time)'
p203
F1.0138669999996637
sg4
g5
sS'acary (time)'
p204
F0.9970530000000508
sS'ghadimi (time)'
p205
F1.81833000000006
sg8
S'Box_Stacks-i0102-63-3.hdf5'
p206
sS'normal (time)'
p207
F1.771429000000353
sa(dp208
S'dicairano (time)'
p209
F38.829258000000664
sg4
g13
sS'acary (time)'
p210
F2.9251860000003944
sS'ghadimi (time)'
p211
F38.923743999999715
sg8
g206
sS'normal (time)'
p212
F38.51043899999968
sa(dp213
S'dicairano (time)'
p214
F0.8638330000003407
sg4
g19
sS'acary (time)'
p215
F0.8517769999998563
sS'ghadimi (time)'
p216
F0.9219640000001164
sg8
g206
sS'normal (time)'
p217
F1.0506900000000314
sa(dp218
S'dicairano (time)'
p219
F1.5568249999996624
sg4
g25
sS'acary (time)'
p220
F1.5370250000005399
sS'ghadimi (time)'
p221
F1.0947999999998501
sg8
g206
sS'normal (time)'
p222
F1.9174620000003415
sa(dp223
S'dicairano (time)'
p224
F60.47719199999938
sg4
g31
sS'acary (time)'
p225
F4.515794000000824
sS'ghadimi (time)'
p226
F60.574273999999605
sg8
g206
sS'normal (time)'
p227
F60.19087600000057
sa(dp228
S'dicairano (time)'
p229
F1.3255150000004505
sg4
g37
sS'acary (time)'
p230
F1.1743440000000192
sS'ghadimi (time)'
p231
F1.4565890000003492
sg8
g206
sS'normal (time)'
p232
F1.6228259999998045
sa(dp233
S'dicairano (time)'
p234
F3.74598799999967
sg4
g43
sS'acary (time)'
p235
Fnan
sS'ghadimi (time)'
p236
F1.830601999999999
sg8
g206
sS'normal (time)'
p237
Fnan
sa(dp238
S'dicairano (time)'
p239
F8.098834000000352
sg4
g49
sS'acary (time)'
p240
F6.724782000000232
sS'ghadimi (time)'
p241
F13.937380999999732
sg8
g206
sS'normal (time)'
p242
F12.32439499999964
sa(dp243
S'dicairano (time)'
p244
F24.573239999999714
sg4
g55
sS'acary (time)'
p245
Fnan
sS'ghadimi (time)'
p246
Fnan
sg8
g206
sS'normal (time)'
p247
Fnan
sa(dp248
S'dicairano (time)'
p249
F2.300111999999899
sg4
g61
sS'acary (time)'
p250
F3.5004040000003442
sS'ghadimi (time)'
p251
F61.049159000000145
sg8
g206
sS'normal (time)'
p252
F2.4180719999994835
sa(dp253
S'dicairano (time)'
p254
F30.055167999999867
sg4
g67
sS'acary (time)'
p255
F61.13472999999976
sS'ghadimi (time)'
p256
F61.022877000000335
sg8
g206
sS'normal (time)'
p257
F35.79250800000045
sa(dp258
S'dicairano (time)'
p259
F2.2461789999997563
sg4
g73
sS'acary (time)'
p260
F5.294368000000759
sS'ghadimi (time)'
p261
F2.210971000000427
sg8
g206
sS'normal (time)'
p262
F2.367110000000139
saa(lp263
(dp264
S'dicairano (time)'
p265
F77.70633799999996
sg4
g5
sS'acary (time)'
p266
F74.96111199999996
sS'ghadimi (time)'
p267
F74.40254499999992
sg8
S'Box_Stacks-i0106-642-48.hdf5'
p268
sS'normal (time)'
p269
F78.36721399999988
sa(dp270
S'dicairano (time)'
p271
F81.36324799999966
sg4
g13
sS'acary (time)'
p272
F81.007239999999
sS'ghadimi (time)'
p273
F79.43166599999859
sg8
g268
sS'normal (time)'
p274
F81.52609800000027
sa(dp275
S'dicairano (time)'
p276
F77.58656700000029
sg4
g19
sS'acary (time)'
p277
F75.08148799999981
sS'ghadimi (time)'
p278
F74.91921600000023
sg8
g268
sS'normal (time)'
p279
F78.0360639999999
sa(dp280
S'dicairano (time)'
p281
F148.71830899999986
sg4
g25
sS'acary (time)'
p282
F148.39091000000008
sS'ghadimi (time)'
p283
F147.31563599999936
sg8
g268
sS'normal (time)'
p284
F149.39945100000114
sa(dp285
S'dicairano (time)'
p286
F152.42264400000022
sg4
g31
sS'acary (time)'
p287
F152.76278400000047
sS'ghadimi (time)'
p288
F152.91262200000165
sg8
g268
sS'normal (time)'
p289
F152.8087599999999
sa(dp290
S'dicairano (time)'
p291
F148.70750100000078
sg4
g37
sS'acary (time)'
p292
F149.03944499999852
sS'ghadimi (time)'
p293
F147.62774600000012
sg8
g268
sS'normal (time)'
p294
F149.27159700000084
sa(dp295
S'dicairano (time)'
p296
F149.78410900000017
sg4
g43
sS'acary (time)'
p297
F147.03245499999866
sS'ghadimi (time)'
p298
F148.52861399999892
sg8
g268
sS'normal (time)'
p299
F150.49841000000015
sa(dp300
S'dicairano (time)'
p301
F145.6419249999999
sg4
g49
sS'acary (time)'
p302
F146.31759299999976
sS'ghadimi (time)'
p303
F146.66415600000073
sg8
g268
sS'normal (time)'
p304
F145.649813
sa(dp305
S'dicairano (time)'
p306
F147.8494410000003
sg4
g55
sS'acary (time)'
p307
F147.31724400000166
sS'ghadimi (time)'
p308
F147.3145569999997
sg8
g268
sS'normal (time)'
p309
F150.1648610000011
sa(dp310
S'dicairano (time)'
p311
F150.22905700000047
sg4
g61
sS'acary (time)'
p312
F148.93184800000017
sS'ghadimi (time)'
p313
F148.68351000000075
sg8
g268
sS'normal (time)'
p314
F150.73183299999982
sa(dp315
S'dicairano (time)'
p316
F154.04367699999966
sg4
g67
sS'acary (time)'
p317
F154.46406200000092
sS'ghadimi (time)'
p318
F154.17487299999993
sg8
g268
sS'normal (time)'
p319
F154.11456499999986
sa(dp320
S'dicairano (time)'
p321
F150.19407900000078
sg4
g73
sS'acary (time)'
p322
F149.16489400000137
sS'ghadimi (time)'
p323
F149.31997500000034
sg8
g268
sS'normal (time)'
p324
F150.58786800000053
saa(lp325
(dp326
S'dicairano (time)'
p327
F77.67882099999952
sg4
g5
sS'acary (time)'
p328
F74.95253400000001
sS'ghadimi (time)'
p329
F74.5116080000007
sg8
S'Box_Stacks-i0129-642-49.hdf5'
p330
sS'normal (time)'
p331
F78.32378400000016
sa(dp332
S'dicairano (time)'
p333
F81.76051999999981
sg4
g13
sS'acary (time)'
p334
F81.06009900000026
sS'ghadimi (time)'
p335
F79.49540100000013
sg8
g330
sS'normal (time)'
p336
F81.41572900000028
sa(dp337
S'dicairano (time)'
p338
F77.50522799999999
sg4
g19
sS'acary (time)'
p339
F75.02580499999931
sS'ghadimi (time)'
p340
F74.8320789999998
sg8
g330
sS'normal (time)'
p341
F77.98317499999939
sa(dp342
S'dicairano (time)'
p343
F148.9606789999998
sg4
g25
sS'acary (time)'
p344
F148.7718679999998
sS'ghadimi (time)'
p345
F147.5737160000008
sg8
g330
sS'normal (time)'
p346
F149.65457400000014
sa(dp347
S'dicairano (time)'
p348
F152.8483699999997
sg4
g31
sS'acary (time)'
p349
F153.05271899999934
sS'ghadimi (time)'
p350
F153.057057
sg8
g330
sS'normal (time)'
p351
F152.79944699999942
sa(dp352
S'dicairano (time)'
p353
F148.77809200000047
sg4
g37
sS'acary (time)'
p354
F149.18914899999982
sS'ghadimi (time)'
p355
F147.64158900000257
sg8
g330
sS'normal (time)'
p356
F149.29924200000096
sa(dp357
S'dicairano (time)'
p358
F150.00204200000007
sg4
g43
sS'acary (time)'
p359
F147.33145499999955
sS'ghadimi (time)'
p360
F148.4568180000024
sg8
g330
sS'normal (time)'
p361
F150.76387199999954
sa(dp362
S'dicairano (time)'
p363
F145.77985199999966
sg4
g49
sS'acary (time)'
p364
F146.59744099999807
sS'ghadimi (time)'
p365
F146.71572100000049
sg8
g330
sS'normal (time)'
p366
F145.72155600000042
sa(dp367
S'dicairano (time)'
p368
F147.89638399999967
sg4
g55
sS'acary (time)'
p369
F147.54868700000225
sS'ghadimi (time)'
p370
F147.2902780000004
sg8
g330
sS'normal (time)'
p371
F150.24525300000096
sa(dp372
S'dicairano (time)'
p373
F150.2115019999983
sg4
g61
sS'acary (time)'
p374
F148.98519699999815
sS'ghadimi (time)'
p375
F148.75563200000033
sg8
g330
sS'normal (time)'
p376
F150.5059169999986
sa(dp377
S'dicairano (time)'
p378
F154.1568249999982
sg4
g67
sS'acary (time)'
p379
F162.32100100000025
sS'ghadimi (time)'
p380
F154.08300899999813
sg8
g330
sS'normal (time)'
p381
F153.99524799999926
sa(dp382
S'dicairano (time)'
p383
F150.04340500000035
sg4
g73
sS'acary (time)'
p384
F149.11211800000092
sS'ghadimi (time)'
p385
F149.082236000002
sg8
g330
sS'normal (time)'
p386
F150.85464099999808
saa(lp387
(dp388
S'dicairano (time)'
p389
F77.97113099999842
sg4
g5
sS'acary (time)'
p390
F75.41303200000038
sS'ghadimi (time)'
p391
F74.83888000000297
sg8
S'Box_Stacks-i0141-642-51.hdf5'
p392
sS'normal (time)'
p393
F78.69976899999892
sa(dp394
S'dicairano (time)'
p395
F81.85765700000047
sg4
g13
sS'acary (time)'
p396
F81.48549899999853
sS'ghadimi (time)'
p397
F79.98830599999928
sg8
g392
sS'normal (time)'
p398
F81.86672999999792
sa(dp399
S'dicairano (time)'
p400
F77.87604099999953
sg4
g19
sS'acary (time)'
p401
F75.40554299999712
sS'ghadimi (time)'
p402
F75.19412100000045
sg8
g392
sS'normal (time)'
p403
F78.25126000000091
sa(dp404
S'dicairano (time)'
p405
F149.2887800000026
sg4
g25
sS'acary (time)'
p406
F149.04236700000183
sS'ghadimi (time)'
p407
F147.80346500000087
sg8
g392
sS'normal (time)'
p408
F149.8724489999986
sa(dp409
S'dicairano (time)'
p410
F153.1799549999996
sg4
g31
sS'acary (time)'
p411
F153.4624960000001
sS'ghadimi (time)'
p412
F153.18589799999972
sg8
g392
sS'normal (time)'
p413
F152.70650000000023
sa(dp414
S'dicairano (time)'
p415
F148.56862100000217
sg4
g37
sS'acary (time)'
p416
F148.99977500000023
sS'ghadimi (time)'
p417
F147.58658800000194
sg8
g392
sS'normal (time)'
p418
F149.06334499999866
sa(dp419
S'dicairano (time)'
p420
F149.85896700000012
sg4
g43
sS'acary (time)'
p421
F147.15197699999771
sS'ghadimi (time)'
p422
F148.45800200000303
sg8
g392
sS'normal (time)'
p423
F150.45527800000127
sa(dp424
S'dicairano (time)'
p425
F145.50185799999963
sg4
g49
sS'acary (time)'
p426
F146.14328199999727
sS'ghadimi (time)'
p427
F146.37626100000125
sg8
g392
sS'normal (time)'
p428
F145.54178899999897
sa(dp429
S'dicairano (time)'
p430
F147.66104700000142
sg4
g55
sS'acary (time)'
p431
F147.1826460000011
sS'ghadimi (time)'
p432
F147.22449899999992
sg8
g392
sS'normal (time)'
p433
F149.88743899999827
sa(dp434
S'dicairano (time)'
p435
F149.96534600000086
sg4
g61
sS'acary (time)'
p436
F148.73265299999912
sS'ghadimi (time)'
p437
F148.45895999999993
sg8
g392
sS'normal (time)'
p438
F150.2990979999995
sa(dp439
S'dicairano (time)'
p440
F153.7856950000023
sg4
g67
sS'acary (time)'
p441
F154.27566999999908
sS'ghadimi (time)'
p442
F154.07271599999876
sg8
g392
sS'normal (time)'
p443
F153.98235900000145
sa(dp444
S'dicairano (time)'
p445
F150.07273599999826
sg4
g73
sS'acary (time)'
p446
F149.18370100000175
sS'ghadimi (time)'
p447
F149.32294000000184
sg8
g392
sS'normal (time)'
p448
F150.56598099999974
saa(lp449
(dp450
S'dicairano (time)'
p451
F77.76294899999994
sg4
g5
sS'acary (time)'
p452
F75.0901159999994
sS'ghadimi (time)'
p453
F74.59383499999967
sg8
S'Box_Stacks-i0167-642-47.hdf5'
p454
sS'normal (time)'
p455
F78.47480200000064
sa(dp456
S'dicairano (time)'
p457
F81.65082899999834
sg4
g13
sS'acary (time)'
p458
F81.31153600000107
sS'ghadimi (time)'
p459
F79.58635799999684
sg8
g454
sS'normal (time)'
p460
F81.73435299999983
sa(dp461
S'dicairano (time)'
p462
F77.68776199999775
sg4
g19
sS'acary (time)'
p463
F75.12507999999798
sS'ghadimi (time)'
p464
F74.98344399999769
sg8
g454
sS'normal (time)'
p465
F78.14864099999977
sa(dp466
S'dicairano (time)'
p467
F148.7688930000004
sg4
g25
sS'acary (time)'
p468
F148.5143640000024
sS'ghadimi (time)'
p469
F147.42856799999936
sg8
g454
sS'normal (time)'
p470
F149.36751100000038
sa(dp471
S'dicairano (time)'
p472
F152.77325999999812
sg4
g31
sS'acary (time)'
p473
F152.89979099999982
sS'ghadimi (time)'
p474
F152.93686000000162
sg8
g454
sS'normal (time)'
p475
F152.72764599999937
sa(dp476
S'dicairano (time)'
p477
F148.68027300000176
sg4
g37
sS'acary (time)'
p478
F148.91492500000095
sS'ghadimi (time)'
p479
F147.85634500000015
sg8
g454
sS'normal (time)'
p480
F149.04323999999906
sa(dp481
S'dicairano (time)'
p482
F150.02110999999786
sg4
g43
sS'acary (time)'
p483
F147.4827269999987
sS'ghadimi (time)'
p484
F148.50286800000322
sg8
g454
sS'normal (time)'
p485
F150.5491809999985
sa(dp486
S'dicairano (time)'
p487
F145.41295700000046
sg4
g49
sS'acary (time)'
p488
F146.2076620000007
sS'ghadimi (time)'
p489
F146.43059300000095
sg8
g454
sS'normal (time)'
p490
F145.40840300000127
sa(dp491
S'dicairano (time)'
p492
F147.73676299999715
sg4
g55
sS'acary (time)'
p493
F147.22498300000007
sS'ghadimi (time)'
p494
F147.0668369999985
sg8
g454
sS'normal (time)'
p495
F149.9316800000015
sa(dp496
S'dicairano (time)'
p497
F150.04889299999923
sg4
g61
sS'acary (time)'
p498
F148.9109869999993
sS'ghadimi (time)'
p499
F148.61836499999845
sg8
g454
sS'normal (time)'
p500
F150.39585600000282
sa(dp501
S'dicairano (time)'
p502
F153.9541849999987
sg4
g67
sS'acary (time)'
p503
F154.38866899999994
sS'ghadimi (time)'
p504
F154.04684599999746
sg8
g454
sS'normal (time)'
p505
F154.13430999999764
sa(dp506
S'dicairano (time)'
p507
F150.0635570000013
sg4
g73
sS'acary (time)'
p508
F149.08104100000128
sS'ghadimi (time)'
p509
F149.29697500000475
sg8
g454
sS'normal (time)'
p510
F150.53755400000227
saa(lp511
(dp512
S'dicairano (time)'
p513
F77.78026500000124
sg4
g5
sS'acary (time)'
p514
F75.06283700000495
sS'ghadimi (time)'
p515
F74.57697200000257
sg8
S'Box_Stacks-i0174-642-52.hdf5'
p516
sS'normal (time)'
p517
F78.40414099999907
sa(dp518
S'dicairano (time)'
p519
F81.56448900000396
sg4
g13
sS'acary (time)'
p520
F81.01040900000226
sS'ghadimi (time)'
p521
F85.2545140000002
sg8
g516
sS'normal (time)'
p522
F83.81307000000379
sa(dp523
S'dicairano (time)'
p524
F78.01907499999652
sg4
g19
sS'acary (time)'
p525
F75.54295000000275
sS'ghadimi (time)'
p526
F75.2218670000002
sg8
g516
sS'normal (time)'
p527
F78.38328300000285
sa(dp528
S'dicairano (time)'
p529
F149.34109100000205
sg4
g25
sS'acary (time)'
p530
F149.06149200000073
sS'ghadimi (time)'
p531
F147.36800599999697
sg8
g516
sS'normal (time)'
p532
F149.56655600000522
sa(dp533
S'dicairano (time)'
p534
F152.66404599999805
sg4
g31
sS'acary (time)'
p535
F152.89892500000133
sS'ghadimi (time)'
p536
F152.92746899999474
sg8
g516
sS'normal (time)'
p537
F152.79043300000194
sa(dp538
S'dicairano (time)'
p539
F148.65613999999914
sg4
g37
sS'acary (time)'
p540
F148.91186699999525
sS'ghadimi (time)'
p541
F147.61202700000285
sg8
g516
sS'normal (time)'
p542
F149.15853600000264
sa(dp543
S'dicairano (time)'
p544
F149.9209120000014
sg4
g43
sS'acary (time)'
p545
F147.21114499999385
sS'ghadimi (time)'
p546
F148.48267599999963
sg8
g516
sS'normal (time)'
p547
F150.45322200000373
sa(dp548
S'dicairano (time)'
p549
F145.71510000000126
sg4
g49
sS'acary (time)'
p550
F146.27902099999483
sS'ghadimi (time)'
p551
F146.47276200000488
sg8
g516
sS'normal (time)'
p552
F145.50757000000158
sa(dp553
S'dicairano (time)'
p554
F147.79782899999555
sg4
g55
sS'acary (time)'
p555
F147.384112000007
sS'ghadimi (time)'
p556
F147.1850590000031
sg8
g516
sS'normal (time)'
p557
F150.10783000000083
sa(dp558
S'dicairano (time)'
p559
F150.1842949999991
sg4
g61
sS'acary (time)'
p560
F148.91938899999514
sS'ghadimi (time)'
p561
F148.72984500000166
sg8
g516
sS'normal (time)'
p562
F150.64240000000427
sa(dp563
S'dicairano (time)'
p564
F154.08883900000365
sg4
g67
sS'acary (time)'
p565
F154.25026100000105
sS'ghadimi (time)'
p566
F154.01333699999668
sg8
g516
sS'normal (time)'
p567
F154.11284200000227
sa(dp568
S'dicairano (time)'
p569
F150.15862699999707
sg4
g73
sS'acary (time)'
p570
F149.24623099999735
sS'ghadimi (time)'
p571
F149.08446399999957
sg8
g516
sS'normal (time)'
p572
F150.46182599999884
saa(lp573
(dp574
S'dicairano (time)'
p575
F77.67637000000104
sg4
g5
sS'acary (time)'
p576
F75.04637700000603
sS'ghadimi (time)'
p577
F74.51277400000254
sg8
S'Box_Stacks-i0191-642-50.hdf5'
p578
sS'normal (time)'
p579
F78.39330200000404
sa(dp580
S'dicairano (time)'
p581
F81.67057299999578
sg4
g13
sS'acary (time)'
p582
F80.98874700000306
sS'ghadimi (time)'
p583
F79.431491000003
sg8
g578
sS'normal (time)'
p584
F81.54231699999946
sa(dp585
S'dicairano (time)'
p586
F77.5536260000008
sg4
g19
sS'acary (time)'
p587
F74.98098900000332
sS'ghadimi (time)'
p588
F74.86229100000492
sg8
g578
sS'normal (time)'
p589
F78.00879499999428
sa(dp590
S'dicairano (time)'
p591
F148.76357100000314
sg4
g25
sS'acary (time)'
p592
F148.5531650000048
sS'ghadimi (time)'
p593
F147.33219100000133
sg8
g578
sS'normal (time)'
p594
F149.36093699999765
sa(dp595
S'dicairano (time)'
p596
F152.67860099999962
sg4
g31
sS'acary (time)'
p597
F152.85398500000156
sS'ghadimi (time)'
p598
F152.90458000000217
sg8
g578
sS'normal (time)'
p599
F152.79651000000013
sa(dp600
S'dicairano (time)'
p601
F148.6973699999944
sg4
g37
sS'acary (time)'
p602
F149.183431999998
sS'ghadimi (time)'
p603
F147.58533799999714
sg8
g578
sS'normal (time)'
p604
F148.98780200000328
sa(dp605
S'dicairano (time)'
p606
F149.84695400000055
sg4
g43
sS'acary (time)'
p607
F147.16871400000673
sS'ghadimi (time)'
p608
F148.53759600000194
sg8
g578
sS'normal (time)'
p609
F150.5557489999992
sa(dp610
S'dicairano (time)'
p611
F145.61896900000283
sg4
g49
sS'acary (time)'
p612
F146.31535599999916
sS'ghadimi (time)'
p613
F146.59421699999803
sg8
g578
sS'normal (time)'
p614
F145.3627009999982
sa(dp615
S'dicairano (time)'
p616
F147.8560190000062
sg4
g55
sS'acary (time)'
p617
F147.3633619999964
sS'ghadimi (time)'
p618
F147.22843299999658
sg8
g578
sS'normal (time)'
p619
F150.2550259999989
sa(dp620
S'dicairano (time)'
p621
F150.2238539999962
sg4
g61
sS'acary (time)'
p622
F148.93291299999692
sS'ghadimi (time)'
p623
F148.67250000000058
sg8
g578
sS'normal (time)'
p624
F150.45665400000144
sa(dp625
S'dicairano (time)'
p626
F154.07917199999793
sg4
g67
sS'acary (time)'
p627
F154.32733800000278
sS'ghadimi (time)'
p628
F154.2322370000038
sg8
g578
sS'normal (time)'
p629
F154.06883400000515
sa(dp630
S'dicairano (time)'
p631
F150.02186300000176
sg4
g73
sS'acary (time)'
p632
F149.21907199999987
sS'ghadimi (time)'
p633
F149.13321200000064
sg8
g578
sS'normal (time)'
p634
F150.46923300000344
saa(lp635
(dp636
S'dicairano (time)'
p637
F77.72721000000456
sg4
g5
sS'acary (time)'
p638
F75.04970100000355
sS'ghadimi (time)'
p639
F74.52998799999477
sg8
S'Box_Stacks-i0195-642-46.hdf5'
p640
sS'normal (time)'
p641
F78.42065400000138
sa(dp642
S'dicairano (time)'
p643
F81.45969899999909
sg4
g13
sS'acary (time)'
p644
F81.08144699999684
sS'ghadimi (time)'
p645
F79.99247399999877
sg8
g640
sS'normal (time)'
p646
F81.89328699999896
sa(dp647
S'dicairano (time)'
p648
F77.86154000000533
sg4
g19
sS'acary (time)'
p649
F75.43159200000082
sS'ghadimi (time)'
p650
F75.06728999999905
sg8
g640
sS'normal (time)'
p651
F78.28093600000284
sa(dp652
S'dicairano (time)'
p653
F149.26088100000197
sg4
g25
sS'acary (time)'
p654
F149.20516399999906
sS'ghadimi (time)'
p655
F147.76464300000225
sg8
g640
sS'normal (time)'
p656
F150.04773299999943
sa(dp657
S'dicairano (time)'
p658
F153.0115900000019
sg4
g31
sS'acary (time)'
p659
F153.224549999999
sS'ghadimi (time)'
p660
F153.4844430000012
sg8
g640
sS'normal (time)'
p661
F153.28990899999917
sa(dp662
S'dicairano (time)'
p663
F148.66549999999552
sg4
g37
sS'acary (time)'
p664
F157.2535960000023
sS'ghadimi (time)'
p665
F147.70473599999968
sg8
g640
sS'normal (time)'
p666
F149.1665770000036
sa(dp667
S'dicairano (time)'
p668
F149.86047600000165
sg4
g43
sS'acary (time)'
p669
F147.33528900000238
sS'ghadimi (time)'
p670
F148.60355999999592
sg8
g640
sS'normal (time)'
p671
F150.50899699999718
sa(dp672
S'dicairano (time)'
p673
F145.5668000000005
sg4
g49
sS'acary (time)'
p674
F146.38604900000064
sS'ghadimi (time)'
p675
F146.41055700000288
sg8
g640
sS'normal (time)'
p676
F145.47870500000136
sa(dp677
S'dicairano (time)'
p678
F147.83257999999478
sg4
g55
sS'acary (time)'
p679
F147.4071929999991
sS'ghadimi (time)'
p680
F147.1072090000016
sg8
g640
sS'normal (time)'
p681
F150.17696599999908
sa(dp682
S'dicairano (time)'
p683
F150.11880699999892
sg4
g61
sS'acary (time)'
p684
F148.96580999999424
sS'ghadimi (time)'
p685
F148.62705899999855
sg8
g640
sS'normal (time)'
p686
F150.48267900000064
sa(dp687
S'dicairano (time)'
p688
F153.91431600000215
sg4
g67
sS'acary (time)'
p689
F154.35156899999856
sS'ghadimi (time)'
p690
F154.23753999999462
sg8
g640
sS'normal (time)'
p691
F154.02252800000133
sa(dp692
S'dicairano (time)'
p693
F150.16908200000034
sg4
g73
sS'acary (time)'
p694
F149.2595500000025
sS'ghadimi (time)'
p695
F149.17390200000227
sg8
g640
sS'normal (time)'
p696
F150.5689280000006
saa(lp697
(dp698
S'dicairano (time)'
p699
F77.87098400000104
sg4
g5
sS'acary (time)'
p700
F75.1232600000003
sS'ghadimi (time)'
p701
F74.59645499999897
sg8
S'Box_Stacks-i0220-642-45.hdf5'
p702
sS'normal (time)'
p703
F78.46684600000299
sa(dp704
S'dicairano (time)'
p705
F81.53231000000233
sg4
g13
sS'acary (time)'
p706
F81.08038499999384
sS'ghadimi (time)'
p707
F79.53000900000188
sg8
g702
sS'normal (time)'
p708
F81.58897399999842
sa(dp709
S'dicairano (time)'
p710
F77.6852280000021
sg4
g19
sS'acary (time)'
p711
F75.16308700000081
sS'ghadimi (time)'
p712
F74.92266000000382
sg8
g702
sS'normal (time)'
p713
F78.0478460000013
sa(dp714
S'dicairano (time)'
p715
F148.9742499999993
sg4
g25
sS'acary (time)'
p716
F148.69442600000184
sS'ghadimi (time)'
p717
F147.66194299999916
sg8
g702
sS'normal (time)'
p718
F149.6416720000052
sa(dp719
S'dicairano (time)'
p720
F152.6968479999996
sg4
g31
sS'acary (time)'
p721
F153.08341099999961
sS'ghadimi (time)'
p722
F153.19033800000034
sg8
g702
sS'normal (time)'
p723
F152.8055200000017
sa(dp724
S'dicairano (time)'
p725
F148.76338400000532
sg4
g37
sS'acary (time)'
p726
F149.1028970000043
sS'ghadimi (time)'
p727
F147.7995099999971
sg8
g702
sS'normal (time)'
p728
F149.20990999999776
sa(dp729
S'dicairano (time)'
p730
F150.03947899999912
sg4
g43
sS'acary (time)'
p731
F147.29745199999888
sS'ghadimi (time)'
p732
F148.57790699999896
sg8
g702
sS'normal (time)'
p733
F150.6485279999979
sa(dp734
S'dicairano (time)'
p735
F145.36786000000575
sg4
g49
sS'acary (time)'
p736
F146.38445800000045
sS'ghadimi (time)'
p737
F146.60266899999988
sg8
g702
sS'normal (time)'
p738
F145.56118499999866
sa(dp739
S'dicairano (time)'
p740
F147.83659199999965
sg4
g55
sS'acary (time)'
p741
F147.2660670000041
sS'ghadimi (time)'
p742
F147.14155399999436
sg8
g702
sS'normal (time)'
p743
F150.35061000000132
sa(dp744
S'dicairano (time)'
p745
F150.26697199999762
sg4
g61
sS'acary (time)'
p746
F149.05943399999524
sS'ghadimi (time)'
p747
F148.72086399999534
sg8
g702
sS'normal (time)'
p748
F150.63162300000113
sa(dp749
S'dicairano (time)'
p750
F154.09444300000177
sg4
g67
sS'acary (time)'
p751
F154.3286150000058
sS'ghadimi (time)'
p752
F154.1962829999975
sg8
g702
sS'normal (time)'
p753
F154.0702569999994
sa(dp754
S'dicairano (time)'
p755
F150.13396400000056
sg4
g73
sS'acary (time)'
p756
F149.12723499999993
sS'ghadimi (time)'
p757
F149.40958300000057
sg8
g702
sS'normal (time)'
p758
F150.63529800000106
saa(lp759
(dp760
S'dicairano (time)'
p761
F77.81915100000333
sg4
g5
sS'acary (time)'
p762
F75.0843160000004
sS'ghadimi (time)'
p763
F74.57925600000453
sg8
S'Box_Stacks-i0228-642-44.hdf5'
p764
sS'normal (time)'
p765
F78.54544000000169
sa(dp766
S'dicairano (time)'
p767
F81.60995299999922
sg4
g13
sS'acary (time)'
p768
F81.06453699999838
sS'ghadimi (time)'
p769
F79.62807299999986
sg8
g764
sS'normal (time)'
p770
F81.69421700000385
sa(dp771
S'dicairano (time)'
p772
F77.55642400000215
sg4
g19
sS'acary (time)'
p773
F74.98203600000124
sS'ghadimi (time)'
p774
F74.77228599999944
sg8
g764
sS'normal (time)'
p775
F77.95702799999708
sa(dp776
S'dicairano (time)'
p777
F148.74864399999933
sg4
g25
sS'acary (time)'
p778
F148.38401200000226
sS'ghadimi (time)'
p779
F147.24582199999713
sg8
g764
sS'normal (time)'
p780
F149.35614999999962
sa(dp781
S'dicairano (time)'
p782
F152.73455800000374
sg4
g31
sS'acary (time)'
p783
F152.77558500000305
sS'ghadimi (time)'
p784
F152.7735459999967
sg8
g764
sS'normal (time)'
p785
F152.48658500000602
sa(dp786
S'dicairano (time)'
p787
F148.5729779999965
sg4
g37
sS'acary (time)'
p788
F148.9983959999954
sS'ghadimi (time)'
p789
F147.44373199999973
sg8
g764
sS'normal (time)'
p790
F149.06072900000436
sa(dp791
S'dicairano (time)'
p792
F149.7147180000029
sg4
g43
sS'acary (time)'
p793
F147.10071600000083
sS'ghadimi (time)'
p794
F148.3539579999997
sg8
g764
sS'normal (time)'
p795
F150.38227500000357
sa(dp796
S'dicairano (time)'
p797
F145.5203509999992
sg4
g49
sS'acary (time)'
p798
F146.2559790000014
sS'ghadimi (time)'
p799
F146.34094899999764
sg8
g764
sS'normal (time)'
p800
F153.47364399999788
sa(dp801
S'dicairano (time)'
p802
F147.74001800000406
sg4
g55
sS'acary (time)'
p803
F147.22327599999699
sS'ghadimi (time)'
p804
F147.06303900000057
sg8
g764
sS'normal (time)'
p805
F150.25871399999596
sa(dp806
S'dicairano (time)'
p807
F150.10535700000037
sg4
g61
sS'acary (time)'
p808
F149.0156599999973
sS'ghadimi (time)'
p809
F148.68526399999973
sg8
g764
sS'normal (time)'
p810
F150.47551699999894
sa(dp811
S'dicairano (time)'
p812
F154.11892299999454
sg4
g67
sS'acary (time)'
p813
F154.24293100000068
sS'ghadimi (time)'
p814
F154.2361000000019
sg8
g764
sS'normal (time)'
p815
F153.92083699999785
sa(dp816
S'dicairano (time)'
p817
F150.1192080000037
sg4
g73
sS'acary (time)'
p818
F149.04547900000034
sS'ghadimi (time)'
p819
F149.06086000000505
sg8
g764
sS'normal (time)'
p820
F150.44140500000503
saa(lp821
(dp822
S'dicairano (time)'
p823
F77.59854800000176
sg4
g5
sS'acary (time)'
p824
F74.90061299999797
sS'ghadimi (time)'
p825
F74.42524099999719
sg8
S'Box_Stacks-i0245-642-43.hdf5'
p826
sS'normal (time)'
p827
F78.30945200000133
sa(dp828
S'dicairano (time)'
p829
F81.38059200000134
sg4
g13
sS'acary (time)'
p830
F80.9752010000011
sS'ghadimi (time)'
p831
F79.57421700000123
sg8
g826
sS'normal (time)'
p832
F81.56766299999435
sa(dp833
S'dicairano (time)'
p834
F77.43579099999624
sg4
g19
sS'acary (time)'
p835
F75.0063300000038
sS'ghadimi (time)'
p836
F74.75849700000254
sg8
g826
sS'normal (time)'
p837
F77.93415000000095
sa(dp838
S'dicairano (time)'
p839
F148.83400599999004
sg4
g25
sS'acary (time)'
p840
F148.58507099999406
sS'ghadimi (time)'
p841
F147.3507549999922
sg8
g826
sS'normal (time)'
p842
F149.47677599999588
sa(dp843
S'dicairano (time)'
p844
F152.54532699999982
sg4
g31
sS'acary (time)'
p845
F152.8899289999972
sS'ghadimi (time)'
p846
F153.2007239999948
sg8
g826
sS'normal (time)'
p847
F152.83988699999463
sa(dp848
S'dicairano (time)'
p849
F148.65192400000524
sg4
g37
sS'acary (time)'
p850
F149.01693699999305
sS'ghadimi (time)'
p851
F147.59007899998687
sg8
g826
sS'normal (time)'
p852
F149.1081770000019
sa(dp853
S'dicairano (time)'
p854
F149.95409699999436
sg4
g43
sS'acary (time)'
p855
F147.2933919999923
sS'ghadimi (time)'
p856
F148.45477199999732
sg8
g826
sS'normal (time)'
p857
F150.49933299999975
sa(dp858
S'dicairano (time)'
p859
F145.38825099999667
sg4
g49
sS'acary (time)'
p860
F146.38092699999106
sS'ghadimi (time)'
p861
F146.4271449999942
sg8
g826
sS'normal (time)'
p862
F145.6593040000007
sa(dp863
S'dicairano (time)'
p864
F147.64951100001053
sg4
g55
sS'acary (time)'
p865
F147.33901999999944
sS'ghadimi (time)'
p866
F147.07713700000022
sg8
g826
sS'normal (time)'
p867
F150.23418700000911
sa(dp868
S'dicairano (time)'
p869
F150.09064800001215
sg4
g61
sS'acary (time)'
p870
F148.87730700000247
sS'ghadimi (time)'
p871
F148.61921300001268
sg8
g826
sS'normal (time)'
p872
F150.4150789999985
sa(dp873
S'dicairano (time)'
p874
F154.0138059999881
sg4
g67
sS'acary (time)'
p875
F154.2891479999962
sS'ghadimi (time)'
p876
F154.18584599999303
sg8
g826
sS'normal (time)'
p877
F153.97839699999895
sa(dp878
S'dicairano (time)'
p879
F149.99517199999536
sg4
g73
sS'acary (time)'
p880
F149.02950999999302
sS'ghadimi (time)'
p881
F149.12265400000615
sg8
g826
sS'normal (time)'
p882
F150.45312700000068
saa(lp883
(dp884
S'dicairano (time)'
p885
F77.6590819999983
sg4
g5
sS'acary (time)'
p886
F74.95527299999958
sS'ghadimi (time)'
p887
F74.40307699999539
sg8
S'Box_Stacks-i0255-642-42.hdf5'
p888
sS'normal (time)'
p889
F78.3426199999958
sa(dp890
S'dicairano (time)'
p891
F80.95494199999666
sg4
g13
sS'acary (time)'
p892
F80.97751399999834
sS'ghadimi (time)'
p893
F79.59135000000242
sg8
g888
sS'normal (time)'
p894
F81.4373370000103
sa(dp895
S'dicairano (time)'
p896
F77.54739500000142
sg4
g19
sS'acary (time)'
p897
F75.04817399999592
sS'ghadimi (time)'
p898
F74.82792799999879
sg8
g888
sS'normal (time)'
p899
F77.92798900000344
sa(dp900
S'dicairano (time)'
p901
F148.78163300000597
sg4
g25
sS'acary (time)'
p902
F148.538321
sS'ghadimi (time)'
p903
F147.39078599998902
sg8
g888
sS'normal (time)'
p904
F149.58461299999908
sa(dp905
S'dicairano (time)'
p906
F152.1201860000001
sg4
g31
sS'acary (time)'
p907
F152.8213880000112
sS'ghadimi (time)'
p908
F153.0478099999891
sg8
g888
sS'normal (time)'
p909
F152.55880299999262
sa(dp910
S'dicairano (time)'
p911
F148.6622090000019
sg4
g37
sS'acary (time)'
p912
F149.0667989999929
sS'ghadimi (time)'
p913
F147.6858280000015
sg8
g888
sS'normal (time)'
p914
F149.1103379999986
sa(dp915
S'dicairano (time)'
p916
F149.83250400000543
sg4
g43
sS'acary (time)'
p917
F147.21968399999605
sS'ghadimi (time)'
p918
F148.4339489999984
sg8
g888
sS'normal (time)'
p919
F150.47544599999674
sa(dp920
S'dicairano (time)'
p921
F145.60514500000863
sg4
g49
sS'acary (time)'
p922
F146.4436330000026
sS'ghadimi (time)'
p923
F146.41797999999835
sg8
g888
sS'normal (time)'
p924
F145.81942099999287
sa(dp925
S'dicairano (time)'
p926
F147.7427689999895
sg4
g55
sS'acary (time)'
p927
F147.2254580000008
sS'ghadimi (time)'
p928
F147.15502500000002
sg8
g888
sS'normal (time)'
p929
F150.19797500000277
sa(dp930
S'dicairano (time)'
p931
F150.14458900000318
sg4
g61
sS'acary (time)'
p932
F148.90291599999182
sS'ghadimi (time)'
p933
F148.7053559999913
sg8
g888
sS'normal (time)'
p934
F150.54452100000344
sa(dp935
S'dicairano (time)'
p936
F153.65700500000094
sg4
g67
sS'acary (time)'
p937
F154.3436159999983
sS'ghadimi (time)'
p938
F155.88008299999638
sg8
g888
sS'normal (time)'
p939
F160.3254239999951
sa(dp940
S'dicairano (time)'
p941
F149.93282099999487
sg4
g73
sS'acary (time)'
p942
F148.9326080000028
sS'ghadimi (time)'
p943
F148.93697900000552
sg8
g888
sS'normal (time)'
p944
F150.52944399999978
saa(lp945
(dp946
S'dicairano (time)'
p947
F77.60067499999423
sg4
g5
sS'acary (time)'
p948
F74.89220099999511
sS'ghadimi (time)'
p949
F74.46597699999984
sg8
S'Box_Stacks-i0259-642-41.hdf5'
p950
sS'normal (time)'
p951
F78.34596999999485
sa(dp952
S'dicairano (time)'
p953
F81.49184799999057
sg4
g13
sS'acary (time)'
p954
F81.0937760000088
sS'ghadimi (time)'
p955
F79.77627699999721
sg8
g950
sS'normal (time)'
p956
F81.56395799999882
sa(dp957
S'dicairano (time)'
p958
F77.60387000000628
sg4
g19
sS'acary (time)'
p959
F74.9260890000005
sS'ghadimi (time)'
p960
F74.89635999999882
sg8
g950
sS'normal (time)'
p961
F77.9408540000004
sa(dp962
S'dicairano (time)'
p963
F148.71448999999848
sg4
g25
sS'acary (time)'
p964
F148.49033699999563
sS'ghadimi (time)'
p965
F147.2606400000077
sg8
g950
sS'normal (time)'
p966
F149.36125000000175
sa(dp967
S'dicairano (time)'
p968
F152.54624799999874
sg4
g31
sS'acary (time)'
p969
F152.87978599999042
sS'ghadimi (time)'
p970
F152.9810460000008
sg8
g950
sS'normal (time)'
p971
F152.67503500000748
sa(dp972
S'dicairano (time)'
p973
F148.4933740000124
sg4
g37
sS'acary (time)'
p974
F149.02075999999943
sS'ghadimi (time)'
p975
F147.5177340000082
sg8
g950
sS'normal (time)'
p976
F148.99638300000515
sa(dp977
S'dicairano (time)'
p978
F149.8325029999978
sg4
g43
sS'acary (time)'
p979
F147.10756299999775
sS'ghadimi (time)'
p980
F148.44367700000294
sg8
g950
sS'normal (time)'
p981
F150.43227300001308
sa(dp982
S'dicairano (time)'
p983
F145.41745100000117
sg4
g49
sS'acary (time)'
p984
F146.17271499999333
sS'ghadimi (time)'
p985
F146.46555300000182
sg8
g950
sS'normal (time)'
p986
F145.4194850000058
sa(dp987
S'dicairano (time)'
p988
F147.61014400000568
sg4
g55
sS'acary (time)'
p989
F147.1926370000001
sS'ghadimi (time)'
p990
F146.92900299999746
sg8
g950
sS'normal (time)'
p991
F149.8946319999959
sa(dp992
S'dicairano (time)'
p993
F150.1312920000055
sg4
g61
sS'acary (time)'
p994
F148.72339600000123
sS'ghadimi (time)'
p995
F148.52655100000266
sg8
g950
sS'normal (time)'
p996
F150.30244700000912
sa(dp997
S'dicairano (time)'
p998
F153.7465239999874
sg4
g67
sS'acary (time)'
p999
F154.27463700000953
sS'ghadimi (time)'
p1000
F154.14410000000498
sg8
g950
sS'normal (time)'
p1001
F153.9684419999976
sa(dp1002
S'dicairano (time)'
p1003
F149.8662059999915
sg4
g73
sS'acary (time)'
p1004
F148.8590780000086
sS'ghadimi (time)'
p1005
F149.09966300000087
sg8
g950
sS'normal (time)'
p1006
F150.30707000000984
saa(lp1007
(dp1008
S'dicairano (time)'
p1009
F77.21309499999916
sg4
g5
sS'acary (time)'
p1010
F74.50371200000518
sS'ghadimi (time)'
p1011
F74.04031599999871
sg8
S'Box_Stacks-i0295-637-34.hdf5'
p1012
sS'normal (time)'
p1013
F77.41320899999118
sa(dp1014
S'dicairano (time)'
p1015
F81.13195100000303
sg4
g13
sS'acary (time)'
p1016
F80.49992899999779
sS'ghadimi (time)'
p1017
F79.03572200000053
sg8
g1012
sS'normal (time)'
p1018
F80.99902499999735
sa(dp1019
S'dicairano (time)'
p1020
F77.24480600000243
sg4
g19
sS'acary (time)'
p1021
F74.62010600000212
sS'ghadimi (time)'
p1022
F74.34323700000823
sg8
g1012
sS'normal (time)'
p1023
F77.84040099999402
sa(dp1024
S'dicairano (time)'
p1025
F147.9771560000081
sg4
g25
sS'acary (time)'
p1026
F147.63204899999255
sS'ghadimi (time)'
p1027
F146.54912599999807
sg8
g1012
sS'normal (time)'
p1028
F148.06943099999626
sa(dp1029
S'dicairano (time)'
p1030
F151.78108100000827
sg4
g31
sS'acary (time)'
p1031
F151.8703119999991
sS'ghadimi (time)'
p1032
F151.86641500001133
sg8
g1012
sS'normal (time)'
p1033
F151.65830899999128
sa(dp1034
S'dicairano (time)'
p1035
F147.95532500000263
sg4
g37
sS'acary (time)'
p1036
F148.0319329999911
sS'ghadimi (time)'
p1037
F146.69428399999742
sg8
g1012
sS'normal (time)'
p1038
F148.55041099998925
sa(dp1039
S'dicairano (time)'
p1040
F148.9851539999945
sg4
g43
sS'acary (time)'
p1041
F146.3764200000005
sS'ghadimi (time)'
p1042
F147.9182440000004
sg8
g1012
sS'normal (time)'
p1043
F149.38657600000442
sa(dp1044
S'dicairano (time)'
p1045
F144.91050199999881
sg4
g49
sS'acary (time)'
p1046
F145.0702170000004
sS'ghadimi (time)'
p1047
F145.77105599999777
sg8
g1012
sS'normal (time)'
p1048
F144.68259500000568
sa(dp1049
S'dicairano (time)'
p1050
F149.06922900000063
sg4
g55
sS'acary (time)'
p1051
F146.4919179999997
sS'ghadimi (time)'
p1052
F147.724212000001
sg8
g1012
sS'normal (time)'
p1053
F148.28793200000655
sa(dp1054
S'dicairano (time)'
p1055
F149.37377900000138
sg4
g61
sS'acary (time)'
p1056
F147.95327500000712
sS'ghadimi (time)'
p1057
F147.77397599999676
sg8
g1012
sS'normal (time)'
p1058
F149.9898569999932
sa(dp1059
S'dicairano (time)'
p1060
F153.2282450000057
sg4
g67
sS'acary (time)'
p1061
F153.27116899999965
sS'ghadimi (time)'
p1062
F153.57619700000214
sg8
g1012
sS'normal (time)'
p1063
F153.11647600001015
sa(dp1064
S'dicairano (time)'
p1065
F149.38154499999655
sg4
g73
sS'acary (time)'
p1066
F148.51161000000138
sS'ghadimi (time)'
p1067
F148.3921560000017
sg8
g1012
sS'normal (time)'
p1068
F149.98315600000205
saa(lp1069
(dp1070
S'dicairano (time)'
p1071
F77.08460899999773
sg4
g5
sS'acary (time)'
p1072
F74.51286000000255
sS'ghadimi (time)'
p1073
F73.97142800000438
sg8
S'Box_Stacks-i0314-636-29.hdf5'
p1074
sS'normal (time)'
p1075
F77.48134800000116
sa(dp1076
S'dicairano (time)'
p1077
F80.97469999999157
sg4
g13
sS'acary (time)'
p1078
F80.67432599999302
sS'ghadimi (time)'
p1079
F79.21570699999575
sg8
g1074
sS'normal (time)'
p1080
F80.88352499999746
sa(dp1081
S'dicairano (time)'
p1082
F77.13171599998896
sg4
g19
sS'acary (time)'
p1083
F74.72359200000938
sS'ghadimi (time)'
p1084
F74.37188500000047
sg8
g1074
sS'normal (time)'
p1085
F77.6040270000085
sa(dp1086
S'dicairano (time)'
p1087
F147.86492900000303
sg4
g25
sS'acary (time)'
p1088
F156.06136799999513
sS'ghadimi (time)'
p1089
F146.50621600000886
sg8
g1074
sS'normal (time)'
p1090
F148.1020489999937
sa(dp1091
S'dicairano (time)'
p1092
F151.6289800000086
sg4
g31
sS'acary (time)'
p1093
F152.18184200000542
sS'ghadimi (time)'
p1094
F151.9216890000098
sg8
g1074
sS'normal (time)'
p1095
F151.53921199998877
sa(dp1096
S'dicairano (time)'
p1097
F147.7974460000114
sg4
g37
sS'acary (time)'
p1098
F147.70010900001216
sS'ghadimi (time)'
p1099
F146.64430699999502
sg8
g1074
sS'normal (time)'
p1100
F148.25576899999578
sa(dp1101
S'dicairano (time)'
p1102
F148.96294500000658
sg4
g43
sS'acary (time)'
p1103
F146.22375800000736
sS'ghadimi (time)'
p1104
F147.02351299999282
sg8
g1074
sS'normal (time)'
p1105
F149.2836590000079
sa(dp1106
S'dicairano (time)'
p1107
F144.6838540000026
sg4
g49
sS'acary (time)'
p1108
F145.3386290000053
sS'ghadimi (time)'
p1109
F145.4895419999957
sg8
g1074
sS'normal (time)'
p1110
F144.6117099999974
sa(dp1111
S'dicairano (time)'
p1112
F148.70764199999394
sg4
g55
sS'acary (time)'
p1113
F146.44803800000227
sS'ghadimi (time)'
p1114
F146.469809000002
sg8
g1074
sS'normal (time)'
p1115
F149.67907600000035
sa(dp1116
S'dicairano (time)'
p1117
F149.0862000000052
sg4
g61
sS'acary (time)'
p1118
F147.8996349999943
sS'ghadimi (time)'
p1119
F147.7472279999929
sg8
g1074
sS'normal (time)'
p1120
F149.87767799998983
sa(dp1121
S'dicairano (time)'
p1122
F152.9105750000017
sg4
g67
sS'acary (time)'
p1123
F153.168995
sS'ghadimi (time)'
p1124
F152.97332499999902
sg8
g1074
sS'normal (time)'
p1125
F152.90824400000565
sa(dp1126
S'dicairano (time)'
p1127
F149.167849999998
sg4
g73
sS'acary (time)'
p1128
F148.126019000003
sS'ghadimi (time)'
p1129
F148.23319600000104
sg8
g1074
sS'normal (time)'
p1130
F149.95326700000442
saa(lp1131
(dp1132
S'dicairano (time)'
p1133
F78.30651299998863
sg4
g5
sS'acary (time)'
p1134
F74.85132099999464
sS'ghadimi (time)'
p1135
F73.93957999999111
sg8
S'Box_Stacks-i0315-637-33.hdf5'
p1136
sS'normal (time)'
p1137
F77.31236899999203
sa(dp1138
S'dicairano (time)'
p1139
F81.20112899999367
sg4
g13
sS'acary (time)'
p1140
F80.64898299999186
sS'ghadimi (time)'
p1141
F79.38841900000989
sg8
g1136
sS'normal (time)'
p1142
F81.06123500000103
sa(dp1143
S'dicairano (time)'
p1144
F77.35846499999752
sg4
g19
sS'acary (time)'
p1145
F74.88554899999872
sS'ghadimi (time)'
p1146
F74.5825060000061
sg8
g1136
sS'normal (time)'
p1147
F77.94953900000837
sa(dp1148
S'dicairano (time)'
p1149
F148.91548599999805
sg4
g25
sS'acary (time)'
p1150
F148.0808260000049
sS'ghadimi (time)'
p1151
F146.82241200000863
sg8
g1136
sS'normal (time)'
p1152
F148.42364900000393
sa(dp1153
S'dicairano (time)'
p1154
F152.19449900000473
sg4
g31
sS'acary (time)'
p1155
F152.26140899999882
sS'ghadimi (time)'
p1156
F152.08961699999054
sg8
g1136
sS'normal (time)'
p1157
F151.94171800000186
sa(dp1158
S'dicairano (time)'
p1159
F148.2002569999895
sg4
g37
sS'acary (time)'
p1160
F148.09411499999987
sS'ghadimi (time)'
p1161
F147.11643999999797
sg8
g1136
sS'normal (time)'
p1162
F148.85924999999406
sa(dp1163
S'dicairano (time)'
p1164
F150.06578900000022
sg4
g43
sS'acary (time)'
p1165
F146.67462600000727
sS'ghadimi (time)'
p1166
F148.06690900000103
sg8
g1136
sS'normal (time)'
p1167
F149.6035150000098
sa(dp1168
S'dicairano (time)'
p1169
F144.86528800000087
sg4
g49
sS'acary (time)'
p1170
F145.53194200000144
sS'ghadimi (time)'
p1171
F145.8558720000001
sg8
g1136
sS'normal (time)'
p1172
F144.87076800000796
sa(dp1173
S'dicairano (time)'
p1174
F149.39693999999145
sg4
g55
sS'acary (time)'
p1175
F146.90501400000358
sS'ghadimi (time)'
p1176
F147.05752399998892
sg8
g1136
sS'normal (time)'
p1177
F149.93515900000057
sa(dp1178
S'dicairano (time)'
p1179
F150.2919050000055
sg4
g61
sS'acary (time)'
p1180
F148.29863200000545
sS'ghadimi (time)'
p1181
F148.22406599999522
sg8
g1136
sS'normal (time)'
p1182
F150.37244500000088
sa(dp1183
S'dicairano (time)'
p1184
F153.5540059999912
sg4
g67
sS'acary (time)'
p1185
F153.4269639999984
sS'ghadimi (time)'
p1186
F153.40565999998944
sg8
g1136
sS'normal (time)'
p1187
F153.34584000000905
sa(dp1188
S'dicairano (time)'
p1189
F149.5877760000003
sg4
g73
sS'acary (time)'
p1190
F148.49817500000063
sS'ghadimi (time)'
p1191
F148.56107499999052
sg8
g1136
sS'normal (time)'
p1192
F150.25946600000316
saa(lp1193
(dp1194
S'dicairano (time)'
p1195
F77.92001499999606
sg4
g5
sS'acary (time)'
p1196
F75.14779400000407
sS'ghadimi (time)'
p1197
F74.67673600000853
sg8
S'Box_Stacks-i0317-642-40.hdf5'
p1198
sS'normal (time)'
p1199
F78.51773900000262
sa(dp1200
S'dicairano (time)'
p1201
F81.73548899999878
sg4
g13
sS'acary (time)'
p1202
F81.16553199999908
sS'ghadimi (time)'
p1203
F79.72754599999462
sg8
g1198
sS'normal (time)'
p1204
F81.69711799999641
sa(dp1205
S'dicairano (time)'
p1206
F77.77415699999256
sg4
g19
sS'acary (time)'
p1207
F75.15831300000718
sS'ghadimi (time)'
p1208
F74.94597200000135
sg8
g1198
sS'normal (time)'
p1209
F78.14760900000692
sa(dp1210
S'dicairano (time)'
p1211
F149.09472500000265
sg4
g25
sS'acary (time)'
p1212
F149.0424950000015
sS'ghadimi (time)'
p1213
F147.55420899999444
sg8
g1198
sS'normal (time)'
p1214
F149.87252100001206
sa(dp1215
S'dicairano (time)'
p1216
F152.9113010000001
sg4
g31
sS'acary (time)'
p1217
F153.136056000003
sS'ghadimi (time)'
p1218
F153.26698299999407
sg8
g1198
sS'normal (time)'
p1219
F152.90878900000826
sa(dp1220
S'dicairano (time)'
p1221
F148.9917620000051
sg4
g37
sS'acary (time)'
p1222
F149.2048780000041
sS'ghadimi (time)'
p1223
F147.92899200000102
sg8
g1198
sS'normal (time)'
p1224
F157.76136400000541
sa(dp1225
S'dicairano (time)'
p1226
F150.09860599999956
sg4
g43
sS'acary (time)'
p1227
F147.42333299999882
sS'ghadimi (time)'
p1228
F148.7600630000088
sg8
g1198
sS'normal (time)'
p1229
F150.75569499999983
sa(dp1230
S'dicairano (time)'
p1231
F146.2450009999884
sg4
g49
sS'acary (time)'
p1232
F147.12365599999612
sS'ghadimi (time)'
p1233
F147.02080900000874
sg8
g1198
sS'normal (time)'
p1234
F146.13125000000582
sa(dp1235
S'dicairano (time)'
p1236
F148.42029699998966
sg4
g55
sS'acary (time)'
p1237
F148.08333400000993
sS'ghadimi (time)'
p1238
F147.92783100000815
sg8
g1198
sS'normal (time)'
p1239
F150.9378069999948
sa(dp1240
S'dicairano (time)'
p1241
F150.79050400000415
sg4
g61
sS'acary (time)'
p1242
F149.65074399999867
sS'ghadimi (time)'
p1243
F149.40120199999365
sg8
g1198
sS'normal (time)'
p1244
F151.2234899999894
sa(dp1245
S'dicairano (time)'
p1246
F154.91526499998872
sg4
g67
sS'acary (time)'
p1247
F155.23932400000922
sS'ghadimi (time)'
p1248
F154.89651600000798
sg8
g1198
sS'normal (time)'
p1249
F155.03851199999917
sa(dp1250
S'dicairano (time)'
p1251
F150.87820900000224
sg4
g73
sS'acary (time)'
p1252
F149.87406299999566
sS'ghadimi (time)'
p1253
F149.92958899999212
sg8
g1198
sS'normal (time)'
p1254
F151.34007099999872
saa(lp1255
(dp1256
S'dicairano (time)'
p1257
F78.43024100000912
sg4
g5
sS'acary (time)'
p1258
F75.13788400001067
sS'ghadimi (time)'
p1259
F74.48114800000621
sg8
S'Box_Stacks-i0438-637-32.hdf5'
p1260
sS'normal (time)'
p1261
F77.85896300000604
sa(dp1262
S'dicairano (time)'
p1263
F81.491320000001
sg4
g13
sS'acary (time)'
p1264
F81.28074500001094
sS'ghadimi (time)'
p1265
F79.90036400000099
sg8
g1260
sS'normal (time)'
p1266
F81.48809500000789
sa(dp1267
S'dicairano (time)'
p1268
F77.66507299999648
sg4
g19
sS'acary (time)'
p1269
F75.26885500000208
sS'ghadimi (time)'
p1270
F74.85997799999313
sg8
g1260
sS'normal (time)'
p1271
F78.30731800000649
sa(dp1272
S'dicairano (time)'
p1273
F149.52330999998958
sg4
g25
sS'acary (time)'
p1274
F148.42392099999415
sS'ghadimi (time)'
p1275
F147.41666099999566
sg8
g1260
sS'normal (time)'
p1276
F148.90592599999218
sa(dp1277
S'dicairano (time)'
p1278
F152.6540490000043
sg4
g31
sS'acary (time)'
p1279
F152.81789299999946
sS'ghadimi (time)'
p1280
F152.95271599999978
sg8
g1260
sS'normal (time)'
p1281
F152.49744799999462
sa(dp1282
S'dicairano (time)'
p1283
F148.83577499999956
sg4
g37
sS'acary (time)'
p1284
F148.70206899999175
sS'ghadimi (time)'
p1285
F147.52203500000178
sg8
g1260
sS'normal (time)'
p1286
F149.31777700000384
sa(dp1287
S'dicairano (time)'
p1288
F150.48850500000117
sg4
g43
sS'acary (time)'
p1289
F147.19116800000484
sS'ghadimi (time)'
p1290
F148.4124940000038
sg8
g1260
sS'normal (time)'
p1291
F150.00153199999477
sa(dp1292
S'dicairano (time)'
p1293
F145.43568499998946
sg4
g49
sS'acary (time)'
p1294
F145.76192099999753
sS'ghadimi (time)'
p1295
F146.57685199999833
sg8
g1260
sS'normal (time)'
p1296
F145.3087610000075
sa(dp1297
S'dicairano (time)'
p1298
F149.94303599999694
sg4
g55
sS'acary (time)'
p1299
F147.28750700000091
sS'ghadimi (time)'
p1300
F146.83396899999934
sg8
g1260
sS'normal (time)'
p1301
F149.57841299999563
sa(dp1302
S'dicairano (time)'
p1303
F150.64925999999105
sg4
g61
sS'acary (time)'
p1304
F148.69482199999038
sS'ghadimi (time)'
p1305
F148.53009500000917
sg8
g1260
sS'normal (time)'
p1306
F150.70952299999772
sa(dp1307
S'dicairano (time)'
p1308
F153.6227179999987
sg4
g67
sS'acary (time)'
p1309
F154.10076200000185
sS'ghadimi (time)'
p1310
F154.14850599999772
sg8
g1260
sS'normal (time)'
p1311
F153.69374299999618
sa(dp1312
S'dicairano (time)'
p1313
F149.94926799999666
sg4
g73
sS'acary (time)'
p1314
F148.79936499999894
sS'ghadimi (time)'
p1315
F148.79386999999406
sg8
g1260
sS'normal (time)'
p1316
F150.57362500000454
saa(lp1317
(dp1318
S'dicairano (time)'
p1319
F77.46369299999787
sg4
g5
sS'acary (time)'
p1320
F74.90103999999701
sS'ghadimi (time)'
p1321
F74.40727599999809
sg8
S'Box_Stacks-i0444-635-24.hdf5'
p1322
sS'normal (time)'
p1323
F77.61981600000581
sa(dp1324
S'dicairano (time)'
p1325
F80.90936799999326
sg4
g13
sS'acary (time)'
p1326
F80.60674199998903
sS'ghadimi (time)'
p1327
F79.1907280000014
sg8
g1322
sS'normal (time)'
p1328
F80.76637599999958
sa(dp1329
S'dicairano (time)'
p1330
F77.08307700000296
sg4
g19
sS'acary (time)'
p1331
F74.46211800001038
sS'ghadimi (time)'
p1332
F74.26339700000244
sg8
g1322
sS'normal (time)'
p1333
F77.39172099999269
sa(dp1334
S'dicairano (time)'
p1335
F147.89004800000112
sg4
g25
sS'acary (time)'
p1336
F147.69198299999698
sS'ghadimi (time)'
p1337
F146.46592099999543
sg8
g1322
sS'normal (time)'
p1338
F148.16062800001237
sa(dp1339
S'dicairano (time)'
p1340
F151.4871220000059
sg4
g31
sS'acary (time)'
p1341
F151.83449599999585
sS'ghadimi (time)'
p1342
F152.1472450000001
sg8
g1322
sS'normal (time)'
p1343
F151.57000200000766
sa(dp1344
S'dicairano (time)'
p1345
F147.85616399999708
sg4
g37
sS'acary (time)'
p1346
F147.90463999999338
sS'ghadimi (time)'
p1347
F146.7100599999976
sg8
g1322
sS'normal (time)'
p1348
F148.35234100000525
sa(dp1349
S'dicairano (time)'
p1350
F149.49143500000355
sg4
g43
sS'acary (time)'
p1351
F147.97910900000716
sS'ghadimi (time)'
p1352
F147.91512400000647
sg8
g1322
sS'normal (time)'
p1353
F149.6850800000102
sa(dp1354
S'dicairano (time)'
p1355
F145.1181179999985
sg4
g49
sS'acary (time)'
p1356
F147.04518000000098
sS'ghadimi (time)'
p1357
F149.29529799999727
sg8
g1322
sS'normal (time)'
p1358
F145.08123999999953
sa(dp1359
S'dicairano (time)'
p1360
F147.48673899999994
sg4
g55
sS'acary (time)'
p1361
F147.0340770000039
sS'ghadimi (time)'
p1362
F146.74673600000096
sg8
g1322
sS'normal (time)'
p1363
F156.42042799999763
sa(dp1364
S'dicairano (time)'
p1365
F149.34061400000064
sg4
g61
sS'acary (time)'
p1366
F148.10558499999752
sS'ghadimi (time)'
p1367
F147.88094700001238
sg8
g1322
sS'normal (time)'
p1368
F149.99889299999631
sa(dp1369
S'dicairano (time)'
p1370
F152.87089500000002
sg4
g67
sS'acary (time)'
p1371
F153.27881499999785
sS'ghadimi (time)'
p1372
F153.24750800000038
sg8
g1322
sS'normal (time)'
p1373
F152.95929199999955
sa(dp1374
S'dicairano (time)'
p1375
F149.292775000009
sg4
g73
sS'acary (time)'
p1376
F148.32904300000519
sS'ghadimi (time)'
p1377
F148.301655999996
sg8
g1322
sS'normal (time)'
p1378
F149.93104599999788
saa(lp1379
(dp1380
S'dicairano (time)'
p1381
F77.24898899999971
sg4
g5
sS'acary (time)'
p1382
F74.47742900000594
sS'ghadimi (time)'
p1383
F74.0007190000033
sg8
S'Box_Stacks-i0455-635-22.hdf5'
p1384
sS'normal (time)'
p1385
F77.49939799999993
sa(dp1386
S'dicairano (time)'
p1387
F80.80417099999613
sg4
g13
sS'acary (time)'
p1388
F80.61371199999121
sS'ghadimi (time)'
p1389
F79.12431899999501
sg8
g1384
sS'normal (time)'
p1390
F80.79792799999996
sa(dp1391
S'dicairano (time)'
p1392
F77.03522800000792
sg4
g19
sS'acary (time)'
p1393
F74.6096050000051
sS'ghadimi (time)'
p1394
F74.34295500000007
sg8
g1384
sS'normal (time)'
p1395
F77.59755000000587
sa(dp1396
S'dicairano (time)'
p1397
F148.203542999996
sg4
g25
sS'acary (time)'
p1398
F148.07615800001076
sS'ghadimi (time)'
p1399
F146.71082500000193
sg8
g1384
sS'normal (time)'
p1400
F148.39994799999113
sa(dp1401
S'dicairano (time)'
p1402
F151.67583100000047
sg4
g31
sS'acary (time)'
p1403
F152.10509000001184
sS'ghadimi (time)'
p1404
F152.1526989999984
sg8
g1384
sS'normal (time)'
p1405
F151.73949300000095
sa(dp1406
S'dicairano (time)'
p1407
F147.95824800000992
sg4
g37
sS'acary (time)'
p1408
F147.86905399999523
sS'ghadimi (time)'
p1409
F146.9337450000021
sg8
g1384
sS'normal (time)'
p1410
F148.48643400000583
sa(dp1411
S'dicairano (time)'
p1412
F149.33149200001208
sg4
g43
sS'acary (time)'
p1413
F146.5363650000072
sS'ghadimi (time)'
p1414
F147.7959370000026
sg8
g1384
sS'normal (time)'
p1415
F149.54300700000022
sa(dp1416
S'dicairano (time)'
p1417
F144.97944000001007
sg4
g49
sS'acary (time)'
p1418
F145.41356899999664
sS'ghadimi (time)'
p1419
F146.03500599999097
sg8
g1384
sS'normal (time)'
p1420
F144.74542799999472
sa(dp1421
S'dicairano (time)'
p1422
F149.1995520000055
sg4
g55
sS'acary (time)'
p1423
F146.7543139999907
sS'ghadimi (time)'
p1424
F146.33377899999323
sg8
g1384
sS'normal (time)'
p1425
F148.6059729999979
sa(dp1426
S'dicairano (time)'
p1427
F149.39595700000064
sg4
g61
sS'acary (time)'
p1428
F148.1626980000001
sS'ghadimi (time)'
p1429
F147.99691899999743
sg8
g1384
sS'normal (time)'
p1430
F149.68726800000877
sa(dp1431
S'dicairano (time)'
p1432
F152.93986099999165
sg4
g67
sS'acary (time)'
p1433
F153.32980999999563
sS'ghadimi (time)'
p1434
F153.55926199999521
sg8
g1384
sS'normal (time)'
p1435
F152.92664600000717
sa(dp1436
S'dicairano (time)'
p1437
F149.4758839999995
sg4
g73
sS'acary (time)'
p1438
F148.2803639999911
sS'ghadimi (time)'
p1439
F148.37914900000033
sg8
g1384
sS'normal (time)'
p1440
F150.06616600000416
saa(lp1441
(dp1442
S'dicairano (time)'
p1443
F77.47509000000719
sg4
g5
sS'acary (time)'
p1444
F74.86913799999456
sS'ghadimi (time)'
p1445
F74.31345099999453
sg8
S'Box_Stacks-i0458-635-23.hdf5'
p1446
sS'normal (time)'
p1447
F77.78991700000188
sa(dp1448
S'dicairano (time)'
p1449
F81.29022599999735
sg4
g13
sS'acary (time)'
p1450
F80.96447799999441
sS'ghadimi (time)'
p1451
F79.3698929999955
sg8
g1446
sS'normal (time)'
p1452
F81.0958590000082
sa(dp1453
S'dicairano (time)'
p1454
F77.42155199999979
sg4
g19
sS'acary (time)'
p1455
F74.84674999999697
sS'ghadimi (time)'
p1456
F74.67944799999532
sg8
g1446
sS'normal (time)'
p1457
F77.7566780000052
sa(dp1458
S'dicairano (time)'
p1459
F148.46966800000519
sg4
g25
sS'acary (time)'
p1460
F148.22025500000746
sS'ghadimi (time)'
p1461
F146.9694610000006
sg8
g1446
sS'normal (time)'
p1462
F148.73142900000676
sa(dp1463
S'dicairano (time)'
p1464
F152.22159600000305
sg4
g31
sS'acary (time)'
p1465
F152.42535799999314
sS'ghadimi (time)'
p1466
F152.68305999999575
sg8
g1446
sS'normal (time)'
p1467
F151.97643999999855
sa(dp1468
S'dicairano (time)'
p1469
F148.32416199998988
sg4
g37
sS'acary (time)'
p1470
F148.52655599999707
sS'ghadimi (time)'
p1471
F147.21051800000714
sg8
g1446
sS'normal (time)'
p1472
F148.70061899999564
sa(dp1473
S'dicairano (time)'
p1474
F149.5653459999885
sg4
g43
sS'acary (time)'
p1475
F147.89518899998802
sS'ghadimi (time)'
p1476
F147.9567490000045
sg8
g1446
sS'normal (time)'
p1477
F149.76215700001922
sa(dp1478
S'dicairano (time)'
p1479
F145.15362100000493
sg4
g49
sS'acary (time)'
p1480
F146.53234599999269
sS'ghadimi (time)'
p1481
F147.5288189999992
sg8
g1446
sS'normal (time)'
p1482
F145.11472300000605
sa(dp1483
S'dicairano (time)'
p1484
F149.4623319999955
sg4
g55
sS'acary (time)'
p1485
F147.02982399999746
sS'ghadimi (time)'
p1486
F146.89449199999217
sg8
g1446
sS'normal (time)'
p1487
F149.8112250000122
sa(dp1488
S'dicairano (time)'
p1489
F149.7027620000008
sg4
g61
sS'acary (time)'
p1490
F148.54824000000372
sS'ghadimi (time)'
p1491
F148.28141100000357
sg8
g1446
sS'normal (time)'
p1492
F150.16722400000435
sa(dp1493
S'dicairano (time)'
p1494
F153.57419200000004
sg4
g67
sS'acary (time)'
p1495
F153.64126600002055
sS'ghadimi (time)'
p1496
F153.5160690000048
sg8
g1446
sS'normal (time)'
p1497
F153.3422520000022
sa(dp1498
S'dicairano (time)'
p1499
F149.5812309999892
sg4
g73
sS'acary (time)'
p1500
F148.63213399998494
sS'ghadimi (time)'
p1501
F156.6503729999822
sg8
g1446
sS'normal (time)'
p1502
F149.89430399998673
saa(lp1503
(dp1504
S'dicairano (time)'
p1505
F77.99084499999299
sg4
g5
sS'acary (time)'
p1506
F74.69648600000073
sS'ghadimi (time)'
p1507
F74.18117599998368
sg8
S'Box_Stacks-i0459-637-31.hdf5'
p1508
sS'normal (time)'
p1509
F77.5055810000049
sa(dp1510
S'dicairano (time)'
p1511
F81.33361800000421
sg4
g13
sS'acary (time)'
p1512
F80.73799299998791
sS'ghadimi (time)'
p1513
F79.32785199998762
sg8
g1508
sS'normal (time)'
p1514
F81.16689800002496
sa(dp1515
S'dicairano (time)'
p1516
F77.14960299999802
sg4
g19
sS'acary (time)'
p1517
F74.66402699999162
sS'ghadimi (time)'
p1518
F74.44056699998328
sg8
g1508
sS'normal (time)'
p1519
F77.85859399999026
sa(dp1520
S'dicairano (time)'
p1521
F148.8610580000095
sg4
g25
sS'acary (time)'
p1522
F147.81826299999375
sS'ghadimi (time)'
p1523
F146.80899000001955
sg8
g1508
sS'normal (time)'
p1524
F148.43450800000574
sa(dp1525
S'dicairano (time)'
p1526
F152.01756400000886
sg4
g31
sS'acary (time)'
p1527
F152.25185900001088
sS'ghadimi (time)'
p1528
F152.20358900001156
sg8
g1508
sS'normal (time)'
p1529
F152.1391430000076
sa(dp1530
S'dicairano (time)'
p1531
F148.21463800000492
sg4
g37
sS'acary (time)'
p1532
F148.05161500000395
sS'ghadimi (time)'
p1533
F147.10588099999586
sg8
g1508
sS'normal (time)'
p1534
F148.77897700000904
sa(dp1535
S'dicairano (time)'
p1536
F150.00101700000232
sg4
g43
sS'acary (time)'
p1537
F146.75662299999385
sS'ghadimi (time)'
p1538
F148.03972000000067
sg8
g1508
sS'normal (time)'
p1539
F149.34101100001135
sa(dp1540
S'dicairano (time)'
p1541
F144.9801429999934
sg4
g49
sS'acary (time)'
p1542
F145.387733999989
sS'ghadimi (time)'
p1543
F146.10709399997722
sg8
g1508
sS'normal (time)'
p1544
F144.95892999999342
sa(dp1545
S'dicairano (time)'
p1546
F147.5865460000059
sg4
g55
sS'acary (time)'
p1547
F146.79277800000273
sS'ghadimi (time)'
p1548
F146.76286600000458
sg8
g1508
sS'normal (time)'
p1549
F147.71149100002367
sa(dp1550
S'dicairano (time)'
p1551
F150.1651889999921
sg4
g61
sS'acary (time)'
p1552
F148.2170009999827
sS'ghadimi (time)'
p1553
F148.1357489999791
sg8
g1508
sS'normal (time)'
p1554
F150.33748799999012
sa(dp1555
S'dicairano (time)'
p1556
F153.43299499998102
sg4
g67
sS'acary (time)'
p1557
F153.98832800000673
sS'ghadimi (time)'
p1558
F153.6628609999898
sg8
g1508
sS'normal (time)'
p1559
F153.34607900000992
sa(dp1560
S'dicairano (time)'
p1561
F149.58523699999205
sg4
g73
sS'acary (time)'
p1562
F148.36963800000376
sS'ghadimi (time)'
p1563
F148.4043299999903
sg8
g1508
sS'normal (time)'
p1564
F150.20670100001735
saa(lp1565
(dp1566
S'dicairano (time)'
p1567
F76.9215639999893
sg4
g5
sS'acary (time)'
p1568
F73.22341900001629
sS'ghadimi (time)'
p1569
F72.80566300000646
sg8
S'Box_Stacks-i0678-615-11.hdf5'
p1570
sS'normal (time)'
p1571
F77.01376500001061
sa(dp1572
S'dicairano (time)'
p1573
F79.56425999998464
sg4
g13
sS'acary (time)'
p1574
F78.96460499998648
sS'ghadimi (time)'
p1575
F77.61445400002412
sg8
g1570
sS'normal (time)'
p1576
F79.40314999999828
sa(dp1577
S'dicairano (time)'
p1578
F76.73172500001965
sg4
g19
sS'acary (time)'
p1579
F73.32651800001622
sS'ghadimi (time)'
p1580
F73.07160300001851
sg8
g1570
sS'normal (time)'
p1581
F76.71361099998467
sa(dp1582
S'dicairano (time)'
p1583
F146.23142200001166
sg4
g25
sS'acary (time)'
p1584
F146.0677030000079
sS'ghadimi (time)'
p1585
F144.4847169999848
sg8
g1570
sS'normal (time)'
p1586
F146.2048439999926
sa(dp1587
S'dicairano (time)'
p1588
F148.9101340000052
sg4
g31
sS'acary (time)'
p1589
F148.93133600000874
sS'ghadimi (time)'
p1590
F149.2077730000019
sg8
g1570
sS'normal (time)'
p1591
F148.7005390000122
sa(dp1592
S'dicairano (time)'
p1593
F146.09174999999232
sg4
g37
sS'acary (time)'
p1594
F145.766180000006
sS'ghadimi (time)'
p1595
F144.55717399998684
sg8
g1570
sS'normal (time)'
p1596
F146.02271700001438
sa(dp1597
S'dicairano (time)'
p1598
F145.11894300000858
sg4
g43
sS'acary (time)'
p1599
F144.43494000000646
sS'ghadimi (time)'
p1600
F144.60223099999712
sg8
g1570
sS'normal (time)'
p1601
F145.8524880000041
sa(dp1602
S'dicairano (time)'
p1603
F141.72637599997688
sg4
g49
sS'acary (time)'
p1604
F142.1034530000179
sS'ghadimi (time)'
p1605
F142.65942400001222
sg8
g1570
sS'normal (time)'
p1606
F141.78892400002223
sa(dp1607
S'dicairano (time)'
p1608
F144.94364199999836
sg4
g55
sS'acary (time)'
p1609
F142.7139019999886
sS'ghadimi (time)'
p1610
F143.42713499997626
sg8
g1570
sS'normal (time)'
p1611
F144.41744099999778
sa(dp1612
S'dicairano (time)'
p1613
F147.45463900000323
sg4
g61
sS'acary (time)'
p1614
F145.58844600000884
sS'ghadimi (time)'
p1615
F144.99899699998787
sg8
g1570
sS'normal (time)'
p1616
F147.3107439999876
sa(dp1617
S'dicairano (time)'
p1618
F150.03948200002196
sg4
g67
sS'acary (time)'
p1619
F150.22348899999633
sS'ghadimi (time)'
p1620
F150.2209370000055
sg8
g1570
sS'normal (time)'
p1621
F150.24777300001006
sa(dp1622
S'dicairano (time)'
p1623
F147.35041199999978
sg4
g73
sS'acary (time)'
p1624
F145.92142100000638
sS'ghadimi (time)'
p1625
F145.30894399998942
sg8
g1570
sS'normal (time)'
p1626
F146.91680300000007
saa(lp1627
(dp1628
S'dicairano (time)'
p1629
F77.71785400001681
sg4
g5
sS'acary (time)'
p1630
F75.04616800000076
sS'ghadimi (time)'
p1631
F74.5824909999792
sg8
S'Box_Stacks-i0682-642-39.hdf5'
p1632
sS'normal (time)'
p1633
F78.36717199999839
sa(dp1634
S'dicairano (time)'
p1635
F81.71770600002492
sg4
g13
sS'acary (time)'
p1636
F81.27999999999884
sS'ghadimi (time)'
p1637
F79.72471199999563
sg8
g1632
sS'normal (time)'
p1638
F81.74852299998747
sa(dp1639
S'dicairano (time)'
p1640
F77.66502700001001
sg4
g19
sS'acary (time)'
p1641
F75.05636700001196
sS'ghadimi (time)'
p1642
F74.88310300000012
sg8
g1632
sS'normal (time)'
p1643
F78.06800500000827
sa(dp1644
S'dicairano (time)'
p1645
F149.0783850000007
sg4
g25
sS'acary (time)'
p1646
F148.6995680000109
sS'ghadimi (time)'
p1647
F147.5305839999928
sg8
g1632
sS'normal (time)'
p1648
F149.6575629999861
sa(dp1649
S'dicairano (time)'
p1650
F152.79391300000134
sg4
g31
sS'acary (time)'
p1651
F160.89868499999284
sS'ghadimi (time)'
p1652
F153.28019399999175
sg8
g1632
sS'normal (time)'
p1653
F152.9154340000241
sa(dp1654
S'dicairano (time)'
p1655
F148.81730799999787
sg4
g37
sS'acary (time)'
p1656
F149.27383200000622
sS'ghadimi (time)'
p1657
F147.73334000000614
sg8
g1632
sS'normal (time)'
p1658
F149.2765810000128
sa(dp1659
S'dicairano (time)'
p1660
F149.92813200000091
sg4
g43
sS'acary (time)'
p1661
F147.39281299998402
sS'ghadimi (time)'
p1662
F148.66149399999995
sg8
g1632
sS'normal (time)'
p1663
F188.87768199999118
sa(dp1664
S'dicairano (time)'
p1665
F146.05984900001204
sg4
g49
sS'acary (time)'
p1666
F147.212532000005
sS'ghadimi (time)'
p1667
F147.17987399999402
sg8
g1632
sS'normal (time)'
p1668
F145.8431050000072
sa(dp1669
S'dicairano (time)'
p1670
F148.43623500000103
sg4
g55
sS'acary (time)'
p1671
F148.00838499999372
sS'ghadimi (time)'
p1672
F147.74353999999585
sg8
g1632
sS'normal (time)'
p1673
F150.84141800002544
sa(dp1674
S'dicairano (time)'
p1675
F150.84296300000278
sg4
g61
sS'acary (time)'
p1676
F149.83007600001292
sS'ghadimi (time)'
p1677
F149.22921000001952
sg8
g1632
sS'normal (time)'
p1678
F151.11615099999472
sa(dp1679
S'dicairano (time)'
p1680
F154.74196099999244
sg4
g67
sS'acary (time)'
p1681
F155.126436999999
sS'ghadimi (time)'
p1682
F154.92477800001507
sg8
g1632
sS'normal (time)'
p1683
F154.7212710000167
sa(dp1684
S'dicairano (time)'
p1685
F150.65574099999503
sg4
g73
sS'acary (time)'
p1686
F149.8149680000206
sS'ghadimi (time)'
p1687
F149.7955479999946
sg8
g1632
sS'normal (time)'
p1688
F151.13201000000117
saa(lp1689
(dp1690
S'dicairano (time)'
p1691
F75.37498699998832
sg4
g5
sS'acary (time)'
p1692
F72.77985900000203
sS'ghadimi (time)'
p1693
F72.23432400001911
sg8
S'Box_Stacks-i0800-606-10.hdf5'
p1694
sS'normal (time)'
p1695
F76.13590100000147
sa(dp1696
S'dicairano (time)'
p1697
F78.8084530000051
sg4
g13
sS'acary (time)'
p1698
F78.58831500000088
sS'ghadimi (time)'
p1699
F77.31212800001958
sg8
g1694
sS'normal (time)'
p1700
F78.3489539999864
sa(dp1701
S'dicairano (time)'
p1702
F75.47193999998854
sg4
g19
sS'acary (time)'
p1703
F73.14984100000584
sS'ghadimi (time)'
p1704
F72.71429999999236
sg8
g1694
sS'normal (time)'
p1705
F76.01338300001225
sa(dp1706
S'dicairano (time)'
p1707
F144.22520899999654
sg4
g25
sS'acary (time)'
p1708
F144.60839900001884
sS'ghadimi (time)'
p1709
F143.36554499997874
sg8
g1694
sS'normal (time)'
p1710
F144.8235069999937
sa(dp1711
S'dicairano (time)'
p1712
F147.45077999998466
sg4
g31
sS'acary (time)'
p1713
F147.7745940000168
sS'ghadimi (time)'
p1714
F147.80174799999804
sg8
g1694
sS'normal (time)'
p1715
F147.06737400000566
sa(dp1716
S'dicairano (time)'
p1717
F144.1881679999933
sg4
g37
sS'acary (time)'
p1718
F145.00686500000302
sS'ghadimi (time)'
p1719
F143.7787900000112
sg8
g1694
sS'normal (time)'
p1720
F144.76502299998538
sa(dp1721
S'dicairano (time)'
p1722
F145.24065700001665
sg4
g43
sS'acary (time)'
p1723
F142.5193159999908
sS'ghadimi (time)'
p1724
F143.7955329999968
sg8
g1694
sS'normal (time)'
p1725
F145.8646160000062
sa(dp1726
S'dicairano (time)'
p1727
F140.5020910000021
sg4
g49
sS'acary (time)'
p1728
F141.19288499999675
sS'ghadimi (time)'
p1729
F141.2136349999928
sg8
g1694
sS'normal (time)'
p1730
F140.43548899999587
sa(dp1731
S'dicairano (time)'
p1732
F145.03041000000667
sg4
g55
sS'acary (time)'
p1733
F145.0581570000213
sS'ghadimi (time)'
p1734
F142.29125499998918
sg8
g1694
sS'normal (time)'
p1735
F145.77762800001074
sa(dp1736
S'dicairano (time)'
p1737
F145.21500799999922
sg4
g61
sS'acary (time)'
p1738
F144.33900400000857
sS'ghadimi (time)'
p1739
F143.90137800000957
sg8
g1694
sS'normal (time)'
p1740
F146.20969799999148
sa(dp1741
S'dicairano (time)'
p1742
F148.51377300001332
sg4
g67
sS'acary (time)'
p1743
F148.87096599998767
sS'ghadimi (time)'
p1744
F148.63428500000737
sg8
g1694
sS'normal (time)'
p1745
F148.91886199999135
sa(dp1746
S'dicairano (time)'
p1747
F145.36767899998813
sg4
g73
sS'acary (time)'
p1748
F144.6517429999949
sS'ghadimi (time)'
p1749
F144.4395169999916
sg8
g1694
sS'normal (time)'
p1750
F146.0077900000033
saa(lp1751
(dp1752
S'dicairano (time)'
p1753
F78.21912500000326
sg4
g5
sS'acary (time)'
p1754
F75.01758000001428
sS'ghadimi (time)'
p1755
F74.37706400000025
sg8
S'Box_Stacks-i0813-636-28.hdf5'
p1756
sS'normal (time)'
p1757
F77.82249600000796
sa(dp1758
S'dicairano (time)'
p1759
F81.51988600002369
sg4
g13
sS'acary (time)'
p1760
F81.15108000001055
sS'ghadimi (time)'
p1761
F79.6626840000099
sg8
g1756
sS'normal (time)'
p1762
F81.42718400000012
sa(dp1763
S'dicairano (time)'
p1764
F78.11435000001802
sg4
g19
sS'acary (time)'
p1765
F75.09352399999625
sS'ghadimi (time)'
p1766
F74.74651100000483
sg8
g1756
sS'normal (time)'
p1767
F78.09105799999088
sa(dp1768
S'dicairano (time)'
p1769
F149.18175300001167
sg4
g25
sS'acary (time)'
p1770
F148.666315999988
sS'ghadimi (time)'
p1771
F147.08569000000716
sg8
g1756
sS'normal (time)'
p1772
F148.88231700001052
sa(dp1773
S'dicairano (time)'
p1774
F152.56041899998672
sg4
g31
sS'acary (time)'
p1775
F152.71053599999868
sS'ghadimi (time)'
p1776
F152.6342719999957
sg8
g1756
sS'normal (time)'
p1777
F152.27233000000706
sa(dp1778
S'dicairano (time)'
p1779
F148.40993799999706
sg4
g37
sS'acary (time)'
p1780
F148.35205600000336
sS'ghadimi (time)'
p1781
F147.33222099998966
sg8
g1756
sS'normal (time)'
p1782
F148.97180699999444
sa(dp1783
S'dicairano (time)'
p1784
F150.35584999999264
sg4
g43
sS'acary (time)'
p1785
F146.91342699999223
sS'ghadimi (time)'
p1786
F147.7498290000076
sg8
g1756
sS'normal (time)'
p1787
F149.93300600000657
sa(dp1788
S'dicairano (time)'
p1789
F144.73365900001954
sg4
g49
sS'acary (time)'
p1790
F153.9595669999835
sS'ghadimi (time)'
p1791
F149.33890400000382
sg8
g1756
sS'normal (time)'
p1792
F145.00761699999566
sa(dp1793
S'dicairano (time)'
p1794
F149.21673499999451
sg4
g55
sS'acary (time)'
p1795
F146.6081809999887
sS'ghadimi (time)'
p1796
F147.32294299997739
sg8
g1756
sS'normal (time)'
p1797
F149.12742599999183
sa(dp1798
S'dicairano (time)'
p1799
F149.96456300001591
sg4
g61
sS'acary (time)'
p1800
F148.04878199999803
sS'ghadimi (time)'
p1801
F147.8930199999886
sg8
g1756
sS'normal (time)'
p1802
F150.03108200000133
sa(dp1803
S'dicairano (time)'
p1804
F153.2512529999949
sg4
g67
sS'acary (time)'
p1805
F153.24451999997837
sS'ghadimi (time)'
p1806
F153.2943769999838
sg8
g1756
sS'normal (time)'
p1807
F153.1176170000108
sa(dp1808
S'dicairano (time)'
p1809
F149.25373299999046
sg4
g73
sS'acary (time)'
p1810
F148.24374999999418
sS'ghadimi (time)'
p1811
F148.2720960000006
sg8
g1756
sS'normal (time)'
p1812
F150.01943099999335
saa(lp1813
(dp1814
S'dicairano (time)'
p1815
F2.0323349999962375
sg4
g5
sS'acary (time)'
p1816
F1.3404830000072252
sS'ghadimi (time)'
p1817
F43.30671499998425
sg8
S'Box_Stacks-i1000-140-4.hdf5'
p1818
sS'normal (time)'
p1819
F4.604237999999896
sa(dp1820
S'dicairano (time)'
p1821
F43.17171799999778
sg4
g13
sS'acary (time)'
p1822
F1.2200499999744352
sS'ghadimi (time)'
p1823
F43.26910800000769
sg8
g1818
sS'normal (time)'
p1824
F43.204089000006206
sa(dp1825
S'dicairano (time)'
p1826
F13.478523000027053
sg4
g19
sS'acary (time)'
p1827
F1.522008999978425
sS'ghadimi (time)'
p1828
F65.94427800000994
sg8
g1818
sS'normal (time)'
p1829
F2.5102229999902193
sa(dp1830
S'dicairano (time)'
p1831
F2.4428330000082497
sg4
g25
sS'acary (time)'
p1832
F1.835507999989204
sS'ghadimi (time)'
p1833
F1.318407999991905
sg8
g1818
sS'normal (time)'
p1834
F2.5708809999923687
sa(dp1835
S'dicairano (time)'
p1836
F72.07638399998541
sg4
g31
sS'acary (time)'
p1837
F1.9780489999975543
sS'ghadimi (time)'
p1838
F71.92542899999535
sg8
g1818
sS'normal (time)'
p1839
F71.88100300001679
sa(dp1840
S'dicairano (time)'
p1841
F2.005593999987468
sg4
g37
sS'acary (time)'
p1842
F1.4644150000240188
sS'ghadimi (time)'
p1843
F1.455454999988433
sg8
g1818
sS'normal (time)'
p1844
F2.7836179999867454
sa(dp1845
S'dicairano (time)'
p1846
Fnan
sg4
g43
sS'acary (time)'
p1847
Fnan
sS'ghadimi (time)'
p1848
F3.7690159999765456
sg8
g1818
sS'normal (time)'
p1849
F71.24020200001542
sa(dp1850
S'dicairano (time)'
p1851
F71.88340099999914
sg4
g49
sS'acary (time)'
p1852
F72.0886579999933
sS'ghadimi (time)'
p1853
F71.84122099998058
sg8
g1818
sS'normal (time)'
p1854
F71.85452600001008
sa(dp1855
S'dicairano (time)'
p1856
F70.84997099998873
sg4
g55
sS'acary (time)'
p1857
F71.07871999999043
sS'ghadimi (time)'
p1858
F71.86896200000774
sg8
g1818
sS'normal (time)'
p1859
F71.12468300000182
sa(dp1860
S'dicairano (time)'
p1861
F3.2403829999966547
sg4
g61
sS'acary (time)'
p1862
F72.7918869999994
sS'ghadimi (time)'
p1863
F5.170547000016086
sg8
g1818
sS'normal (time)'
p1864
F3.309869000018807
sa(dp1865
S'dicairano (time)'
p1866
F72.47348499999498
sg4
g67
sS'acary (time)'
p1867
F72.85614600000554
sS'ghadimi (time)'
p1868
F72.83230499998899
sg8
g1818
sS'normal (time)'
p1869
F72.65738699998474
sa(dp1870
S'dicairano (time)'
p1871
F2.9136299999954645
sg4
g73
sS'acary (time)'
p1872
F3.6758780000091065
sS'ghadimi (time)'
p1873
F3.2322470000071917
sg8
g1818
sS'normal (time)'
p1874
F3.6367479999898933
saa(lp1875
(dp1876
S'dicairano (time)'
p1877
F55.337117999995826
sg4
g5
sS'acary (time)'
p1878
F54.29807499999879
sS'ghadimi (time)'
p1879
F53.47089900000719
sg8
S'Box_Stacks-i1000-312-6.hdf5'
p1880
sS'normal (time)'
p1881
F13.10656200000085
sa(dp1882
S'dicairano (time)'
p1883
F57.30154800001765
sg4
g13
sS'acary (time)'
p1884
F56.94402500000433
sS'ghadimi (time)'
p1885
F55.04146299997228
sg8
g1880
sS'normal (time)'
p1886
F57.07522499997867
sa(dp1887
S'dicairano (time)'
p1888
F55.389248999999836
sg4
g19
sS'acary (time)'
p1889
F54.43941300001461
sS'ghadimi (time)'
p1890
F53.83416299999226
sg8
g1880
sS'normal (time)'
p1891
F14.91108200000599
sa(dp1892
S'dicairano (time)'
p1893
F99.30291999998735
sg4
g25
sS'acary (time)'
p1894
F99.85035899997456
sS'ghadimi (time)'
p1895
F104.60555099998601
sg8
g1880
sS'normal (time)'
p1896
F99.72393999999622
sa(dp1897
S'dicairano (time)'
p1898
F101.19201800000155
sg4
g31
sS'acary (time)'
p1899
F101.60333799998625
sS'ghadimi (time)'
p1900
F101.5857149999938
sg8
g1880
sS'normal (time)'
p1901
F100.95532999999705
sa(dp1902
S'dicairano (time)'
p1903
F99.35318999999436
sg4
g37
sS'acary (time)'
p1904
F100.28580399998464
sS'ghadimi (time)'
p1905
F106.91785599998548
sg8
g1880
sS'normal (time)'
p1906
F99.95860199999879
sa(dp1907
S'dicairano (time)'
p1908
F99.96848199999658
sg4
g43
sS'acary (time)'
p1909
F98.94468600000255
sS'ghadimi (time)'
p1910
F74.20927200000733
sg8
g1880
sS'normal (time)'
p1911
F101.57575399999041
sa(dp1912
S'dicairano (time)'
p1913
F97.7236789999879
sg4
g49
sS'acary (time)'
p1914
F98.08787799999118
sS'ghadimi (time)'
p1915
F97.68877999999677
sg8
g1880
sS'normal (time)'
p1916
F97.7192909999867
sa(dp1917
S'dicairano (time)'
p1918
F99.71835799998371
sg4
g55
sS'acary (time)'
p1919
F97.65557099998114
sS'ghadimi (time)'
p1920
F98.38651799998479
sg8
g1880
sS'normal (time)'
p1921
F97.8879270000034
sa(dp1922
S'dicairano (time)'
p1923
F99.99668599999859
sg4
g61
sS'acary (time)'
p1924
F100.64890499998
sS'ghadimi (time)'
p1925
F100.65948599998956
sg8
g1880
sS'normal (time)'
p1926
F99.1838459999999
sa(dp1927
S'dicairano (time)'
p1928
F101.91730800000369
sg4
g67
sS'acary (time)'
p1929
F102.58778699999675
sS'ghadimi (time)'
p1930
F102.36191300000064
sg8
g1880
sS'normal (time)'
p1931
F101.71147400001064
sa(dp1932
S'dicairano (time)'
p1933
F100.12527800002135
sg4
g73
sS'acary (time)'
p1934
F100.22065999999177
sS'ghadimi (time)'
p1935
F101.00752299997839
sg8
g1880
sS'normal (time)'
p1936
F101.16154300002381
saa(lp1937
(dp1938
S'dicairano (time)'
p1939
F61.053355999989435
sg4
g5
sS'acary (time)'
p1940
F60.182417999982135
sS'ghadimi (time)'
p1941
F58.412337999994634
sg8
S'Box_Stacks-i1000-379-5.hdf5'
p1942
sS'normal (time)'
p1943
F17.54033899999922
sa(dp1944
S'dicairano (time)'
p1945
F60.1729720000003
sg4
g13
sS'acary (time)'
p1946
F61.40900499999407
sS'ghadimi (time)'
p1947
F60.00197300000582
sg8
g1942
sS'normal (time)'
p1948
F59.5148540000082
sa(dp1949
S'dicairano (time)'
p1950
F61.332503000012366
sg4
g19
sS'acary (time)'
p1951
F60.295550000009825
sS'ghadimi (time)'
p1952
F58.790098000026774
sg8
g1942
sS'normal (time)'
p1953
F13.058651999977883
sa(dp1954
S'dicairano (time)'
p1955
F110.21719900000608
sg4
g25
sS'acary (time)'
p1956
F110.19829599998775
sS'ghadimi (time)'
p1957
F112.35352900001453
sg8
g1942
sS'normal (time)'
p1958
F109.0642940000107
sa(dp1959
S'dicairano (time)'
p1960
F109.34069099999033
sg4
g31
sS'acary (time)'
p1961
F110.05658699999913
sS'ghadimi (time)'
p1962
F110.03406900001573
sg8
g1942
sS'normal (time)'
p1963
F108.7187569999951
sa(dp1964
S'dicairano (time)'
p1965
F110.5097689999966
sg4
g37
sS'acary (time)'
p1966
F110.505410999991
sS'ghadimi (time)'
p1967
F112.4927579999785
sg8
g1942
sS'normal (time)'
p1968
F109.03108299997984
sa(dp1969
S'dicairano (time)'
p1970
F110.99919499998214
sg4
g43
sS'acary (time)'
p1971
F112.00784500001464
sS'ghadimi (time)'
p1972
F110.61094899999443
sg8
g1942
sS'normal (time)'
p1973
F108.70467999999528
sa(dp1974
S'dicairano (time)'
p1975
F106.13218699998106
sg4
g49
sS'acary (time)'
p1976
F106.15885700000217
sS'ghadimi (time)'
p1977
F106.29366299998946
sg8
g1942
sS'normal (time)'
p1978
F106.18341800000053
sa(dp1979
S'dicairano (time)'
p1980
F105.60800899998867
sg4
g55
sS'acary (time)'
p1981
F106.78730399999768
sS'ghadimi (time)'
p1982
F107.87793999997666
sg8
g1942
sS'normal (time)'
p1983
F106.4961750000075
sa(dp1984
S'dicairano (time)'
p1985
F110.76542700000573
sg4
g61
sS'acary (time)'
p1986
F110.75158700000611
sS'ghadimi (time)'
p1987
F110.85108200000832
sg8
g1942
sS'normal (time)'
p1988
F110.04325600000448
sa(dp1989
S'dicairano (time)'
p1990
F110.98755599997821
sg4
g67
sS'acary (time)'
p1991
F111.0501809999987
sS'ghadimi (time)'
p1992
F111.14168899998185
sg8
g1942
sS'normal (time)'
p1993
F110.6551750000217
sa(dp1994
S'dicairano (time)'
p1995
F111.09047699999064
sg4
g73
sS'acary (time)'
p1996
F110.94110899997759
sS'ghadimi (time)'
p1997
F111.00950600000215
sg8
g1942
sS'normal (time)'
p1998
F111.04182099999161
saa(lp1999
(dp2000
S'dicairano (time)'
p2001
F65.40803300001426
sg4
g5
sS'acary (time)'
p2002
F63.09490399999777
sS'ghadimi (time)'
p2003
F62.23667600000044
sg8
S'Box_Stacks-i1000-451-7.hdf5'
p2004
sS'normal (time)'
p2005
F64.93946699998924
sa(dp2006
S'dicairano (time)'
p2007
F66.71830400000908
sg4
g13
sS'acary (time)'
p2008
F66.707905999996
sS'ghadimi (time)'
p2009
F65.05351200001314
sg8
g2004
sS'normal (time)'
p2010
F66.4322000000102
sa(dp2011
S'dicairano (time)'
p2012
F64.91956700000446
sg4
g19
sS'acary (time)'
p2013
F63.10696399997687
sS'ghadimi (time)'
p2014
F62.50456899998244
sg8
g2004
sS'normal (time)'
p2015
F65.3652599999914
sa(dp2016
S'dicairano (time)'
p2017
F121.05894400001853
sg4
g25
sS'acary (time)'
p2018
F122.57897199998843
sS'ghadimi (time)'
p2019
F129.7390599999926
sg8
g2004
sS'normal (time)'
p2020
F120.52517699997406
sa(dp2021
S'dicairano (time)'
p2022
F122.2812799999956
sg4
g31
sS'acary (time)'
p2023
F122.5762870000035
sS'ghadimi (time)'
p2024
F122.69849000000977
sg8
g2004
sS'normal (time)'
p2025
F121.99828900001012
sa(dp2026
S'dicairano (time)'
p2027
F121.05111199998646
sg4
g37
sS'acary (time)'
p2028
F119.39051100000506
sS'ghadimi (time)'
p2029
F136.112420999998
sg8
g2004
sS'normal (time)'
p2030
F121.07372100002249
sa(dp2031
S'dicairano (time)'
p2032
F121.74648200001684
sg4
g43
sS'acary (time)'
p2033
F119.55730899999617
sS'ghadimi (time)'
p2034
F119.89202099997783
sg8
g2004
sS'normal (time)'
p2035
F104.72711000000709
sa(dp2036
S'dicairano (time)'
p2037
F117.83497299998999
sg4
g49
sS'acary (time)'
p2038
F118.09986399998888
sS'ghadimi (time)'
p2039
F118.05974600001355
sg8
g2004
sS'normal (time)'
p2040
F117.94908099999884
sa(dp2041
S'dicairano (time)'
p2042
F118.37767200000235
sg4
g55
sS'acary (time)'
p2043
F119.96974599998794
sS'ghadimi (time)'
p2044
F119.78725799999665
sg8
g2004
sS'normal (time)'
p2045
F117.800298999995
sa(dp2046
S'dicairano (time)'
p2047
F122.01349899999332
sg4
g61
sS'acary (time)'
p2048
F120.52943899997626
sS'ghadimi (time)'
p2049
F121.85677000001306
sg8
g2004
sS'normal (time)'
p2050
F121.061343999987
sa(dp2051
S'dicairano (time)'
p2052
F123.32976200000849
sg4
g67
sS'acary (time)'
p2053
F123.64598900001147
sS'ghadimi (time)'
p2054
F123.59396599998581
sg8
g2004
sS'normal (time)'
p2055
F123.28862200002186
sa(dp2056
S'dicairano (time)'
p2057
F122.07505799998762
sg4
g73
sS'acary (time)'
p2058
F120.89282300000195
sS'ghadimi (time)'
p2059
F121.33858099998906
sg8
g2004
sS'normal (time)'
p2060
F120.70051499997498
saa(lp2061
(dp2062
S'dicairano (time)'
p2063
F67.78763499998604
sg4
g5
sS'acary (time)'
p2064
F66.91943400001037
sS'ghadimi (time)'
p2065
F66.22667900001397
sg8
S'Box_Stacks-i1000-506-8.hdf5'
p2066
sS'normal (time)'
p2067
F68.79847799998242
sa(dp2068
S'dicairano (time)'
p2069
F71.12668499999563
sg4
g13
sS'acary (time)'
p2070
F70.50034400000004
sS'ghadimi (time)'
p2071
F69.46788600002765
sg8
g2066
sS'normal (time)'
p2072
F70.55998300001374
sa(dp2073
S'dicairano (time)'
p2074
F67.95465400000103
sg4
g19
sS'acary (time)'
p2075
F67.0876640000206
sS'ghadimi (time)'
p2076
F66.47573299999931
sg8
g2066
sS'normal (time)'
p2077
F68.59901599999284
sa(dp2078
S'dicairano (time)'
p2079
F128.43663899999228
sg4
g25
sS'acary (time)'
p2080
F128.83677100000205
sS'ghadimi (time)'
p2081
F128.89430600000196
sg8
g2066
sS'normal (time)'
p2082
F129.50359700000263
sa(dp2083
S'dicairano (time)'
p2084
F131.79537400000845
sg4
g31
sS'acary (time)'
p2085
F132.09891000000061
sS'ghadimi (time)'
p2086
F132.0195229999954
sg8
g2066
sS'normal (time)'
p2087
F131.23330500000156
sa(dp2088
S'dicairano (time)'
p2089
F128.3769489999977
sg4
g37
sS'acary (time)'
p2090
F128.92644300000393
sS'ghadimi (time)'
p2091
F129.61809399997583
sg8
g2066
sS'normal (time)'
p2092
F129.22878999999375
sa(dp2093
S'dicairano (time)'
p2094
F129.09914499998558
sg4
g43
sS'acary (time)'
p2095
F128.37243200000376
sS'ghadimi (time)'
p2096
F128.84851899999194
sg8
g2066
sS'normal (time)'
p2097
F73.97852200001944
sa(dp2098
S'dicairano (time)'
p2099
F126.09618699998828
sg4
g49
sS'acary (time)'
p2100
F127.59043599999859
sS'ghadimi (time)'
p2101
F127.96692500001518
sg8
g2066
sS'normal (time)'
p2102
F126.20250300000771
sa(dp2103
S'dicairano (time)'
p2104
F129.28156400000444
sg4
g55
sS'acary (time)'
p2105
F129.86471699998947
sS'ghadimi (time)'
p2106
F128.0925780000107
sg8
g2066
sS'normal (time)'
p2107
F128.02346900000703
sa(dp2108
S'dicairano (time)'
p2109
F129.44200300000375
sg4
g61
sS'acary (time)'
p2110
F129.05271799999173
sS'ghadimi (time)'
p2111
F129.37968700000783
sg8
g2066
sS'normal (time)'
p2112
F129.5430659999838
sa(dp2113
S'dicairano (time)'
p2114
F132.81225899999845
sg4
g67
sS'acary (time)'
p2115
F133.23761800001375
sS'ghadimi (time)'
p2116
F133.08184899998014
sg8
g2066
sS'normal (time)'
p2117
F133.01140300001134
sa(dp2118
S'dicairano (time)'
p2119
F129.52421199998935
sg4
g73
sS'acary (time)'
p2120
F129.39217100001406
sS'ghadimi (time)'
p2121
F129.39544700001716
sg8
g2066
sS'normal (time)'
p2122
F129.3795650000102
saa(lp2123
(dp2124
S'dicairano (time)'
p2125
F76.72032999998191
sg4
g5
sS'acary (time)'
p2126
F73.08230300000287
sS'ghadimi (time)'
p2127
F72.58926900001825
sg8
S'Box_Stacks-i1000-605-9.hdf5'
p2128
sS'normal (time)'
p2129
F75.95551599998726
sa(dp2130
S'dicairano (time)'
p2131
F78.93270800000755
sg4
g13
sS'acary (time)'
p2132
F78.84309300000314
sS'ghadimi (time)'
p2133
F77.48247200000333
sg8
g2128
sS'normal (time)'
p2134
F78.53214999998454
sa(dp2135
S'dicairano (time)'
p2136
F75.8772909999825
sg4
g19
sS'acary (time)'
p2137
F73.21851199999219
sS'ghadimi (time)'
p2138
F73.0412939999951
sg8
g2128
sS'normal (time)'
p2139
F75.7516450000112
sa(dp2140
S'dicairano (time)'
p2141
F150.634739000001
sg4
g25
sS'acary (time)'
p2142
F144.33714799999143
sS'ghadimi (time)'
p2143
F143.91345900000306
sg8
g2128
sS'normal (time)'
p2144
F144.10889000000316
sa(dp2145
S'dicairano (time)'
p2146
F147.63737599999877
sg4
g31
sS'acary (time)'
p2147
F159.18740600001183
sS'ghadimi (time)'
p2148
F147.89105700000073
sg8
g2128
sS'normal (time)'
p2149
F147.13726399998995
sa(dp2150
S'dicairano (time)'
p2151
F144.44222299999092
sg4
g37
sS'acary (time)'
p2152
F145.03803100000368
sS'ghadimi (time)'
p2153
F144.15953900001477
sg8
g2128
sS'normal (time)'
p2154
F144.46150699999998
sa(dp2155
S'dicairano (time)'
p2156
F145.6701920000196
sg4
g43
sS'acary (time)'
p2157
F142.6964980000048
sS'ghadimi (time)'
p2158
F144.48572900000727
sg8
g2128
sS'normal (time)'
p2159
F145.8719830000191
sa(dp2160
S'dicairano (time)'
p2161
F140.96483400001307
sg4
g49
sS'acary (time)'
p2162
F141.30698699998902
sS'ghadimi (time)'
p2163
F146.4214600000123
sg8
g2128
sS'normal (time)'
p2164
F140.9788230000122
sa(dp2165
S'dicairano (time)'
p2166
F144.48295599999256
sg4
g55
sS'acary (time)'
p2167
F142.08504999999423
sS'ghadimi (time)'
p2168
F142.56524299999
sg8
g2128
sS'normal (time)'
p2169
F141.90700799998012
sa(dp2170
S'dicairano (time)'
p2171
F145.9397309999913
sg4
g61
sS'acary (time)'
p2172
F145.10829400000512
sS'ghadimi (time)'
p2173
F145.19866599998204
sg8
g2128
sS'normal (time)'
p2174
F153.60453099998995
sa(dp2175
S'dicairano (time)'
p2176
F148.147163000016
sg4
g67
sS'acary (time)'
p2177
F148.42689499998232
sS'ghadimi (time)'
p2178
F148.5917490000138
sg8
g2128
sS'normal (time)'
p2179
F148.52195399999619
sa(dp2180
S'dicairano (time)'
p2181
F145.2190840000112
sg4
g73
sS'acary (time)'
p2182
F144.3444829999935
sS'ghadimi (time)'
p2183
F144.23763399999007
sg8
g2128
sS'normal (time)'
p2184
F145.6745590000064
saa(lp2185
(dp2186
S'dicairano (time)'
p2187
F78.39401799999177
sg4
g5
sS'acary (time)'
p2188
F74.8116399999999
sS'ghadimi (time)'
p2189
F74.33645400000387
sg8
S'Box_Stacks-i1000-632-12.hdf5'
p2190
sS'normal (time)'
p2191
F78.71319499998935
sa(dp2192
S'dicairano (time)'
p2193
F81.13694399999804
sg4
g13
sS'acary (time)'
p2194
F80.758428000001
sS'ghadimi (time)'
p2195
F79.28581800000393
sg8
g2190
sS'normal (time)'
p2196
F80.71693199998117
sa(dp2197
S'dicairano (time)'
p2198
F78.24339899999904
sg4
g19
sS'acary (time)'
p2199
F74.85636400000658
sS'ghadimi (time)'
p2200
F74.56342400002177
sg8
g2190
sS'normal (time)'
p2201
F78.36449800000992
sa(dp2202
S'dicairano (time)'
p2203
F148.7876989999786
sg4
g25
sS'acary (time)'
p2204
F148.6638250000251
sS'ghadimi (time)'
p2205
F146.48996199999237
sg8
g2190
sS'normal (time)'
p2206
F149.12890300000436
sa(dp2207
S'dicairano (time)'
p2208
F151.59994399998686
sg4
g31
sS'acary (time)'
p2209
F151.6834450000024
sS'ghadimi (time)'
p2210
F151.69519599998603
sg8
g2190
sS'normal (time)'
p2211
F151.0701649999828
sa(dp2212
S'dicairano (time)'
p2213
F148.69340599997668
sg4
g37
sS'acary (time)'
p2214
F148.97639799999888
sS'ghadimi (time)'
p2215
F146.72524800000247
sg8
g2190
sS'normal (time)'
p2216
F148.75026299999445
sa(dp2217
S'dicairano (time)'
p2218
F149.90534900000785
sg4
g43
sS'acary (time)'
p2219
F146.14677399999346
sS'ghadimi (time)'
p2220
F147.3442830000131
sg8
g2190
sS'normal (time)'
p2221
F150.05765800000518
sa(dp2222
S'dicairano (time)'
p2223
F144.49261899999692
sg4
g49
sS'acary (time)'
p2224
F145.9201190000167
sS'ghadimi (time)'
p2225
F146.519524000003
sg8
g2190
sS'normal (time)'
p2226
F144.40752899998915
sa(dp2227
S'dicairano (time)'
p2228
F149.85722899998655
sg4
g55
sS'acary (time)'
p2229
F146.41368599998532
sS'ghadimi (time)'
p2230
F146.80153499997687
sg8
g2190
sS'normal (time)'
p2231
F148.42778500000713
sa(dp2232
S'dicairano (time)'
p2233
F150.1007180000015
sg4
g61
sS'acary (time)'
p2234
F148.03250699999626
sS'ghadimi (time)'
p2235
F147.82588000001851
sg8
g2190
sS'normal (time)'
p2236
F149.93410700000823
sa(dp2237
S'dicairano (time)'
p2238
F152.60875499999383
sg4
g67
sS'acary (time)'
p2239
F153.0755610000051
sS'ghadimi (time)'
p2240
F152.9228600000206
sg8
g2190
sS'normal (time)'
p2241
F152.27753799999482
sa(dp2242
S'dicairano (time)'
p2243
F149.99120499999844
sg4
g73
sS'acary (time)'
p2244
F148.32373299999745
sS'ghadimi (time)'
p2245
F148.01269300002605
sg8
g2190
sS'normal (time)'
p2246
F149.68131499999436
saa(lp2247
(dp2248
S'dicairano (time)'
p2249
F78.15898599999491
sg4
g5
sS'acary (time)'
p2250
F74.7774029999855
sS'ghadimi (time)'
p2251
F74.1964840000146
sg8
S'Box_Stacks-i1000-633-14.hdf5'
p2252
sS'normal (time)'
p2253
F78.30884000001242
sa(dp2254
S'dicairano (time)'
p2255
F81.33544500000426
sg4
g13
sS'acary (time)'
p2256
F81.09302199998638
sS'ghadimi (time)'
p2257
F79.59542800000054
sg8
g2252
sS'normal (time)'
p2258
F81.31226599999354
sa(dp2259
S'dicairano (time)'
p2260
F78.49180799999158
sg4
g19
sS'acary (time)'
p2261
F75.21353300000192
sS'ghadimi (time)'
p2262
F74.93825100001413
sg8
g2252
sS'normal (time)'
p2263
F78.5088720000058
sa(dp2264
S'dicairano (time)'
p2265
F149.25932799998554
sg4
g25
sS'acary (time)'
p2266
F149.35082999998122
sS'ghadimi (time)'
p2267
F147.03708700000425
sg8
g2252
sS'normal (time)'
p2268
F149.1721130000078
sa(dp2269
S'dicairano (time)'
p2270
F151.94049800001085
sg4
g31
sS'acary (time)'
p2271
F152.14355099998647
sS'ghadimi (time)'
p2272
F152.1409580000036
sg8
g2252
sS'normal (time)'
p2273
F151.96921300000395
sa(dp2274
S'dicairano (time)'
p2275
F149.03290699998615
sg4
g37
sS'acary (time)'
p2276
F148.00093200002448
sS'ghadimi (time)'
p2277
F147.08007299999008
sg8
g2252
sS'normal (time)'
p2278
F149.50723600000492
sa(dp2279
S'dicairano (time)'
p2280
F150.38986600001226
sg4
g43
sS'acary (time)'
p2281
F146.86014299999806
sS'ghadimi (time)'
p2282
F147.87750000000233
sg8
g2252
sS'normal (time)'
p2283
F150.2098479999986
sa(dp2284
S'dicairano (time)'
p2285
F145.11829699997907
sg4
g49
sS'acary (time)'
p2286
F146.90350499999477
sS'ghadimi (time)'
p2287
F146.0103029999882
sg8
g2252
sS'normal (time)'
p2288
F145.07581400001072
sa(dp2289
S'dicairano (time)'
p2290
F150.27152999999817
sg4
g55
sS'acary (time)'
p2291
F147.12730199997895
sS'ghadimi (time)'
p2292
F146.74249600002076
sg8
g2252
sS'normal (time)'
p2293
F149.82845000000088
sa(dp2294
S'dicairano (time)'
p2295
F150.53176699997857
sg4
g61
sS'acary (time)'
p2296
F148.45555799998692
sS'ghadimi (time)'
p2297
F148.2245230000117
sg8
g2252
sS'normal (time)'
p2298
F150.61547900000005
sa(dp2299
S'dicairano (time)'
p2300
F153.28795500000706
sg4
g67
sS'acary (time)'
p2301
F153.50700300000608
sS'ghadimi (time)'
p2302
F153.44548600001144
sg8
g2252
sS'normal (time)'
p2303
F153.17443799998728
sa(dp2304
S'dicairano (time)'
p2305
F150.46322900001542
sg4
g73
sS'acary (time)'
p2306
F148.80709499999648
sS'ghadimi (time)'
p2307
F148.703250999999
sg8
g2252
sS'normal (time)'
p2308
F150.53083299999707
saa(lp2309
(dp2310
S'dicairano (time)'
p2311
F78.55125200000475
sg4
g5
sS'acary (time)'
p2312
F75.12523599999258
sS'ghadimi (time)'
p2313
F74.51493299999856
sg8
S'Box_Stacks-i1000-633-15.hdf5'
p2314
sS'normal (time)'
p2315
F78.45612300001085
sa(dp2316
S'dicairano (time)'
p2317
F88.64292199999909
sg4
g13
sS'acary (time)'
p2318
F81.09932599999593
sS'ghadimi (time)'
p2319
F79.34575300000142
sg8
g2314
sS'normal (time)'
p2320
F80.95563700000639
sa(dp2321
S'dicairano (time)'
p2322
F78.13948700000765
sg4
g19
sS'acary (time)'
p2323
F74.77989499998512
sS'ghadimi (time)'
p2324
F74.63559299998451
sg8
g2314
sS'normal (time)'
p2325
F78.23369200000889
sa(dp2326
S'dicairano (time)'
p2327
F148.92948600000818
sg4
g25
sS'acary (time)'
p2328
F148.69683500000974
sS'ghadimi (time)'
p2329
F146.58128000001307
sg8
g2314
sS'normal (time)'
p2330
F148.6996780000045
sa(dp2331
S'dicairano (time)'
p2332
F151.4526130000013
sg4
g31
sS'acary (time)'
p2333
F151.79176299998653
sS'ghadimi (time)'
p2334
F151.76866800000425
sg8
g2314
sS'normal (time)'
p2335
F151.40294299999368
sa(dp2336
S'dicairano (time)'
p2337
F148.77944000001298
sg4
g37
sS'acary (time)'
p2338
F148.80926599999657
sS'ghadimi (time)'
p2339
F146.80779700001585
sg8
g2314
sS'normal (time)'
p2340
F148.80397000000812
sa(dp2341
S'dicairano (time)'
p2342
F149.5199840000132
sg4
g43
sS'acary (time)'
p2343
F146.35616700001992
sS'ghadimi (time)'
p2344
F147.2854529999895
sg8
g2314
sS'normal (time)'
p2345
F149.8480409999902
sa(dp2346
S'dicairano (time)'
p2347
F145.0466819999856
sg4
g49
sS'acary (time)'
p2348
F145.9380919999967
sS'ghadimi (time)'
p2349
F146.05018999997992
sg8
g2314
sS'normal (time)'
p2350
F145.21263799999724
sa(dp2351
S'dicairano (time)'
p2352
F150.11359799999627
sg4
g55
sS'acary (time)'
p2353
F147.08246499998495
sS'ghadimi (time)'
p2354
F147.1636920000019
sg8
g2314
sS'normal (time)'
p2355
F150.1828819999937
sa(dp2356
S'dicairano (time)'
p2357
F150.4285610000079
sg4
g61
sS'acary (time)'
p2358
F148.41324900000473
sS'ghadimi (time)'
p2359
F148.20150799999828
sg8
g2314
sS'normal (time)'
p2360
F150.3717539999925
sa(dp2361
S'dicairano (time)'
p2362
F153.32184799999231
sg4
g67
sS'acary (time)'
p2363
F153.5100800000073
sS'ghadimi (time)'
p2364
F153.31672200001776
sg8
g2314
sS'normal (time)'
p2365
F153.26921500000753
sa(dp2366
S'dicairano (time)'
p2367
F150.21921499999007
sg4
g73
sS'acary (time)'
p2368
F148.657435000001
sS'ghadimi (time)'
p2369
F148.28545899997698
sg8
g2314
sS'normal (time)'
p2370
F149.9853019999864
saa(lp2371
(dp2372
S'dicairano (time)'
p2373
F78.37477299998864
sg4
g5
sS'acary (time)'
p2374
F74.83645699999761
sS'ghadimi (time)'
p2375
F74.20705200001248
sg8
S'Box_Stacks-i1000-634-16.hdf5'
p2376
sS'normal (time)'
p2377
F77.64715400000568
sa(dp2378
S'dicairano (time)'
p2379
F81.33832800001255
sg4
g13
sS'acary (time)'
p2380
F80.8577890000015
sS'ghadimi (time)'
p2381
F79.45553300000029
sg8
g2376
sS'normal (time)'
p2382
F81.18472099999781
sa(dp2383
S'dicairano (time)'
p2384
F78.1280909999914
sg4
g19
sS'acary (time)'
p2385
F74.90639600000577
sS'ghadimi (time)'
p2386
F74.66930499998853
sg8
g2376
sS'normal (time)'
p2387
F78.19469900001423
sa(dp2388
S'dicairano (time)'
p2389
F148.98011600002064
sg4
g25
sS'acary (time)'
p2390
F149.0059509999992
sS'ghadimi (time)'
p2391
F146.70156700001098
sg8
g2376
sS'normal (time)'
p2392
F148.3049699999974
sa(dp2393
S'dicairano (time)'
p2394
F152.06302800000412
sg4
g31
sS'acary (time)'
p2395
F151.97159800000372
sS'ghadimi (time)'
p2396
F152.3345960000006
sg8
g2376
sS'normal (time)'
p2397
F151.87862199998926
sa(dp2398
S'dicairano (time)'
p2399
F148.78656199999386
sg4
g37
sS'acary (time)'
p2400
F149.09743100000196
sS'ghadimi (time)'
p2401
F147.05020600001444
sg8
g2376
sS'normal (time)'
p2402
F148.98188100001425
sa(dp2403
S'dicairano (time)'
p2404
F150.18093000000226
sg4
g43
sS'acary (time)'
p2405
F146.6379869999946
sS'ghadimi (time)'
p2406
F147.699930999981
sg8
g2376
sS'normal (time)'
p2407
F149.54312899999786
sa(dp2408
S'dicairano (time)'
p2409
F145.30727000001934
sg4
g49
sS'acary (time)'
p2410
F145.750555000006
sS'ghadimi (time)'
p2411
F146.09197500001756
sg8
g2376
sS'normal (time)'
p2412
F145.42153099999996
sa(dp2413
S'dicairano (time)'
p2414
F150.29563899998902
sg4
g55
sS'acary (time)'
p2415
F147.0847730000096
sS'ghadimi (time)'
p2416
F147.02696700001252
sg8
g2376
sS'normal (time)'
p2417
F150.47267499999725
sa(dp2418
S'dicairano (time)'
p2419
F150.6922139999806
sg4
g61
sS'acary (time)'
p2420
F148.33147299999837
sS'ghadimi (time)'
p2421
F148.3061400000006
sg8
g2376
sS'normal (time)'
p2422
F150.4195699999982
sa(dp2423
S'dicairano (time)'
p2424
F153.72169599999324
sg4
g67
sS'acary (time)'
p2425
F153.80529200000456
sS'ghadimi (time)'
p2426
F153.79453700000886
sg8
g2376
sS'normal (time)'
p2427
F153.3659869999974
sa(dp2428
S'dicairano (time)'
p2429
F150.49003600000287
sg4
g73
sS'acary (time)'
p2430
F148.86879400000907
sS'ghadimi (time)'
p2431
F148.823246999993
sg8
g2376
sS'normal (time)'
p2432
F150.20343399999547
saa(lp2433
(dp2434
S'dicairano (time)'
p2435
F78.86996399998316
sg4
g5
sS'acary (time)'
p2436
F75.30691700000898
sS'ghadimi (time)'
p2437
F74.66929400002118
sg8
S'Box_Stacks-i1000-634-17.hdf5'
p2438
sS'normal (time)'
p2439
F78.12381900000037
sa(dp2440
S'dicairano (time)'
p2441
F81.68176600002334
sg4
g13
sS'acary (time)'
p2442
F81.50801699998556
sS'ghadimi (time)'
p2443
F79.68844399999944
sg8
g2438
sS'normal (time)'
p2444
F81.21366199999466
sa(dp2445
S'dicairano (time)'
p2446
F78.46971599999233
sg4
g19
sS'acary (time)'
p2447
F75.17141700000502
sS'ghadimi (time)'
p2448
F74.76429700001609
sg8
g2438
sS'normal (time)'
p2449
F78.4062130000093
sa(dp2450
S'dicairano (time)'
p2451
F149.39234099999885
sg4
g25
sS'acary (time)'
p2452
F149.19991799999843
sS'ghadimi (time)'
p2453
F146.89404099999228
sg8
g2438
sS'normal (time)'
p2454
F148.67818000001716
sa(dp2455
S'dicairano (time)'
p2456
F152.194593000022
sg4
g31
sS'acary (time)'
p2457
F152.540559999994
sS'ghadimi (time)'
p2458
F152.16926200001035
sg8
g2438
sS'normal (time)'
p2459
F153.40349500000593
sa(dp2460
S'dicairano (time)'
p2461
F149.13012000001618
sg4
g37
sS'acary (time)'
p2462
F155.78733999998076
sS'ghadimi (time)'
p2463
F147.317229999986
sg8
g2438
sS'normal (time)'
p2464
F149.22164699999848
sa(dp2465
S'dicairano (time)'
p2466
F150.3656079999928
sg4
g43
sS'acary (time)'
p2467
F147.02090699999826
sS'ghadimi (time)'
p2468
F147.8489610000106
sg8
g2438
sS'normal (time)'
p2469
F149.80210999998963
sa(dp2470
S'dicairano (time)'
p2471
F145.1986629999883
sg4
g49
sS'acary (time)'
p2472
F146.9000599999854
sS'ghadimi (time)'
p2473
F146.08019100001547
sg8
g2438
sS'normal (time)'
p2474
F145.14816699997755
sa(dp2475
S'dicairano (time)'
p2476
F150.34702000001562
sg4
g55
sS'acary (time)'
p2477
F147.07826300000306
sS'ghadimi (time)'
p2478
F146.9535249999899
sg8
g2438
sS'normal (time)'
p2479
F150.4842199999839
sa(dp2480
S'dicairano (time)'
p2481
F150.61041600001045
sg4
g61
sS'acary (time)'
p2482
F148.36749500001315
sS'ghadimi (time)'
p2483
F148.1688429999922
sg8
g2438
sS'normal (time)'
p2484
F150.4400120000064
sa(dp2485
S'dicairano (time)'
p2486
F153.40594299999066
sg4
g67
sS'acary (time)'
p2487
F154.02758599998197
sS'ghadimi (time)'
p2488
F153.7060610000044
sg8
g2438
sS'normal (time)'
p2489
F153.24199700000463
sa(dp2490
S'dicairano (time)'
p2491
F150.4722480000055
sg4
g73
sS'acary (time)'
p2492
F148.75747700000647
sS'ghadimi (time)'
p2493
F148.67173199998797
sg8
g2438
sS'normal (time)'
p2494
F150.27410199999576
saa(lp2495
(dp2496
S'dicairano (time)'
p2497
F78.58977500000037
sg4
g5
sS'acary (time)'
p2498
F74.91891600002418
sS'ghadimi (time)'
p2499
F74.40635900001507
sg8
S'Box_Stacks-i1000-634-18.hdf5'
p2500
sS'normal (time)'
p2501
F77.8944419999898
sa(dp2502
S'dicairano (time)'
p2503
F81.58203499999945
sg4
g13
sS'acary (time)'
p2504
F81.11044699998456
sS'ghadimi (time)'
p2505
F79.7357829999819
sg8
g2500
sS'normal (time)'
p2506
F81.40152499999385
sa(dp2507
S'dicairano (time)'
p2508
F78.46209899999667
sg4
g19
sS'acary (time)'
p2509
F75.11265700001968
sS'ghadimi (time)'
p2510
F74.81548799999291
sg8
g2500
sS'normal (time)'
p2511
F78.43146700001671
sa(dp2512
S'dicairano (time)'
p2513
F149.47031099998276
sg4
g25
sS'acary (time)'
p2514
F149.27634800001397
sS'ghadimi (time)'
p2515
F147.02973599999677
sg8
g2500
sS'normal (time)'
p2516
F148.73286199997528
sa(dp2517
S'dicairano (time)'
p2518
F152.21651299999212
sg4
g31
sS'acary (time)'
p2519
F152.2681749999756
sS'ghadimi (time)'
p2520
F152.29145099999732
sg8
g2500
sS'normal (time)'
p2521
F152.10380200002692
sa(dp2522
S'dicairano (time)'
p2523
F149.26584100001492
sg4
g37
sS'acary (time)'
p2524
F149.41777400000137
sS'ghadimi (time)'
p2525
F147.34253099997295
sg8
g2500
sS'normal (time)'
p2526
F149.34540900000138
sa(dp2527
S'dicairano (time)'
p2528
F150.53106800001115
sg4
g43
sS'acary (time)'
p2529
F146.95427000001655
sS'ghadimi (time)'
p2530
F148.57528200000525
sg8
g2500
sS'normal (time)'
p2531
F150.0329020000063
sa(dp2532
S'dicairano (time)'
p2533
F145.38979100002325
sg4
g49
sS'acary (time)'
p2534
F146.84784599998966
sS'ghadimi (time)'
p2535
F146.65190500000608
sg8
g2500
sS'normal (time)'
p2536
F145.22198500001105
sa(dp2537
S'dicairano (time)'
p2538
F150.4012470000016
sg4
g55
sS'acary (time)'
p2539
F147.01508800001466
sS'ghadimi (time)'
p2540
F147.4569040000206
sg8
g2500
sS'normal (time)'
p2541
F150.33799
sa(dp2542
S'dicairano (time)'
p2543
F150.67215300002135
sg4
g61
sS'acary (time)'
p2544
F148.36090800000238
sS'ghadimi (time)'
p2545
F148.25030700000934
sg8
g2500
sS'normal (time)'
p2546
F150.37415300001157
sa(dp2547
S'dicairano (time)'
p2548
F153.59343300000182
sg4
g67
sS'acary (time)'
p2549
F153.60743599999114
sS'ghadimi (time)'
p2550
F153.65163400000893
sg8
g2500
sS'normal (time)'
p2551
F153.3950940000068
sa(dp2552
S'dicairano (time)'
p2553
F150.59137199999532
sg4
g73
sS'acary (time)'
p2554
F148.74689000000944
sS'ghadimi (time)'
p2555
F148.94641300002695
sg8
g2500
sS'normal (time)'
p2556
F150.56731400001445
saa(lp2557
(dp2558
S'dicairano (time)'
p2559
F77.78610699999263
sg4
g5
sS'acary (time)'
p2560
F75.08727399999043
sS'ghadimi (time)'
p2561
F74.61386599999969
sg8
S'Box_Stacks-i1000-635-19.hdf5'
p2562
sS'normal (time)'
p2563
F78.36607199997525
sa(dp2564
S'dicairano (time)'
p2565
F81.59615500000655
sg4
g13
sS'acary (time)'
p2566
F81.24416199998814
sS'ghadimi (time)'
p2567
F79.83525600002031
sg8
g2562
sS'normal (time)'
p2568
F81.53411700000288
sa(dp2569
S'dicairano (time)'
p2570
F77.59494700000505
sg4
g19
sS'acary (time)'
p2571
F75.1288099999947
sS'ghadimi (time)'
p2572
F74.85011400000076
sg8
g2562
sS'normal (time)'
p2573
F78.31451299999026
sa(dp2574
S'dicairano (time)'
p2575
F148.60819900000934
sg4
g25
sS'acary (time)'
p2576
F148.30965799998376
sS'ghadimi (time)'
p2577
F147.1156970000011
sg8
g2562
sS'normal (time)'
p2578
F149.19736099999864
sa(dp2579
S'dicairano (time)'
p2580
F152.22946699999738
sg4
g31
sS'acary (time)'
p2581
F152.60485499998322
sS'ghadimi (time)'
p2582
F152.39554399999906
sg8
g2562
sS'normal (time)'
p2583
F152.3829539999715
sa(dp2584
S'dicairano (time)'
p2585
F148.44060200001695
sg4
g37
sS'acary (time)'
p2586
F148.39660099998582
sS'ghadimi (time)'
p2587
F147.29270000001998
sg8
g2562
sS'normal (time)'
p2588
F149.12840700001107
sa(dp2589
S'dicairano (time)'
p2590
F149.63693900001817
sg4
g43
sS'acary (time)'
p2591
F146.86851000000024
sS'ghadimi (time)'
p2592
F147.6060099999886
sg8
g2562
sS'normal (time)'
p2593
F150.177635
sa(dp2594
S'dicairano (time)'
p2595
F145.3327789999894
sg4
g49
sS'acary (time)'
p2596
F145.73342299999786
sS'ghadimi (time)'
p2597
F146.17991999999504
sg8
g2562
sS'normal (time)'
p2598
F153.26507299998775
sa(dp2599
S'dicairano (time)'
p2600
F149.1605120000022
sg4
g55
sS'acary (time)'
p2601
F147.04235000000335
sS'ghadimi (time)'
p2602
F146.84474800000316
sg8
g2562
sS'normal (time)'
p2603
F150.36579799998435
sa(dp2604
S'dicairano (time)'
p2605
F149.9158420000167
sg4
g61
sS'acary (time)'
p2606
F148.64240199999767
sS'ghadimi (time)'
p2607
F148.34980799999903
sg8
g2562
sS'normal (time)'
p2608
F150.29848800000036
sa(dp2609
S'dicairano (time)'
p2610
F153.65052900000592
sg4
g67
sS'acary (time)'
p2611
F153.83281800002442
sS'ghadimi (time)'
p2612
F153.72246699998504
sg8
g2562
sS'normal (time)'
p2613
F153.6502460000047
sa(dp2614
S'dicairano (time)'
p2615
F149.67095099997823
sg4
g73
sS'acary (time)'
p2616
F148.61219600000186
sS'ghadimi (time)'
p2617
F148.78212099999655
sg8
g2562
sS'normal (time)'
p2618
F150.38637200000812
saa(lp2619
(dp2620
S'dicairano (time)'
p2621
F77.97484000000986
sg4
g5
sS'acary (time)'
p2622
F75.17961799999466
sS'ghadimi (time)'
p2623
F74.70544900000095
sg8
S'Box_Stacks-i1000-635-20.hdf5'
p2624
sS'normal (time)'
p2625
F78.04128400000627
sa(dp2626
S'dicairano (time)'
p2627
F81.96373499999754
sg4
g13
sS'acary (time)'
p2628
F81.21986499999184
sS'ghadimi (time)'
p2629
F79.98642600001767
sg8
g2624
sS'normal (time)'
p2630
F81.64377900000545
sa(dp2631
S'dicairano (time)'
p2632
F77.78808500000741
sg4
g19
sS'acary (time)'
p2633
F75.13505199999781
sS'ghadimi (time)'
p2634
F74.98824800000875
sg8
g2624
sS'normal (time)'
p2635
F78.14009400000214
sa(dp2636
S'dicairano (time)'
p2637
F148.6602969999949
sg4
g25
sS'acary (time)'
p2638
F148.27342399998452
sS'ghadimi (time)'
p2639
F147.22395999997389
sg8
g2624
sS'normal (time)'
p2640
F148.82543900000746
sa(dp2641
S'dicairano (time)'
p2642
F152.6353700000036
sg4
g31
sS'acary (time)'
p2643
F152.60901400001603
sS'ghadimi (time)'
p2644
F152.56454200000735
sg8
g2624
sS'normal (time)'
p2645
F152.35510700001032
sa(dp2646
S'dicairano (time)'
p2647
F148.62065900000744
sg4
g37
sS'acary (time)'
p2648
F148.6852690000087
sS'ghadimi (time)'
p2649
F147.49979500001064
sg8
g2624
sS'normal (time)'
p2650
F148.92510799999582
sa(dp2651
S'dicairano (time)'
p2652
F149.97652799999923
sg4
g43
sS'acary (time)'
p2653
F148.17646699998295
sS'ghadimi (time)'
p2654
F147.796525999991
sg8
g2624
sS'normal (time)'
p2655
F150.0577859999903
sa(dp2656
S'dicairano (time)'
p2657
F145.14795199999935
sg4
g49
sS'acary (time)'
p2658
F145.78098900002078
sS'ghadimi (time)'
p2659
F149.241571999999
sg8
g2624
sS'normal (time)'
p2660
F145.50346399997943
sa(dp2661
S'dicairano (time)'
p2662
F147.19128500000807
sg4
g55
sS'acary (time)'
p2663
F146.9215700000059
sS'ghadimi (time)'
p2664
F146.95282600002247
sg8
g2624
sS'normal (time)'
p2665
F149.3560320000106
sa(dp2666
S'dicairano (time)'
p2667
F150.00173600000562
sg4
g61
sS'acary (time)'
p2668
F148.6380380000046
sS'ghadimi (time)'
p2669
F148.41523499999312
sg8
g2624
sS'normal (time)'
p2670
F150.31860199998482
sa(dp2671
S'dicairano (time)'
p2672
F153.8883640000131
sg4
g67
sS'acary (time)'
p2673
F154.01309399999445
sS'ghadimi (time)'
p2674
F153.86876099999063
sg8
g2624
sS'normal (time)'
p2675
F153.7928280000051
sa(dp2676
S'dicairano (time)'
p2677
F149.7955409999995
sg4
g73
sS'acary (time)'
p2678
F148.86307000002125
sS'ghadimi (time)'
p2679
F148.83658699999796
sg8
g2624
sS'normal (time)'
p2680
F150.58039100002497
saa(lp2681
(dp2682
S'dicairano (time)'
p2683
F77.96970800001873
sg4
g5
sS'acary (time)'
p2684
F75.19647200001054
sS'ghadimi (time)'
p2685
F74.58669199998258
sg8
S'Box_Stacks-i1000-635-21.hdf5'
p2686
sS'normal (time)'
p2687
F78.02163800000562
sa(dp2688
S'dicairano (time)'
p2689
F81.60602199999266
sg4
g13
sS'acary (time)'
p2690
F81.3285479999904
sS'ghadimi (time)'
p2691
F79.80390599998645
sg8
g2686
sS'normal (time)'
p2692
F81.63316299999133
sa(dp2693
S'dicairano (time)'
p2694
F77.73104100002092
sg4
g19
sS'acary (time)'
p2695
F75.16825600000448
sS'ghadimi (time)'
p2696
F74.79469999999856
sg8
g2686
sS'normal (time)'
p2697
F78.16690399998333
sa(dp2698
S'dicairano (time)'
p2699
F148.6757670000079
sg4
g25
sS'acary (time)'
p2700
F148.38108900000225
sS'ghadimi (time)'
p2701
F147.1270310000109
sg8
g2686
sS'normal (time)'
p2702
F148.98024999999325
sa(dp2703
S'dicairano (time)'
p2704
F152.26944000000367
sg4
g31
sS'acary (time)'
p2705
F152.69428399999742
sS'ghadimi (time)'
p2706
F152.7646989999921
sg8
g2686
sS'normal (time)'
p2707
F152.42926800000714
sa(dp2708
S'dicairano (time)'
p2709
F148.5272769999865
sg4
g37
sS'acary (time)'
p2710
F148.45839799998794
sS'ghadimi (time)'
p2711
F147.34100899999612
sg8
g2686
sS'normal (time)'
p2712
F148.94385599999805
sa(dp2713
S'dicairano (time)'
p2714
F149.6233479999937
sg4
g43
sS'acary (time)'
p2715
F146.9536950000038
sS'ghadimi (time)'
p2716
F147.93445599998813
sg8
g2686
sS'normal (time)'
p2717
F149.873265000002
sa(dp2718
S'dicairano (time)'
p2719
F145.49951300001703
sg4
g49
sS'acary (time)'
p2720
F145.88100900000427
sS'ghadimi (time)'
p2721
F146.4605140000058
sg8
g2686
sS'normal (time)'
p2722
F145.3891790000198
sa(dp2723
S'dicairano (time)'
p2724
F149.75164000000223
sg4
g55
sS'acary (time)'
p2725
F147.09279100000276
sS'ghadimi (time)'
p2726
F146.88403800001834
sg8
g2686
sS'normal (time)'
p2727
F147.30684900001506
sa(dp2728
S'dicairano (time)'
p2729
F150.013134000008
sg4
g61
sS'acary (time)'
p2730
F148.6225609999965
sS'ghadimi (time)'
p2731
F148.49654100000043
sg8
g2686
sS'normal (time)'
p2732
F150.2646400000085
sa(dp2733
S'dicairano (time)'
p2734
F153.4417839999951
sg4
g67
sS'acary (time)'
p2735
F153.86467099998845
sS'ghadimi (time)'
p2736
F161.7821919999842
sg8
g2686
sS'normal (time)'
p2737
F154.06934799999
sa(dp2738
S'dicairano (time)'
p2739
F150.24342400001478
sg4
g73
sS'acary (time)'
p2740
F149.3065250000218
sS'ghadimi (time)'
p2741
F149.43324199999915
sg8
g2686
sS'normal (time)'
p2742
F150.93991300000926
saa(lp2743
(dp2744
S'dicairano (time)'
p2745
F78.26506799997878
sg4
g5
sS'acary (time)'
p2746
F75.61117399999057
sS'ghadimi (time)'
p2747
F75.03028400000767
sg8
S'Box_Stacks-i1000-636-25.hdf5'
p2748
sS'normal (time)'
p2749
F78.46344399999361
sa(dp2750
S'dicairano (time)'
p2751
F81.89000899999519
sg4
g13
sS'acary (time)'
p2752
F81.72100200000568
sS'ghadimi (time)'
p2753
F80.07855400000699
sg8
g2748
sS'normal (time)'
p2754
F81.9137069999997
sa(dp2755
S'dicairano (time)'
p2756
F78.1213979999884
sg4
g19
sS'acary (time)'
p2757
F75.61352199999965
sS'ghadimi (time)'
p2758
F75.32215599998017
sg8
g2748
sS'normal (time)'
p2759
F78.58461499999976
sa(dp2760
S'dicairano (time)'
p2761
F149.23683999999776
sg4
g25
sS'acary (time)'
p2762
F149.38443299999926
sS'ghadimi (time)'
p2763
F147.85724399998435
sg8
g2748
sS'normal (time)'
p2764
F149.48284499999136
sa(dp2765
S'dicairano (time)'
p2766
F153.05258500002674
sg4
g31
sS'acary (time)'
p2767
F153.34513200001675
sS'ghadimi (time)'
p2768
F153.25128600001335
sg8
g2748
sS'normal (time)'
p2769
F152.98317699998734
sa(dp2770
S'dicairano (time)'
p2771
F149.237369999988
sg4
g37
sS'acary (time)'
p2772
F149.21866600000067
sS'ghadimi (time)'
p2773
F148.11853300000075
sg8
g2748
sS'normal (time)'
p2774
F149.6730760000064
sa(dp2775
S'dicairano (time)'
p2776
F150.3920329999819
sg4
g43
sS'acary (time)'
p2777
F147.74491700000362
sS'ghadimi (time)'
p2778
F148.5426799999841
sg8
g2748
sS'normal (time)'
p2779
F150.75946699999622
sa(dp2780
S'dicairano (time)'
p2781
F145.6351110000105
sg4
g49
sS'acary (time)'
p2782
F146.50689499999862
sS'ghadimi (time)'
p2783
F149.14528900000732
sg8
g2748
sS'normal (time)'
p2784
F146.17349699998158
sa(dp2785
S'dicairano (time)'
p2786
F150.61036200000672
sg4
g55
sS'acary (time)'
p2787
F147.8692040000169
sS'ghadimi (time)'
p2788
F148.32384299999103
sg8
g2748
sS'normal (time)'
p2789
F150.80863200000022
sa(dp2790
S'dicairano (time)'
p2791
F150.7047040000034
sg4
g61
sS'acary (time)'
p2792
F149.58316799998283
sS'ghadimi (time)'
p2793
F149.14896099999896
sg8
g2748
sS'normal (time)'
p2794
F150.7068609999842
sa(dp2795
S'dicairano (time)'
p2796
F154.29579100001138
sg4
g67
sS'acary (time)'
p2797
F154.63166600000113
sS'ghadimi (time)'
p2798
F154.10723900000448
sg8
g2748
sS'normal (time)'
p2799
F154.19212200000766
sa(dp2800
S'dicairano (time)'
p2801
F150.45257100000163
sg4
g73
sS'acary (time)'
p2802
F149.57328099998995
sS'ghadimi (time)'
p2803
F149.37573800000246
sg8
g2748
sS'normal (time)'
p2804
F151.3117820000043
saa(lp2805
(dp2806
S'dicairano (time)'
p2807
F78.1770409999881
sg4
g5
sS'acary (time)'
p2808
F75.60886300000129
sS'ghadimi (time)'
p2809
F75.03469400000176
sg8
S'Box_Stacks-i1000-636-26.hdf5'
p2810
sS'normal (time)'
p2811
F78.4392710000102
sa(dp2812
S'dicairano (time)'
p2813
F79.60393699997803
sg4
g13
sS'acary (time)'
p2814
F81.89223100000527
sS'ghadimi (time)'
p2815
F80.18996300001163
sg8
g2810
sS'normal (time)'
p2816
F81.87184900001739
sa(dp2817
S'dicairano (time)'
p2818
F78.4998449999839
sg4
g19
sS'acary (time)'
p2819
F75.93684499998926
sS'ghadimi (time)'
p2820
F75.19829699999536
sg8
g2810
sS'normal (time)'
p2821
F78.4872360000154
sa(dp2822
S'dicairano (time)'
p2823
F149.26309500000207
sg4
g25
sS'acary (time)'
p2824
F149.5249499999918
sS'ghadimi (time)'
p2825
F147.72417999999016
sg8
g2810
sS'normal (time)'
p2826
F149.71854500001064
sa(dp2827
S'dicairano (time)'
p2828
F150.55110400001286
sg4
g31
sS'acary (time)'
p2829
F153.32639400000335
sS'ghadimi (time)'
p2830
F153.21504999999888
sg8
g2810
sS'normal (time)'
p2831
F153.035023000004
sa(dp2832
S'dicairano (time)'
p2833
F149.08691700000782
sg4
g37
sS'acary (time)'
p2834
F149.1593549999816
sS'ghadimi (time)'
p2835
F147.99340000000666
sg8
g2810
sS'normal (time)'
p2836
F149.61390100000426
sa(dp2837
S'dicairano (time)'
p2838
F150.43361899998854
sg4
g43
sS'acary (time)'
p2839
F147.8345739999786
sS'ghadimi (time)'
p2840
F148.75728799999342
sg8
g2810
sS'normal (time)'
p2841
F150.6967130000121
sa(dp2842
S'dicairano (time)'
p2843
F146.10659899999155
sg4
g49
sS'acary (time)'
p2844
F146.7935169999837
sS'ghadimi (time)'
p2845
F146.59883800000534
sg8
g2810
sS'normal (time)'
p2846
F145.77467199999955
sa(dp2847
S'dicairano (time)'
p2848
F150.28782100000535
sg4
g55
sS'acary (time)'
p2849
F149.69418300001416
sS'ghadimi (time)'
p2850
F147.89037899998948
sg8
g2810
sS'normal (time)'
p2851
F150.2844890000124
sa(dp2852
S'dicairano (time)'
p2853
F150.67754799997783
sg4
g61
sS'acary (time)'
p2854
F149.47113299998455
sS'ghadimi (time)'
p2855
F149.23398599997745
sg8
g2810
sS'normal (time)'
p2856
F151.29840599998715
sa(dp2857
S'dicairano (time)'
p2858
F151.91817399999127
sg4
g67
sS'acary (time)'
p2859
F154.81388999999035
sS'ghadimi (time)'
p2860
F154.95025400002487
sg8
g2810
sS'normal (time)'
p2861
F154.23181599995587
sa(dp2862
S'dicairano (time)'
p2863
F150.62570999999298
sg4
g73
sS'acary (time)'
p2864
F149.61779300001217
sS'ghadimi (time)'
p2865
F149.44048500002827
sg8
g2810
sS'normal (time)'
p2866
F151.34409299999243
saa(lp2867
(dp2868
S'dicairano (time)'
p2869
F79.13737299997592
sg4
g5
sS'acary (time)'
p2870
F75.71437099995092
sS'ghadimi (time)'
p2871
F75.07017800002359
sg8
S'Box_Stacks-i1000-636-27.hdf5'
p2872
sS'normal (time)'
p2873
F78.4911720000091
sa(dp2874
S'dicairano (time)'
p2875
F81.81852000002982
sg4
g13
sS'acary (time)'
p2876
F82.01957800000673
sS'ghadimi (time)'
p2877
F80.34284800000023
sg8
g2872
sS'normal (time)'
p2878
F82.13069899997208
sa(dp2879
S'dicairano (time)'
p2880
F78.64964099996723
sg4
g19
sS'acary (time)'
p2881
F75.59688600001391
sS'ghadimi (time)'
p2882
F83.12154000002192
sg8
g2872
sS'normal (time)'
p2883
F78.29714499996044
sa(dp2884
S'dicairano (time)'
p2885
F149.64517800003523
sg4
g25
sS'acary (time)'
p2886
F148.93836100003682
sS'ghadimi (time)'
p2887
F147.41781099996297
sg8
g2872
sS'normal (time)'
p2888
F149.1635669999523
sa(dp2889
S'dicairano (time)'
p2890
F152.41294700000435
sg4
g31
sS'acary (time)'
p2891
F152.84986800001934
sS'ghadimi (time)'
p2892
F153.16099599999143
sg8
g2872
sS'normal (time)'
p2893
F153.0550429999712
sa(dp2894
S'dicairano (time)'
p2895
F149.1566650000168
sg4
g37
sS'acary (time)'
p2896
F149.0340440000291
sS'ghadimi (time)'
p2897
F147.97321399999782
sg8
g2872
sS'normal (time)'
p2898
F149.64316300000064
sa(dp2899
S'dicairano (time)'
p2900
F151.09126899996772
sg4
g43
sS'acary (time)'
p2901
F147.7135090000229
sS'ghadimi (time)'
p2902
F148.41972399997758
sg8
g2872
sS'normal (time)'
p2903
F150.619944999984
sa(dp2904
S'dicairano (time)'
p2905
F145.9534350000322
sg4
g49
sS'acary (time)'
p2906
F146.57441699999617
sS'ghadimi (time)'
p2907
F150.52903600002173
sg8
g2872
sS'normal (time)'
p2908
F146.25945200002752
sa(dp2909
S'dicairano (time)'
p2910
F150.4689360000193
sg4
g55
sS'acary (time)'
p2911
F148.23698200000217
sS'ghadimi (time)'
p2912
F148.63186500000302
sg8
g2872
sS'normal (time)'
p2913
F150.61202000000048
sa(dp2914
S'dicairano (time)'
p2915
F151.3581450000056
sg4
g61
sS'acary (time)'
p2916
F149.41155499999877
sS'ghadimi (time)'
p2917
F149.2027759999619
sg8
g2872
sS'normal (time)'
p2918
F151.36732499999925
sa(dp2919
S'dicairano (time)'
p2920
F154.134073000052
sg4
g67
sS'acary (time)'
p2921
F154.81892299995525
sS'ghadimi (time)'
p2922
F154.5168619999895
sg8
g2872
sS'normal (time)'
p2923
F154.42667600000277
sa(dp2924
S'dicairano (time)'
p2925
F150.5563480000128
sg4
g73
sS'acary (time)'
p2926
F149.5757459999877
sS'ghadimi (time)'
p2927
F149.59774399996968
sg8
g2872
sS'normal (time)'
p2928
F151.61837799998466
saa(lp2929
(dp2930
S'dicairano (time)'
p2931
F78.73649099998875
sg4
g5
sS'acary (time)'
p2932
F75.60035099997185
sS'ghadimi (time)'
p2933
F75.11493699997663
sg8
S'Box_Stacks-i1000-637-30.hdf5'
p2934
sS'normal (time)'
p2935
F78.49628299998585
sa(dp2936
S'dicairano (time)'
p2937
F82.16800299996976
sg4
g13
sS'acary (time)'
p2938
F81.89755700004753
sS'ghadimi (time)'
p2939
F80.27607199997874
sg8
g2934
sS'normal (time)'
p2940
F81.89373700000579
sa(dp2941
S'dicairano (time)'
p2942
F78.08059600001434
sg4
g19
sS'acary (time)'
p2943
F75.73006299999543
sS'ghadimi (time)'
p2944
F75.33687800000189
sg8
g2934
sS'normal (time)'
p2945
F78.85391199996229
sa(dp2946
S'dicairano (time)'
p2947
F149.81206699996255
sg4
g25
sS'acary (time)'
p2948
F149.13828600000124
sS'ghadimi (time)'
p2949
F148.02475400001276
sg8
g2934
sS'normal (time)'
p2950
F149.61703700001817
sa(dp2951
S'dicairano (time)'
p2952
F153.0991689999937
sg4
g31
sS'acary (time)'
p2953
F153.29696500004502
sS'ghadimi (time)'
p2954
F153.45373199996538
sg8
g2934
sS'normal (time)'
p2955
F152.98575900000287
sa(dp2956
S'dicairano (time)'
p2957
F148.6871960000135
sg4
g37
sS'acary (time)'
p2958
F149.29664899996715
sS'ghadimi (time)'
p2959
F147.51752799999667
sg8
g2934
sS'normal (time)'
p2960
F149.29781299998285
sa(dp2961
S'dicairano (time)'
p2962
F150.58595399995102
sg4
g43
sS'acary (time)'
p2963
F147.13032300001942
sS'ghadimi (time)'
p2964
F148.23649099998875
sg8
g2934
sS'normal (time)'
p2965
F150.07957299996633
sa(dp2966
S'dicairano (time)'
p2967
F145.39274300000397
sg4
g49
sS'acary (time)'
p2968
F146.09639099997003
sS'ghadimi (time)'
p2969
F146.58565799996722
sg8
g2934
sS'normal (time)'
p2970
F145.38663600001018
sa(dp2971
S'dicairano (time)'
p2972
F149.91618499998003
sg4
g55
sS'acary (time)'
p2973
F147.38153300003614
sS'ghadimi (time)'
p2974
F147.13676600001054
sg8
g2934
sS'normal (time)'
p2975
F149.36345000000438
sa(dp2976
S'dicairano (time)'
p2977
F150.79046200000448
sg4
g61
sS'acary (time)'
p2978
F148.7379770000116
sS'ghadimi (time)'
p2979
F148.6566870000097
sg8
g2934
sS'normal (time)'
p2980
F150.78719700005604
sa(dp2981
S'dicairano (time)'
p2982
F153.8684540000395
sg4
g67
sS'acary (time)'
p2983
F154.20093300001463
sS'ghadimi (time)'
p2984
F154.25609400001122
sg8
g2934
sS'normal (time)'
p2985
F153.73192400002154
sa(dp2986
S'dicairano (time)'
p2987
F150.10275400005048
sg4
g73
sS'acary (time)'
p2988
F149.0065590000013
sS'ghadimi (time)'
p2989
F149.03059600002598
sg8
g2934
sS'normal (time)'
p2990
F150.69621999998344
saa(lp2991
(dp2992
S'dicairano (time)'
p2993
F78.78517400001874
sg4
g5
sS'acary (time)'
p2994
F75.4792379999999
sS'ghadimi (time)'
p2995
F74.99791199999163
sg8
S'Box_Stacks-i1000-638-13.hdf5'
p2996
sS'normal (time)'
p2997
F78.75053400004981
sa(dp2998
S'dicairano (time)'
p2999
F81.97144200000912
sg4
g13
sS'acary (time)'
p3000
F81.43518199998653
sS'ghadimi (time)'
p3001
F80.02791299996898
sg8
g2996
sS'normal (time)'
p3002
F81.74473299999954
sa(dp3003
S'dicairano (time)'
p3004
F78.92888199997833
sg4
g19
sS'acary (time)'
p3005
F75.53459599998314
sS'ghadimi (time)'
p3006
F75.32035100000212
sg8
g2996
sS'normal (time)'
p3007
F78.86709399998654
sa(dp3008
S'dicairano (time)'
p3009
F149.72487700002966
sg4
g25
sS'acary (time)'
p3010
F149.6688369999756
sS'ghadimi (time)'
p3011
F147.4776740000234
sg8
g2996
sS'normal (time)'
p3012
F149.65044800000032
sa(dp3013
S'dicairano (time)'
p3014
F152.76628199999686
sg4
g31
sS'acary (time)'
p3015
F152.952236000041
sS'ghadimi (time)'
p3016
F152.77650700003142
sg8
g2996
sS'normal (time)'
p3017
F152.61347800004296
sa(dp3018
S'dicairano (time)'
p3019
F149.68368800001917
sg4
g37
sS'acary (time)'
p3020
F148.68155299994396
sS'ghadimi (time)'
p3021
F156.03034300002037
sg8
g2996
sS'normal (time)'
p3022
F149.8051689999993
sa(dp3023
S'dicairano (time)'
p3024
F150.9334150000359
sg4
g43
sS'acary (time)'
p3025
F147.3240269999951
sS'ghadimi (time)'
p3026
F147.82160200004
sg8
g2996
sS'normal (time)'
p3027
F150.79335900000297
sa(dp3028
S'dicairano (time)'
p3029
F145.7210840000189
sg4
g49
sS'acary (time)'
p3030
F146.58423099998618
sS'ghadimi (time)'
p3031
F152.02241199999116
sg8
g2996
sS'normal (time)'
p3032
F145.7230190000264
sa(dp3033
S'dicairano (time)'
p3034
F150.77976300002774
sg4
g55
sS'acary (time)'
p3035
F147.59133500000462
sS'ghadimi (time)'
p3036
F147.3754959999933
sg8
g2996
sS'normal (time)'
p3037
F150.24455300002592
sa(dp3038
S'dicairano (time)'
p3039
F150.99368899996625
sg4
g61
sS'acary (time)'
p3040
F148.8427410000004
sS'ghadimi (time)'
p3041
F148.67613300000085
sg8
g2996
sS'normal (time)'
p3042
F150.82955899997614
sa(dp3043
S'dicairano (time)'
p3044
F154.03747799998382
sg4
g67
sS'acary (time)'
p3045
F154.32123599998886
sS'ghadimi (time)'
p3046
F154.3160589999752
sg8
g2996
sS'normal (time)'
p3047
F153.96100800001295
sa(dp3048
S'dicairano (time)'
p3049
F150.98045899998397
sg4
g73
sS'acary (time)'
p3050
F149.31633399997372
sS'ghadimi (time)'
p3051
F149.37893700000132
sg8
g2996
sS'normal (time)'
p3052
F150.84502299997257
saa(lp3053
(dp3054
S'dicairano (time)'
p3055
F78.5034169999999
sg4
g5
sS'acary (time)'
p3056
F75.67165000003297
sS'ghadimi (time)'
p3057
F75.05204400001094
sg8
S'Box_Stacks-i1000-639-35.hdf5'
p3058
sS'normal (time)'
p3059
F78.64902599999914
sa(dp3060
S'dicairano (time)'
p3061
F82.78584399999818
sg4
g13
sS'acary (time)'
p3062
F82.22319300001254
sS'ghadimi (time)'
p3063
F80.54851799999597
sg8
g3058
sS'normal (time)'
p3064
F82.4551700000302
sa(dp3065
S'dicairano (time)'
p3066
F78.39106900000479
sg4
g19
sS'acary (time)'
p3067
F75.77838700002758
sS'ghadimi (time)'
p3068
F75.56998299999395
sg8
g3058
sS'normal (time)'
p3069
F78.81493300001603
sa(dp3070
S'dicairano (time)'
p3071
F149.71128300001146
sg4
g25
sS'acary (time)'
p3072
F149.55841400002828
sS'ghadimi (time)'
p3073
F148.08512400003383
sg8
g3058
sS'normal (time)'
p3074
F149.8312530000112
sa(dp3075
S'dicairano (time)'
p3076
F153.97693199996138
sg4
g31
sS'acary (time)'
p3077
F154.19649299996672
sS'ghadimi (time)'
p3078
F153.82974600000307
sg8
g3058
sS'normal (time)'
p3079
F153.5309750000015
sa(dp3080
S'dicairano (time)'
p3081
F149.67794700001832
sg4
g37
sS'acary (time)'
p3082
F149.93800999998348
sS'ghadimi (time)'
p3083
F148.36728700000094
sg8
g3058
sS'normal (time)'
p3084
F149.96134099998744
sa(dp3085
S'dicairano (time)'
p3086
F150.95171200000914
sg4
g43
sS'acary (time)'
p3087
F148.1636259999941
sS'ghadimi (time)'
p3088
F149.42898700002115
sg8
g3058
sS'normal (time)'
p3089
F151.15636599995196
sa(dp3090
S'dicairano (time)'
p3091
F146.2232049999875
sg4
g49
sS'acary (time)'
p3092
F148.5678509999998
sS'ghadimi (time)'
p3093
F147.37029799999436
sg8
g3058
sS'normal (time)'
p3094
F146.2386820000247
sa(dp3095
S'dicairano (time)'
p3096
F151.31809399998747
sg4
g55
sS'acary (time)'
p3097
F148.5190570000559
sS'ghadimi (time)'
p3098
F147.97615100000985
sg8
g3058
sS'normal (time)'
p3099
F150.57162599998992
sa(dp3100
S'dicairano (time)'
p3101
F150.99157300003571
sg4
g61
sS'acary (time)'
p3102
F149.71872500004247
sS'ghadimi (time)'
p3103
F149.4301090000081
sg8
g3058
sS'normal (time)'
p3104
F151.16720399999758
sa(dp3105
S'dicairano (time)'
p3106
F155.19716400001198
sg4
g67
sS'acary (time)'
p3107
F154.97066699998686
sS'ghadimi (time)'
p3108
F155.00173700001324
sg8
g3058
sS'normal (time)'
p3109
F154.94506299996283
sa(dp3110
S'dicairano (time)'
p3111
F151.01054200000362
sg4
g73
sS'acary (time)'
p3112
F149.85076500003925
sS'ghadimi (time)'
p3113
F149.76619799999753
sg8
g3058
sS'normal (time)'
p3114
F151.6263720000279
saa(lp3115
(dp3116
S'dicairano (time)'
p3117
F78.3140790000325
sg4
g5
sS'acary (time)'
p3118
F75.668227999995
sS'ghadimi (time)'
p3119
F75.14119400002528
sg8
S'Box_Stacks-i1000-641-37.hdf5'
p3120
sS'normal (time)'
p3121
F78.5126009999658
sa(dp3122
S'dicairano (time)'
p3123
F82.33182999998098
sg4
g13
sS'acary (time)'
p3124
F81.69775300001493
sS'ghadimi (time)'
p3125
F80.31353999994462
sg8
g3120
sS'normal (time)'
p3126
F82.12118099996587
sa(dp3127
S'dicairano (time)'
p3128
F78.0483649999951
sg4
g19
sS'acary (time)'
p3129
F75.64854600001127
sS'ghadimi (time)'
p3130
F75.35093799995957
sg8
g3120
sS'normal (time)'
p3131
F78.35078900004737
sa(dp3132
S'dicairano (time)'
p3133
F149.4126180000021
sg4
g25
sS'acary (time)'
p3134
F149.1554850000539
sS'ghadimi (time)'
p3135
F148.05938900000183
sg8
g3120
sS'normal (time)'
p3136
F149.82256100000814
sa(dp3137
S'dicairano (time)'
p3138
F153.4321920000366
sg4
g31
sS'acary (time)'
p3139
F153.480045000033
sS'ghadimi (time)'
p3140
F153.60028999997303
sg8
g3120
sS'normal (time)'
p3141
F153.3025300000445
sa(dp3142
S'dicairano (time)'
p3143
F149.40581799997017
sg4
g37
sS'acary (time)'
p3144
F149.53410299995448
sS'ghadimi (time)'
p3145
F149.59778800001368
sg8
g3120
sS'normal (time)'
p3146
F149.524430999998
sa(dp3147
S'dicairano (time)'
p3148
F150.48907000001054
sg4
g43
sS'acary (time)'
p3149
F147.80695300002117
sS'ghadimi (time)'
p3150
F149.15440599998692
sg8
g3120
sS'normal (time)'
p3151
F150.71739200002048
sa(dp3152
S'dicairano (time)'
p3153
F146.3533199999947
sg4
g49
sS'acary (time)'
p3154
F147.06101900001522
sS'ghadimi (time)'
p3155
F147.61683300003642
sg8
g3120
sS'normal (time)'
p3156
F146.4774080000352
sa(dp3157
S'dicairano (time)'
p3158
F150.14154099998996
sg4
g55
sS'acary (time)'
p3159
F156.3195429999614
sS'ghadimi (time)'
p3160
F147.9899420000147
sg8
g3120
sS'normal (time)'
p3161
F151.05612200003816
sa(dp3162
S'dicairano (time)'
p3163
F150.87831599998754
sg4
g61
sS'acary (time)'
p3164
F149.59943200001726
sS'ghadimi (time)'
p3165
F149.360604000045
sg8
g3120
sS'normal (time)'
p3166
F151.39363599999342
sa(dp3167
S'dicairano (time)'
p3168
F154.84868100000313
sg4
g67
sS'acary (time)'
p3169
F154.98545999999624
sS'ghadimi (time)'
p3170
F154.80432300001848
sg8
g3120
sS'normal (time)'
p3171
F154.61023900000146
sa(dp3172
S'dicairano (time)'
p3173
F150.6721120000002
sg4
g73
sS'acary (time)'
p3174
F149.69445100001758
sS'ghadimi (time)'
p3175
F155.4516580000054
sg8
g3120
sS'normal (time)'
p3176
F151.37760499998694
saa(lp3177
(dp3178
S'dicairano (time)'
p3179
F78.25756699999329
sg4
g5
sS'acary (time)'
p3180
F75.74812300002668
sS'ghadimi (time)'
p3181
F75.17513200000394
sg8
S'Box_Stacks-i1000-642-38.hdf5'
p3182
sS'normal (time)'
p3183
F78.97031500004232
sa(dp3184
S'dicairano (time)'
p3185
F82.3652529999963
sg4
g13
sS'acary (time)'
p3186
F82.09002699999837
sS'ghadimi (time)'
p3187
F80.52971699996851
sg8
g3182
sS'normal (time)'
p3188
F82.38914599997224
sa(dp3189
S'dicairano (time)'
p3190
F79.04090199997881
sg4
g19
sS'acary (time)'
p3191
F75.67522199999075
sS'ghadimi (time)'
p3192
F75.46768800000427
sg8
g3182
sS'normal (time)'
p3193
F78.8289999999688
sa(dp3194
S'dicairano (time)'
p3195
F149.39816699997755
sg4
g25
sS'acary (time)'
p3196
F149.3019520000089
sS'ghadimi (time)'
p3197
F148.15699399996083
sg8
g3182
sS'normal (time)'
p3198
F150.1115540000028
sa(dp3199
S'dicairano (time)'
p3200
F153.63647099997615
sg4
g31
sS'acary (time)'
p3201
F153.63748599996325
sS'ghadimi (time)'
p3202
F153.81409599998733
sg8
g3182
sS'normal (time)'
p3203
F153.55556000000797
sa(dp3204
S'dicairano (time)'
p3205
F150.08224999997765
sg4
g37
sS'acary (time)'
p3206
F149.12192100001266
sS'ghadimi (time)'
p3207
F148.29662099998677
sg8
g3182
sS'normal (time)'
p3208
F150.03151200001594
sa(dp3209
S'dicairano (time)'
p3210
F150.72613399999682
sg4
g43
sS'acary (time)'
p3211
F147.93258299998706
sS'ghadimi (time)'
p3212
F149.33344499999657
sg8
g3182
sS'normal (time)'
p3213
F151.23245100001805
sa(dp3214
S'dicairano (time)'
p3215
F146.19904300000053
sg4
g49
sS'acary (time)'
p3216
F147.16920499998378
sS'ghadimi (time)'
p3217
F147.45933899999363
sg8
g3182
sS'normal (time)'
p3218
F146.34730199998012
sa(dp3219
S'dicairano (time)'
p3220
F151.2676339999889
sg4
g55
sS'acary (time)'
p3221
F148.19030600000406
sS'ghadimi (time)'
p3222
F148.04000799998175
sg8
g3182
sS'normal (time)'
p3223
F149.93509599997196
sa(dp3224
S'dicairano (time)'
p3225
F150.7399260000093
sg4
g61
sS'acary (time)'
p3226
F149.65355600003386
sS'ghadimi (time)'
p3227
F149.49296100001084
sg8
g3182
sS'normal (time)'
p3228
F151.40405000001192
sa(dp3229
S'dicairano (time)'
p3230
F154.82682999997633
sg4
g67
sS'acary (time)'
p3231
F154.61123300000327
sS'ghadimi (time)'
p3232
F155.55558899999596
sg8
g3182
sS'normal (time)'
p3233
F155.36130599997705
sa(dp3234
S'dicairano (time)'
p3235
F152.00755100004608
sg4
g73
sS'acary (time)'
p3236
F150.4070270000375
sS'ghadimi (time)'
p3237
F150.34862300002715
sg8
g3182
sS'normal (time)'
p3238
F151.7413570000208
saa(lp3239
(dp3240
S'dicairano (time)'
p3241
F78.51532199996291
sg4
g5
sS'acary (time)'
p3242
F76.02014599996619
sS'ghadimi (time)'
p3243
F75.42362700001104
sg8
S'Box_Stacks-i1000-643-36.hdf5'
p3244
sS'normal (time)'
p3245
F78.82867300004
sa(dp3246
S'dicairano (time)'
p3247
F82.95806400000583
sg4
g13
sS'acary (time)'
p3248
F82.42067500000121
sS'ghadimi (time)'
p3249
F80.89693400001852
sg8
g3244
sS'normal (time)'
p3250
F82.73130200000014
sa(dp3251
S'dicairano (time)'
p3252
F78.56903299997794
sg4
g19
sS'acary (time)'
p3253
F76.24037600000156
sS'ghadimi (time)'
p3254
F75.82691599999089
sg8
g3244
sS'normal (time)'
p3255
F79.15281500003766
sa(dp3256
S'dicairano (time)'
p3257
F150.08488099998794
sg4
g25
sS'acary (time)'
p3258
F150.2161639999831
sS'ghadimi (time)'
p3259
F148.70909600000596
sg8
g3244
sS'normal (time)'
p3260
F150.5847139999969
sa(dp3261
S'dicairano (time)'
p3262
F154.38921100000152
sg4
g31
sS'acary (time)'
p3263
F154.58648900000844
sS'ghadimi (time)'
p3264
F154.61310899996897
sg8
g3244
sS'normal (time)'
p3265
F154.203703999985
sa(dp3266
S'dicairano (time)'
p3267
F150.1344810000155
sg4
g37
sS'acary (time)'
p3268
F150.27396999998018
sS'ghadimi (time)'
p3269
F148.85333899996476
sg8
g3244
sS'normal (time)'
p3270
F155.09149199997773
sa(dp3271
S'dicairano (time)'
p3272
F150.6455540000461
sg4
g43
sS'acary (time)'
p3273
F149.20336399995722
sS'ghadimi (time)'
p3274
F148.91787399997702
sg8
g3244
sS'normal (time)'
p3275
F151.00692499999423
sa(dp3276
S'dicairano (time)'
p3277
F146.5060550000053
sg4
g49
sS'acary (time)'
p3278
F146.91213800001424
sS'ghadimi (time)'
p3279
F147.50887899997178
sg8
g3244
sS'normal (time)'
p3280
F146.66375700000208
sa(dp3281
S'dicairano (time)'
p3282
F150.86465399997542
sg4
g55
sS'acary (time)'
p3283
F149.32116799999494
sS'ghadimi (time)'
p3284
F148.60699399997247
sg8
g3244
sS'normal (time)'
p3285
F150.02762399998028
sa(dp3286
S'dicairano (time)'
p3287
F150.87940700002946
sg4
g61
sS'acary (time)'
p3288
F149.6870549999876
sS'ghadimi (time)'
p3289
F149.58757299999706
sg8
g3244
sS'normal (time)'
p3290
F151.51282799994806
sa(dp3291
S'dicairano (time)'
p3292
F155.10684199997922
sg4
g67
sS'acary (time)'
p3293
F155.24421699997038
sS'ghadimi (time)'
p3294
F155.16940999997314
sg8
g3244
sS'normal (time)'
p3295
F163.2297060000128
sa(dp3296
S'dicairano (time)'
p3297
F151.33250300004147
sg4
g73
sS'acary (time)'
p3298
F150.29841900005704
sS'ghadimi (time)'
p3299
F150.2094989999896
sg8
g3244
sS'normal (time)'
p3300
F152.27801299997373
saa(lp3301
(dp3302
S'dicairano (time)'
p3303
F0.9702330000000075
sg4
g5
sS'acary (time)'
p3304
F0.8841949999914505
sS'ghadimi (time)'
p3305
F40.99416800000472
sg8
S'Box_Stacks-i1000-77-2.hdf5'
p3306
sS'normal (time)'
p3307
F2.097792999993544
sa(dp3308
S'dicairano (time)'
p3309
F40.609348999976646
sg4
g13
sS'acary (time)'
p3310
F1.8389060000190511
sS'ghadimi (time)'
p3311
F40.73532900004648
sg8
g3306
sS'normal (time)'
p3312
F40.263437999994494
sa(dp3313
S'dicairano (time)'
p3314
F1.1777659999788739
sg4
g19
sS'acary (time)'
p3315
F0.7701660000020638
sS'ghadimi (time)'
p3316
F41.0698679999914
sg8
g3306
sS'normal (time)'
p3317
F1.3619959999923594
sa(dp3318
S'dicairano (time)'
p3319
F1.5209639999666251
sg4
g25
sS'acary (time)'
p3320
F1.3620910000172444
sS'ghadimi (time)'
p3321
F1.09776299999794
sg8
g3306
sS'normal (time)'
p3322
F1.9510219999938272
sa(dp3323
S'dicairano (time)'
p3324
F64.13804600003641
sg4
g31
sS'acary (time)'
p3325
F2.863584000035189
sS'ghadimi (time)'
p3326
F3.0324519999558106
sg8
g3306
sS'normal (time)'
p3327
F63.74826000002213
sa(dp3328
S'dicairano (time)'
p3329
F1.7832139999954961
sg4
g37
sS'acary (time)'
p3330
F1.1754040000378154
sS'ghadimi (time)'
p3331
F1.3641760000027716
sg8
g3306
sS'normal (time)'
p3332
F2.138403000019025
sa(dp3333
S'dicairano (time)'
p3334
F3.286614000040572
sg4
g43
sS'acary (time)'
p3335
F63.519020000007
sS'ghadimi (time)'
p3336
F2.391991999989841
sg8
g3306
sS'normal (time)'
p3337
Fnan
sa(dp3338
S'dicairano (time)'
p3339
F64.36538299999665
sg4
g49
sS'acary (time)'
p3340
F64.5296339999768
sS'ghadimi (time)'
p3341
F64.34228700003587
sg8
g3306
sS'normal (time)'
p3342
F64.3372349999845
sa(dp3343
S'dicairano (time)'
p3344
F62.45526899996912
sg4
g55
sS'acary (time)'
p3345
F62.830271999991965
sS'ghadimi (time)'
p3346
F63.857634000014514
sg8
g3306
sS'normal (time)'
p3347
F62.42842099996051
sa(dp3348
S'dicairano (time)'
p3349
F2.4894299999577925
sg4
g61
sS'acary (time)'
p3350
F3.1338890000479296
sS'ghadimi (time)'
p3351
F3.251280000025872
sg8
g3306
sS'normal (time)'
p3352
F2.865339000010863
sa(dp3353
S'dicairano (time)'
p3354
F30.543841999955475
sg4
g67
sS'acary (time)'
p3355
F64.74001700000372
sS'ghadimi (time)'
p3356
F64.60751100000925
sg8
g3306
sS'normal (time)'
p3357
F63.79838200000813
sa(dp3358
S'dicairano (time)'
p3359
F2.3064460000023246
sg4
g73
sS'acary (time)'
p3360
F3.0789399999775924
sS'ghadimi (time)'
p3361
F2.0243330000084825
sg8
g3306
sS'normal (time)'
p3362
F3.0590010000159964
saa.